
ASMTest.prx:     file format elf32-littlemips

Disassembly of section .text:

00000000 <.text>:
       0:	27bdff90 	addiu	sp,sp,-112
       4:	afb50068 	sw	s5,104(sp)
       8:	afb40064 	sw	s4,100(sp)
       c:	afb30060 	sw	s3,96(sp)
      10:	afb2005c 	sw	s2,92(sp)
      14:	afb10058 	sw	s1,88(sp)
      18:	afb00054 	sw	s0,84(sp)
      1c:	afbf006c 	sw	ra,108(sp)
      20:	00809821 	move	s3,a0
      24:	00a0a821 	move	s5,a1
      28:	0c002e7a 	jal	0xb9e8
      2c:	03a09021 	move	s2,sp
      30:	00008021 	move	s0,zero
      34:	00008821 	move	s1,zero
      38:	10000009 	b	0x60
      3c:	24140013 	li	s4,19
      40:	00402021 	move	a0,v0
      44:	ae420000 	sw	v0,0(s2)
      48:	0c000331 	jal	0xcc4
      4c:	26100001 	addiu	s0,s0,1
      50:	26310001 	addiu	s1,s1,1
      54:	02028021 	addu	s0,s0,v0
      58:	12340004 	beq	s1,s4,0x6c
      5c:	26520004 	addiu	s2,s2,4
      60:	0213102b 	sltu	v0,s0,s3
      64:	1440fff6 	bnez	v0,0x40
      68:	02b01021 	addu	v0,s5,s0
      6c:	00111880 	sll	v1,s1,0x2
      70:	3c020000 	lui	v0,0x0
      74:	03a31821 	addu	v1,sp,v1
      78:	24420e34 	addiu	v0,v0,3636
      7c:	10400004 	beqz	v0,0x90
      80:	ac600000 	sw	zero,0(v1)
      84:	03a02821 	move	a1,sp
      88:	0c00038d 	jal	0xe34
      8c:	02202021 	move	a0,s1
      90:	3c040001 	lui	a0,0x1
      94:	0c00031d 	jal	0xc74
      98:	2484ba0c 	addiu	a0,a0,-17908
      9c:	02202021 	move	a0,s1
      a0:	0c0000d4 	jal	0x350
      a4:	03a02821 	move	a1,sp
      a8:	0c000322 	jal	0xc88
      ac:	00402021 	move	a0,v0
      b0:	3c020000 	lui	v0,0x0
      b4:	27bdfff0 	addiu	sp,sp,-16
      b8:	24420000 	addiu	v0,v0,0
      bc:	afbf000c 	sw	ra,12(sp)
      c0:	afb10008 	sw	s1,8(sp)
      c4:	14400033 	bnez	v0,0x194
      c8:	afb00004 	sw	s0,4(sp)
      cc:	3c020000 	lui	v0,0x0
      d0:	24430000 	addiu	v1,v0,0
      d4:	00808021 	move	s0,a0
      d8:	1060001f 	beqz	v1,0x158
      dc:	00a08821 	move	s1,a1
      e0:	8c460000 	lw	a2,0(v0)
      e4:	3c020001 	lui	v0,0x1
      e8:	2443c448 	addiu	v1,v0,-15288
      ec:	5060001f 	beqzl	v1,0x16c
      f0:	3c020000 	lui	v0,0x0
      f4:	8c48c448 	lw	t0,-15288(v0)
      f8:	3c020000 	lui	v0,0x0
      fc:	24430000 	addiu	v1,v0,0
     100:	5060001e 	beqzl	v1,0x17c
     104:	3c020000 	lui	v0,0x0
     108:	8c470000 	lw	a3,0(v0)
     10c:	3c020000 	lui	v0,0x0
     110:	24430000 	addiu	v1,v0,0
     114:	1060001c 	beqz	v1,0x188
     118:	00073a80 	sll	a3,a3,0xa
     11c:	8c440000 	lw	a0,0(v0)
     120:	3c050000 	lui	a1,0x0
     124:	00004821 	move	t1,zero
     128:	0c002ea6 	jal	0xba98
     12c:	24a50000 	addiu	a1,a1,0
     130:	00402021 	move	a0,v0
     134:	02203021 	move	a2,s1
     138:	0c002ea8 	jal	0xbaa0
     13c:	02002821 	move	a1,s0
     140:	8fbf000c 	lw	ra,12(sp)
     144:	8fb10008 	lw	s1,8(sp)
     148:	8fb00004 	lw	s0,4(sp)
     14c:	00001021 	move	v0,zero
     150:	03e00008 	jr	ra
     154:	27bd0010 	addiu	sp,sp,16
     158:	3c020001 	lui	v0,0x1
     15c:	2443c448 	addiu	v1,v0,-15288
     160:	1460ffe4 	bnez	v1,0xf4
     164:	24060020 	li	a2,32
     168:	3c020000 	lui	v0,0x0
     16c:	24430000 	addiu	v1,v0,0
     170:	1460ffe5 	bnez	v1,0x108
     174:	00004021 	move	t0,zero
     178:	3c020000 	lui	v0,0x0
     17c:	24430000 	addiu	v1,v0,0
     180:	1460ffe6 	bnez	v1,0x11c
     184:	3c070004 	lui	a3,0x4
     188:	3c040001 	lui	a0,0x1
     18c:	1000ffe4 	b	0x120
     190:	2484bca8 	addiu	a0,a0,-17240
     194:	0c000000 	jal	0x0
     198:	00000000 	nop
     19c:	3c040001 	lui	a0,0x1
     1a0:	3c020001 	lui	v0,0x1
     1a4:	2484d4dc 	addiu	a0,a0,-11044
     1a8:	2442d4dc 	addiu	v0,v0,-11044
     1ac:	10440006 	beq	v0,a0,0x1c8
     1b0:	3c190000 	lui	t9,0x0
     1b4:	27390000 	addiu	t9,t9,0
     1b8:	13200003 	beqz	t9,0x1c8
     1bc:	00000000 	nop
     1c0:	03200008 	jr	t9
     1c4:	00000000 	nop
     1c8:	03e00008 	jr	ra
     1cc:	00000000 	nop
     1d0:	3c040001 	lui	a0,0x1
     1d4:	3c020001 	lui	v0,0x1
     1d8:	2484d4dc 	addiu	a0,a0,-11044
     1dc:	2445d4dc 	addiu	a1,v0,-11044
     1e0:	00a42823 	subu	a1,a1,a0
     1e4:	00052883 	sra	a1,a1,0x2
     1e8:	000517c2 	srl	v0,a1,0x1f
     1ec:	00452821 	addu	a1,v0,a1
     1f0:	00052843 	sra	a1,a1,0x1
     1f4:	10a00006 	beqz	a1,0x210
     1f8:	3c190000 	lui	t9,0x0
     1fc:	27390000 	addiu	t9,t9,0
     200:	13200003 	beqz	t9,0x210
     204:	00000000 	nop
     208:	03200008 	jr	t9
     20c:	00000000 	nop
     210:	03e00008 	jr	ra
     214:	00000000 	nop
     218:	27bdffe8 	addiu	sp,sp,-24
     21c:	afb30010 	sw	s3,16(sp)
     220:	3c130001 	lui	s3,0x1
     224:	9262d4e8 	lbu	v0,-11032(s3)
     228:	afbf0014 	sw	ra,20(sp)
     22c:	afb2000c 	sw	s2,12(sp)
     230:	afb10008 	sw	s1,8(sp)
     234:	14400023 	bnez	v0,0x2c4
     238:	afb00004 	sw	s0,4(sp)
     23c:	3c110001 	lui	s1,0x1
     240:	3c020001 	lui	v0,0x1
     244:	2442c434 	addiu	v0,v0,-15308
     248:	3c100001 	lui	s0,0x1
     24c:	2631c438 	addiu	s1,s1,-15304
     250:	02228823 	subu	s1,s1,v0
     254:	8e02d4ec 	lw	v0,-11028(s0)
     258:	00118883 	sra	s1,s1,0x2
     25c:	2631ffff 	addiu	s1,s1,-1
     260:	3c040001 	lui	a0,0x1
     264:	0051182b 	sltu	v1,v0,s1
     268:	2492c434 	addiu	s2,a0,-15308
     26c:	1060000a 	beqz	v1,0x298
     270:	24420001 	addiu	v0,v0,1
     274:	00021880 	sll	v1,v0,0x2
     278:	02431821 	addu	v1,s2,v1
     27c:	8c630000 	lw	v1,0(v1)
     280:	0060f809 	jalr	v1
     284:	ae02d4ec 	sw	v0,-11028(s0)
     288:	8e02d4ec 	lw	v0,-11028(s0)
     28c:	0051182b 	sltu	v1,v0,s1
     290:	1460fff8 	bnez	v1,0x274
     294:	24420001 	addiu	v0,v0,1
     298:	0c000067 	jal	0x19c
     29c:	00000000 	nop
     2a0:	3c020000 	lui	v0,0x0
     2a4:	24420000 	addiu	v0,v0,0
     2a8:	10400005 	beqz	v0,0x2c0
     2ac:	24020001 	li	v0,1
     2b0:	3c040001 	lui	a0,0x1
     2b4:	0c000000 	jal	0x0
     2b8:	2484c2f8 	addiu	a0,a0,-15624
     2bc:	24020001 	li	v0,1
     2c0:	a262d4e8 	sb	v0,-11032(s3)
     2c4:	8fbf0014 	lw	ra,20(sp)
     2c8:	8fb30010 	lw	s3,16(sp)
     2cc:	8fb2000c 	lw	s2,12(sp)
     2d0:	8fb10008 	lw	s1,8(sp)
     2d4:	8fb00004 	lw	s0,4(sp)
     2d8:	03e00008 	jr	ra
     2dc:	27bd0018 	addiu	sp,sp,24
     2e0:	27bdfff8 	addiu	sp,sp,-8
     2e4:	afbf0004 	sw	ra,4(sp)
     2e8:	8fbf0004 	lw	ra,4(sp)
     2ec:	03e00008 	jr	ra
     2f0:	27bd0008 	addiu	sp,sp,8
     2f4:	3c020000 	lui	v0,0x0
     2f8:	24420000 	addiu	v0,v0,0
     2fc:	1040000a 	beqz	v0,0x328
     300:	3c050001 	lui	a1,0x1
     304:	3c040001 	lui	a0,0x1
     308:	27bdfff8 	addiu	sp,sp,-8
     30c:	24a5d4f0 	addiu	a1,a1,-11024
     310:	afbf0004 	sw	ra,4(sp)
     314:	0c000000 	jal	0x0
     318:	2484c2f8 	addiu	a0,a0,-15624
     31c:	8fbf0004 	lw	ra,4(sp)
     320:	08000074 	j	0x1d0
     324:	27bd0008 	addiu	sp,sp,8
     328:	08000074 	j	0x1d0
     32c:	00000000 	nop
     330:	27bdfff8 	addiu	sp,sp,-8
     334:	afbf0004 	sw	ra,4(sp)
     338:	8fbf0004 	lw	ra,4(sp)
     33c:	03e00008 	jr	ra
     340:	27bd0008 	addiu	sp,sp,8
     344:	6c6c6548 	0x6c6c6548
     348:	6f57206f 	vsge.s	S333.s,S001.s,S532.s
     34c:	21646c72 	addi	a0,t3,27762
     350:	015c000a 	movz	zero,t2,gp
     354:	00000c00 	sll	at,zero,0x10
     358:	00000000 	nop
     35c:	03073c04 	0x3073c04
     360:	03440c00 	0x3440c00
     364:	00d92484 	0xd92484
     368:	00000800 	sll	at,zero,0x0
     36c:	000a0000 	sll	zero,t2,0x0
     370:	000c2402 	srl	a0,t4,0x10
     374:	00000000 	nop
     378:	3c020001 	lui	v0,0x1
     37c:	8c46c450 	lw	a2,-15280(v0)
     380:	3c030001 	lui	v1,0x1
     384:	3c020001 	lui	v0,0x1
     388:	24050003 	li	a1,3
     38c:	8c42c454 	lw	v0,-15276(v0)
     390:	10c50014 	beq	a2,a1,0x3e4
     394:	8c63d50c 	lw	v1,-10996(v1)
     398:	24050001 	li	a1,1
     39c:	50c5002f 	beql	a2,a1,0x45c
     3a0:	00043182 	srl	a2,a0,0x6
     3a4:	24050002 	li	a1,2
     3a8:	50c50022 	beql	a2,a1,0x434
     3ac:	00042f02 	srl	a1,a0,0x1c
     3b0:	10c00017 	beqz	a2,0x410
     3b4:	00002821 	move	a1,zero
     3b8:	00031843 	sra	v1,v1,0x1
     3bc:	00031840 	sll	v1,v1,0x1
     3c0:	00431021 	addu	v0,v0,v1
     3c4:	3c030004 	lui	v1,0x4
     3c8:	24634000 	addiu	v1,v1,16384
     3cc:	00431821 	addu	v1,v0,v1
     3d0:	24420002 	addiu	v0,v0,2
     3d4:	1462fffe 	bne	v1,v0,0x3d0
     3d8:	a445fffe 	sh	a1,-2(v0)
     3dc:	03e00008 	jr	ra
     3e0:	00000000 	nop
     3e4:	00031883 	sra	v1,v1,0x2
     3e8:	00031880 	sll	v1,v1,0x2
     3ec:	00431021 	addu	v0,v0,v1
     3f0:	3c030008 	lui	v1,0x8
     3f4:	34638000 	ori	v1,v1,0x8000
     3f8:	00431821 	addu	v1,v0,v1
     3fc:	24420004 	addiu	v0,v0,4
     400:	1443fffe 	bne	v0,v1,0x3fc
     404:	ac44fffc 	sw	a0,-4(v0)
     408:	03e00008 	jr	ra
     40c:	00000000 	nop
     410:	000434c2 	srl	a2,a0,0x13
     414:	7c8520c0 	ext	a1,a0,0x3,0x5
     418:	000632c0 	sll	a2,a2,0xb
     41c:	00042142 	srl	a0,a0,0x5
     420:	00a62825 	or	a1,a1,a2
     424:	308407e0 	andi	a0,a0,0x7e0
     428:	00a42825 	or	a1,a1,a0
     42c:	1000ffe2 	b	0x3b8
     430:	30a5ffff 	andi	a1,a1,0xffff
     434:	7c871900 	ext	a3,a0,0x4,0x4
     438:	00043202 	srl	a2,a0,0x8
     43c:	00052b00 	sll	a1,a1,0xc
     440:	00a72825 	or	a1,a1,a3
     444:	30c600f0 	andi	a2,a2,0xf0
     448:	00042302 	srl	a0,a0,0xc
     44c:	00a62825 	or	a1,a1,a2
     450:	30840f00 	andi	a0,a0,0xf00
     454:	1000ffd8 	b	0x3b8
     458:	00a42825 	or	a1,a1,a0
     45c:	00043a42 	srl	a3,a0,0x9
     460:	30e77c00 	andi	a3,a3,0x7c00
     464:	30c603e0 	andi	a2,a2,0x3e0
     468:	00042e02 	srl	a1,a0,0x18
     46c:	00c73025 	or	a2,a2,a3
     470:	7c8420c0 	ext	a0,a0,0x3,0x5
     474:	24078000 	li	a3,-32768
     478:	0005380a 	movz	a3,zero,a1
     47c:	00c43025 	or	a2,a2,a0
     480:	00e62825 	or	a1,a3,a2
     484:	1000ffcc 	b	0x3b8
     488:	30a5ffff 	andi	a1,a1,0xffff
     48c:	27bdffe8 	addiu	sp,sp,-24
     490:	24020003 	li	v0,3
     494:	2ca30004 	sltiu	v1,a1,4
     498:	afb0000c 	sw	s0,12(sp)
     49c:	00a08021 	move	s0,a1
     4a0:	0043800a 	movz	s0,v0,v1
     4a4:	3c020001 	lui	v0,0x1
     4a8:	ac40d514 	sw	zero,-10988(v0)
     4ac:	3c020001 	lui	v0,0x1
     4b0:	afbf0014 	sw	ra,20(sp)
     4b4:	afb10010 	sw	s1,16(sp)
     4b8:	10800027 	beqz	a0,0x558
     4bc:	ac40d518 	sw	zero,-10984(v0)
     4c0:	3c020001 	lui	v0,0x1
     4c4:	3c110001 	lui	s1,0x1
     4c8:	ac40d50c 	sw	zero,-10996(v0)
     4cc:	3c020001 	lui	v0,0x1
     4d0:	ae24c454 	sw	a0,-15276(s1)
     4d4:	14c0000c 	bnez	a2,0x508
     4d8:	ac50c450 	sw	s0,-15280(v0)
     4dc:	3c020001 	lui	v0,0x1
     4e0:	0c0000de 	jal	0x378
     4e4:	8c44d510 	lw	a0,-10992(v0)
     4e8:	8fbf0014 	lw	ra,20(sp)
     4ec:	3c020001 	lui	v0,0x1
     4f0:	24030001 	li	v1,1
     4f4:	8fb10010 	lw	s1,16(sp)
     4f8:	8fb0000c 	lw	s0,12(sp)
     4fc:	ac43d508 	sw	v1,-11000(v0)
     500:	03e00008 	jr	ra
     504:	27bd0018 	addiu	sp,sp,24
     508:	24060110 	li	a2,272
     50c:	240501e0 	li	a1,480
     510:	0c002e8a 	jal	0xba28
     514:	00002021 	move	a0,zero
     518:	8e24c454 	lw	a0,-15276(s1)
     51c:	02003021 	move	a2,s0
     520:	24070001 	li	a3,1
     524:	0c002e8c 	jal	0xba30
     528:	24050200 	li	a1,512
     52c:	3c020001 	lui	v0,0x1
     530:	0c0000de 	jal	0x378
     534:	8c44d510 	lw	a0,-10992(v0)
     538:	8fbf0014 	lw	ra,20(sp)
     53c:	3c020001 	lui	v0,0x1
     540:	24030001 	li	v1,1
     544:	8fb10010 	lw	s1,16(sp)
     548:	8fb0000c 	lw	s0,12(sp)
     54c:	ac43d508 	sw	v1,-11000(v0)
     550:	03e00008 	jr	ra
     554:	27bd0018 	addiu	sp,sp,24
     558:	0c002e8e 	jal	0xba38
     55c:	afa60000 	sw	a2,0(sp)
     560:	3c044000 	lui	a0,0x4000
     564:	00442025 	or	a0,v0,a0
     568:	1000ffd5 	b	0x4c0
     56c:	8fa60000 	lw	a2,0(sp)
     570:	3c020001 	lui	v0,0x1
     574:	ac40d514 	sw	zero,-10988(v0)
     578:	24060001 	li	a2,1
     57c:	3c020001 	lui	v0,0x1
     580:	24050003 	li	a1,3
     584:	00002021 	move	a0,zero
     588:	08000123 	j	0x48c
     58c:	ac40d518 	sw	zero,-10984(v0)
     590:	3c020001 	lui	v0,0x1
     594:	03e00008 	jr	ra
     598:	ac44c458 	sw	a0,-15272(v0)
     59c:	3c020001 	lui	v0,0x1
     5a0:	03e00008 	jr	ra
     5a4:	ac44d510 	sw	a0,-10992(v0)
     5a8:	3c020001 	lui	v0,0x1
     5ac:	03e00008 	jr	ra
     5b0:	ac44c45c 	sw	a0,-15268(v0)
     5b4:	2c820004 	sltiu	v0,a0,4
     5b8:	24030003 	li	v1,3
     5bc:	0062200a 	movz	a0,v1,v0
     5c0:	3c020001 	lui	v0,0x1
     5c4:	03e00008 	jr	ra
     5c8:	ac44c450 	sw	a0,-15280(v0)
     5cc:	3c020001 	lui	v0,0x1
     5d0:	03e00008 	jr	ra
     5d4:	8c42d518 	lw	v0,-10984(v0)
     5d8:	3c020001 	lui	v0,0x1
     5dc:	03e00008 	jr	ra
     5e0:	8c42d514 	lw	v0,-10988(v0)
     5e4:	2c820044 	sltiu	v0,a0,68
     5e8:	10400004 	beqz	v0,0x5fc
     5ec:	2ca20022 	sltiu	v0,a1,34
     5f0:	3c020001 	lui	v0,0x1
     5f4:	ac44d518 	sw	a0,-10984(v0)
     5f8:	2ca20022 	sltiu	v0,a1,34
     5fc:	10400002 	beqz	v0,0x608
     600:	3c020001 	lui	v0,0x1
     604:	ac45d514 	sw	a1,-10988(v0)
     608:	03e00008 	jr	ra
     60c:	00000000 	nop
     610:	3c020001 	lui	v0,0x1
     614:	03e00008 	jr	ra
     618:	ac44d50c 	sw	a0,-10996(v0)
     61c:	3c020001 	lui	v0,0x1
     620:	03e00008 	jr	ra
     624:	ac44c454 	sw	a0,-15276(v0)
     628:	3c020001 	lui	v0,0x1
     62c:	8c42c450 	lw	v0,-15280(v0)
     630:	3c0a0001 	lui	t2,0x1
     634:	24090003 	li	t1,3
     638:	10490033 	beq	v0,t1,0x708
     63c:	8d48d508 	lw	t0,-11000(t2)
     640:	24090001 	li	t1,1
     644:	1049005b 	beq	v0,t1,0x7b4
     648:	24090002 	li	t1,2
     64c:	50490074 	beql	v0,t1,0x820
     650:	3c020001 	lui	v0,0x1
     654:	10400088 	beqz	v0,0x878
     658:	3c020001 	lui	v0,0x1
     65c:	00001021 	move	v0,zero
     660:	00003021 	move	a2,zero
     664:	11000026 	beqz	t0,0x700
     668:	3c030001 	lui	v1,0x1
     66c:	8c68d50c 	lw	t0,-10996(v1)
     670:	3c030001 	lui	v1,0x1
     674:	8c63c454 	lw	v1,-15276(v1)
     678:	00084043 	sra	t0,t0,0x1
     67c:	01044021 	addu	t0,t0,a0
     680:	00084040 	sll	t0,t0,0x1
     684:	00052a80 	sll	a1,a1,0xa
     688:	01052821 	addu	a1,t0,a1
     68c:	00652821 	addu	a1,v1,a1
     690:	000718c0 	sll	v1,a3,0x3
     694:	3c070001 	lui	a3,0x1
     698:	24e7c460 	addiu	a3,a3,-15264
     69c:	00e33821 	addu	a3,a3,v1
     6a0:	3c030001 	lui	v1,0x1
     6a4:	8c6dc458 	lw	t5,-15272(v1)
     6a8:	24ac2000 	addiu	t4,a1,8192
     6ac:	240b0080 	li	t3,128
     6b0:	240a0008 	li	t2,8
     6b4:	00a02021 	move	a0,a1
     6b8:	10000004 	b	0x6cc
     6bc:	00001821 	move	v1,zero
     6c0:	24630001 	addiu	v1,v1,1
     6c4:	106a000b 	beq	v1,t2,0x6f4
     6c8:	24840002 	addiu	a0,a0,2
     6cc:	90e80000 	lbu	t0,0(a3)
     6d0:	006b4807 	srav	t1,t3,v1
     6d4:	01094024 	and	t0,t0,t1
     6d8:	5500fff9 	bnezl	t0,0x6c0
     6dc:	a4860000 	sh	a2,0(a0)
     6e0:	11a0fff8 	beqz	t5,0x6c4
     6e4:	24630001 	addiu	v1,v1,1
     6e8:	a4820000 	sh	v0,0(a0)
     6ec:	146afff7 	bne	v1,t2,0x6cc
     6f0:	24840002 	addiu	a0,a0,2
     6f4:	24a50400 	addiu	a1,a1,1024
     6f8:	14acffee 	bne	a1,t4,0x6b4
     6fc:	24e70001 	addiu	a3,a3,1
     700:	03e00008 	jr	ra
     704:	00000000 	nop
     708:	1100fffd 	beqz	t0,0x700
     70c:	3c020001 	lui	v0,0x1
     710:	8c48d50c 	lw	t0,-10996(v0)
     714:	3c020001 	lui	v0,0x1
     718:	8c42c454 	lw	v0,-15276(v0)
     71c:	00084083 	sra	t0,t0,0x2
     720:	01044021 	addu	t0,t0,a0
     724:	00082080 	sll	a0,t0,0x2
     728:	00052ac0 	sll	a1,a1,0xb
     72c:	00852021 	addu	a0,a0,a1
     730:	00442021 	addu	a0,v0,a0
     734:	3c020001 	lui	v0,0x1
     738:	8c4dd510 	lw	t5,-10992(v0)
     73c:	3c020001 	lui	v0,0x1
     740:	000718c0 	sll	v1,a3,0x3
     744:	8c4cc458 	lw	t4,-15272(v0)
     748:	3c070001 	lui	a3,0x1
     74c:	24e7c460 	addiu	a3,a3,-15264
     750:	00e33821 	addu	a3,a3,v1
     754:	248b4000 	addiu	t3,a0,16384
     758:	240a0080 	li	t2,128
     75c:	24090008 	li	t1,8
     760:	00801821 	move	v1,a0
     764:	10000004 	b	0x778
     768:	00001021 	move	v0,zero
     76c:	24420001 	addiu	v0,v0,1
     770:	1049000b 	beq	v0,t1,0x7a0
     774:	24630004 	addiu	v1,v1,4
     778:	90e50000 	lbu	a1,0(a3)
     77c:	004a4007 	srav	t0,t2,v0
     780:	00a82824 	and	a1,a1,t0
     784:	54a0fff9 	bnezl	a1,0x76c
     788:	ac660000 	sw	a2,0(v1)
     78c:	1180fff8 	beqz	t4,0x770
     790:	24420001 	addiu	v0,v0,1
     794:	ac6d0000 	sw	t5,0(v1)
     798:	1449fff7 	bne	v0,t1,0x778
     79c:	24630004 	addiu	v1,v1,4
     7a0:	24840800 	addiu	a0,a0,2048
     7a4:	148bffee 	bne	a0,t3,0x760
     7a8:	24e70001 	addiu	a3,a3,1
     7ac:	03e00008 	jr	ra
     7b0:	00000000 	nop
     7b4:	3c020001 	lui	v0,0x1
     7b8:	8c4ad510 	lw	t2,-10992(v0)
     7bc:	00064982 	srl	t1,a2,0x6
     7c0:	00066a42 	srl	t5,a2,0x9
     7c4:	000a1982 	srl	v1,t2,0x6
     7c8:	000a6242 	srl	t4,t2,0x9
     7cc:	318c7c00 	andi	t4,t4,0x7c00
     7d0:	240e8000 	li	t6,-32768
     7d4:	312903e0 	andi	t1,t1,0x3e0
     7d8:	31ad7c00 	andi	t5,t5,0x7c00
     7dc:	306303e0 	andi	v1,v1,0x3e0
     7e0:	000a1602 	srl	v0,t2,0x18
     7e4:	00065e02 	srl	t3,a2,0x18
     7e8:	006c1825 	or	v1,v1,t4
     7ec:	7cc620c0 	ext	a2,a2,0x3,0x5
     7f0:	01c06021 	move	t4,t6
     7f4:	012d4825 	or	t1,t1,t5
     7f8:	7d4a20c0 	ext	t2,t2,0x3,0x5
     7fc:	01264825 	or	t1,t1,a2
     800:	0002700a 	movz	t6,zero,v0
     804:	000b600a 	movz	t4,zero,t3
     808:	006a1825 	or	v1,v1,t2
     80c:	01894825 	or	t1,t4,t1
     810:	01c31825 	or	v1,t6,v1
     814:	3126ffff 	andi	a2,t1,0xffff
     818:	1000ff92 	b	0x664
     81c:	3062ffff 	andi	v0,v1,0xffff
     820:	8c49d510 	lw	t1,-10992(v0)
     824:	00061f02 	srl	v1,a2,0x1c
     828:	7ccd1900 	ext	t5,a2,0x4,0x4
     82c:	00091702 	srl	v0,t1,0x1c
     830:	00065a02 	srl	t3,a2,0x8
     834:	7d2c1900 	ext	t4,t1,0x4,0x4
     838:	00095202 	srl	t2,t1,0x8
     83c:	00031b00 	sll	v1,v1,0xc
     840:	00021300 	sll	v0,v0,0xc
     844:	006d1825 	or	v1,v1,t5
     848:	316b00f0 	andi	t3,t3,0xf0
     84c:	00063302 	srl	a2,a2,0xc
     850:	004c1025 	or	v0,v0,t4
     854:	314a00f0 	andi	t2,t2,0xf0
     858:	00094b02 	srl	t1,t1,0xc
     85c:	006b1825 	or	v1,v1,t3
     860:	30c60f00 	andi	a2,a2,0xf00
     864:	004a1025 	or	v0,v0,t2
     868:	31290f00 	andi	t1,t1,0xf00
     86c:	00663025 	or	a2,v1,a2
     870:	1000ff7c 	b	0x664
     874:	00491025 	or	v0,v0,t1
     878:	8c43d510 	lw	v1,-10992(v0)
     87c:	00065cc2 	srl	t3,a2,0x13
     880:	7cc920c0 	ext	t1,a2,0x3,0x5
     884:	000354c2 	srl	t2,v1,0x13
     888:	7c6220c0 	ext	v0,v1,0x3,0x5
     88c:	000b5ac0 	sll	t3,t3,0xb
     890:	00063142 	srl	a2,a2,0x5
     894:	000a52c0 	sll	t2,t2,0xb
     898:	00031942 	srl	v1,v1,0x5
     89c:	004a1025 	or	v0,v0,t2
     8a0:	012b4825 	or	t1,t1,t3
     8a4:	30c607e0 	andi	a2,a2,0x7e0
     8a8:	306307e0 	andi	v1,v1,0x7e0
     8ac:	01263025 	or	a2,t1,a2
     8b0:	00431825 	or	v1,v0,v1
     8b4:	30c6ffff 	andi	a2,a2,0xffff
     8b8:	1000ff6a 	b	0x664
     8bc:	3062ffff 	andi	v0,v1,0xffff
     8c0:	27bdfff8 	addiu	sp,sp,-8
     8c4:	3c020001 	lui	v0,0x1
     8c8:	afb00000 	sw	s0,0(sp)
     8cc:	8c50d510 	lw	s0,-10992(v0)
     8d0:	afbf0004 	sw	ra,4(sp)
     8d4:	0004c8c0 	sll	t9,a0,0x3
     8d8:	00007821 	move	t7,zero
     8dc:	241801dc 	li	t8,476
     8e0:	01e02021 	move	a0,t7
     8e4:	240700db 	li	a3,219
     8e8:	02003021 	move	a2,s0
     8ec:	03202821 	move	a1,t9
     8f0:	0c00018a 	jal	0x628
     8f4:	25ef0007 	addiu	t7,t7,7
     8f8:	15f8fffa 	bne	t7,t8,0x8e4
     8fc:	01e02021 	move	a0,t7
     900:	8fbf0004 	lw	ra,4(sp)
     904:	8fb00000 	lw	s0,0(sp)
     908:	03e00008 	jr	ra
     90c:	27bd0008 	addiu	sp,sp,8
     910:	3c020001 	lui	v0,0x1
     914:	8c42d508 	lw	v0,-11000(v0)
     918:	10400022 	beqz	v0,0x9a4
     91c:	00000000 	nop
     920:	27bdffe8 	addiu	sp,sp,-24
     924:	3c020001 	lui	v0,0x1
     928:	afb2000c 	sw	s2,12(sp)
     92c:	8c52c44c 	lw	s2,-15284(v0)
     930:	afb30010 	sw	s3,16(sp)
     934:	afb10008 	sw	s1,8(sp)
     938:	afb00004 	sw	s0,4(sp)
     93c:	afbf0014 	sw	ra,20(sp)
     940:	00008021 	move	s0,zero
     944:	3c130001 	lui	s3,0x1
     948:	24110022 	li	s1,34
     94c:	52400007 	beqzl	s2,0x96c
     950:	26100001 	addiu	s0,s0,1
     954:	8e62c458 	lw	v0,-15272(s3)
     958:	10400003 	beqz	v0,0x968
     95c:	02002021 	move	a0,s0
     960:	0c000230 	jal	0x8c0
     964:	00000000 	nop
     968:	26100001 	addiu	s0,s0,1
     96c:	1611fff7 	bne	s0,s1,0x94c
     970:	3c020001 	lui	v0,0x1
     974:	8fbf0014 	lw	ra,20(sp)
     978:	8fb30010 	lw	s3,16(sp)
     97c:	8fb2000c 	lw	s2,12(sp)
     980:	8fb10008 	lw	s1,8(sp)
     984:	8fb00004 	lw	s0,4(sp)
     988:	8c44d510 	lw	a0,-10992(v0)
     98c:	3c020001 	lui	v0,0x1
     990:	ac40d518 	sw	zero,-10984(v0)
     994:	3c020001 	lui	v0,0x1
     998:	27bd0018 	addiu	sp,sp,24
     99c:	080000de 	j	0x378
     9a0:	ac40d514 	sw	zero,-10988(v0)
     9a4:	03e00008 	jr	ra
     9a8:	00000000 	nop
     9ac:	27bdffd0 	addiu	sp,sp,-48
     9b0:	afbf002c 	sw	ra,44(sp)
     9b4:	afbe0028 	sw	s8,40(sp)
     9b8:	afb70024 	sw	s7,36(sp)
     9bc:	afb60020 	sw	s6,32(sp)
     9c0:	afb5001c 	sw	s5,28(sp)
     9c4:	afb40018 	sw	s4,24(sp)
     9c8:	afb30014 	sw	s3,20(sp)
     9cc:	afb20010 	sw	s2,16(sp)
     9d0:	afb1000c 	sw	s1,12(sp)
     9d4:	18a00058 	blez	a1,0xb38
     9d8:	afb00008 	sw	s0,8(sp)
     9dc:	3c020001 	lui	v0,0x1
     9e0:	00a0a821 	move	s5,a1
     9e4:	0080b821 	move	s7,a0
     9e8:	00859821 	addu	s3,a0,a1
     9ec:	3c100001 	lui	s0,0x1
     9f0:	2412000a 	li	s2,10
     9f4:	3c110001 	lui	s1,0x1
     9f8:	3c160001 	lui	s6,0x1
     9fc:	afa20000 	sw	v0,0(sp)
     a00:	10000012 	b	0xa4c
     a04:	3c140001 	lui	s4,0x1
     a08:	10e3003c 	beq	a3,v1,0xafc
     a0c:	8e38d514 	lw	t8,-10988(s1)
     a10:	8e0fd518 	lw	t7,-10984(s0)
     a14:	8e86c45c 	lw	a2,-15268(s4)
     a18:	000f20c0 	sll	a0,t7,0x3
     a1c:	008f2023 	subu	a0,a0,t7
     a20:	30e700ff 	andi	a3,a3,0xff
     a24:	0c00018a 	jal	0x628
     a28:	001828c0 	sll	a1,t8,0x3
     a2c:	25ef0001 	addiu	t7,t7,1
     a30:	24030044 	li	v1,68
     a34:	11e3002b 	beq	t7,v1,0xae4
     a38:	27040001 	addiu	a0,t8,1
     a3c:	ae0fd518 	sw	t7,-10984(s0)
     a40:	26f70001 	addiu	s7,s7,1
     a44:	1277000a 	beq	s3,s7,0xa70
     a48:	8fbf002c 	lw	ra,44(sp)
     a4c:	82e70000 	lb	a3,0(s7)
     a50:	10f20013 	beq	a3,s2,0xaa0
     a54:	2403000d 	li	v1,13
     a58:	54e3ffeb 	bnel	a3,v1,0xa08
     a5c:	24030009 	li	v1,9
     a60:	26f70001 	addiu	s7,s7,1
     a64:	1677fff9 	bne	s3,s7,0xa4c
     a68:	ae00d518 	sw	zero,-10984(s0)
     a6c:	8fbf002c 	lw	ra,44(sp)
     a70:	02a01021 	move	v0,s5
     a74:	8fbe0028 	lw	s8,40(sp)
     a78:	8fb70024 	lw	s7,36(sp)
     a7c:	8fb60020 	lw	s6,32(sp)
     a80:	8fb5001c 	lw	s5,28(sp)
     a84:	8fb40018 	lw	s4,24(sp)
     a88:	8fb30014 	lw	s3,20(sp)
     a8c:	8fb20010 	lw	s2,16(sp)
     a90:	8fb1000c 	lw	s1,12(sp)
     a94:	8fb00008 	lw	s0,8(sp)
     a98:	03e00008 	jr	ra
     a9c:	27bd0030 	addiu	sp,sp,48
     aa0:	8e24d514 	lw	a0,-10988(s1)
     aa4:	24030022 	li	v1,34
     aa8:	24840001 	addiu	a0,a0,1
     aac:	10830010 	beq	a0,v1,0xaf0
     ab0:	ae00d518 	sw	zero,-10984(s0)
     ab4:	ae24d514 	sw	a0,-10988(s1)
     ab8:	8ec3c44c 	lw	v1,-15284(s6)
     abc:	1060ffe1 	beqz	v1,0xa44
     ac0:	26f70001 	addiu	s7,s7,1
     ac4:	8fa20000 	lw	v0,0(sp)
     ac8:	8c43c458 	lw	v1,-15272(v0)
     acc:	1060ffdd 	beqz	v1,0xa44
     ad0:	00000000 	nop
     ad4:	0c000230 	jal	0x8c0
     ad8:	00000000 	nop
     adc:	1000ffd9 	b	0xa44
     ae0:	00000000 	nop
     ae4:	24030022 	li	v1,34
     ae8:	1483fff2 	bne	a0,v1,0xab4
     aec:	ae00d518 	sw	zero,-10984(s0)
     af0:	ae20d514 	sw	zero,-10988(s1)
     af4:	1000fff0 	b	0xab8
     af8:	00002021 	move	a0,zero
     afc:	8e0fd518 	lw	t7,-10984(s0)
     b00:	8e9ec45c 	lw	s8,-15268(s4)
     b04:	25f90005 	addiu	t9,t7,5
     b08:	0018c0c0 	sll	t8,t8,0x3
     b0c:	000f20c0 	sll	a0,t7,0x3
     b10:	008f2023 	subu	a0,a0,t7
     b14:	24070020 	li	a3,32
     b18:	03c03021 	move	a2,s8
     b1c:	03002821 	move	a1,t8
     b20:	0c00018a 	jal	0x628
     b24:	25ef0001 	addiu	t7,t7,1
     b28:	172ffff8 	bne	t9,t7,0xb0c
     b2c:	ae0fd518 	sw	t7,-10984(s0)
     b30:	1000ffc4 	b	0xa44
     b34:	26f70001 	addiu	s7,s7,1
     b38:	8fbf002c 	lw	ra,44(sp)
     b3c:	0000a821 	move	s5,zero
     b40:	02a01021 	move	v0,s5
     b44:	8fbe0028 	lw	s8,40(sp)
     b48:	8fb70024 	lw	s7,36(sp)
     b4c:	8fb60020 	lw	s6,32(sp)
     b50:	8fb5001c 	lw	s5,28(sp)
     b54:	8fb40018 	lw	s4,24(sp)
     b58:	8fb30014 	lw	s3,20(sp)
     b5c:	8fb20010 	lw	s2,16(sp)
     b60:	8fb1000c 	lw	s1,12(sp)
     b64:	8fb00008 	lw	s0,8(sp)
     b68:	03e00008 	jr	ra
     b6c:	27bd0030 	addiu	sp,sp,48
     b70:	3c020001 	lui	v0,0x1
     b74:	8c42c44c 	lw	v0,-15284(v0)
     b78:	10400006 	beqz	v0,0xb94
     b7c:	3c020001 	lui	v0,0x1
     b80:	8c42c458 	lw	v0,-15272(v0)
     b84:	10400003 	beqz	v0,0xb94
     b88:	00000000 	nop
     b8c:	08000230 	j	0x8c0
     b90:	00000000 	nop
     b94:	03e00008 	jr	ra
     b98:	00000000 	nop
     b9c:	3c020001 	lui	v0,0x1
     ba0:	24030001 	li	v1,1
     ba4:	03e00008 	jr	ra
     ba8:	ac43c44c 	sw	v1,-15284(v0)
     bac:	3c020001 	lui	v0,0x1
     bb0:	03e00008 	jr	ra
     bb4:	ac40c44c 	sw	zero,-15284(v0)
     bb8:	3c020001 	lui	v0,0x1
     bbc:	8c42d508 	lw	v0,-11000(v0)
     bc0:	10400003 	beqz	v0,0xbd0
     bc4:	00000000 	nop
     bc8:	0800026b 	j	0x9ac
     bcc:	00000000 	nop
     bd0:	03e00008 	jr	ra
     bd4:	00001021 	move	v0,zero
     bd8:	3c020001 	lui	v0,0x1
     bdc:	8c43d508 	lw	v1,-11000(v0)
     be0:	1060000c 	beqz	v1,0xc14
     be4:	00000000 	nop
     be8:	27bdfff8 	addiu	sp,sp,-8
     bec:	afb00000 	sw	s0,0(sp)
     bf0:	afbf0004 	sw	ra,4(sp)
     bf4:	0c000331 	jal	0xcc4
     bf8:	00808021 	move	s0,a0
     bfc:	8fbf0004 	lw	ra,4(sp)
     c00:	02002021 	move	a0,s0
     c04:	8fb00000 	lw	s0,0(sp)
     c08:	00402821 	move	a1,v0
     c0c:	0800026b 	j	0x9ac
     c10:	27bd0008 	addiu	sp,sp,8
     c14:	03e00008 	jr	ra
     c18:	00001021 	move	v0,zero
     c1c:	27bdf7d0 	addiu	sp,sp,-2096
     c20:	27a20814 	addiu	v0,sp,2068
     c24:	afa50814 	sw	a1,2068(sp)
     c28:	afa60818 	sw	a2,2072(sp)
     c2c:	afa7081c 	sw	a3,2076(sp)
     c30:	00803021 	move	a2,a0
     c34:	00403821 	move	a3,v0
     c38:	03a02021 	move	a0,sp
     c3c:	24050800 	li	a1,2048
     c40:	afbf080c 	sw	ra,2060(sp)
     c44:	afa80820 	sw	t0,2080(sp)
     c48:	afa90824 	sw	t1,2084(sp)
     c4c:	afaa0828 	sw	t2,2088(sp)
     c50:	afab082c 	sw	t3,2092(sp)
     c54:	0c00036d 	jal	0xdb4
     c58:	afa20800 	sw	v0,2048(sp)
     c5c:	00402821 	move	a1,v0
     c60:	0c0002ee 	jal	0xbb8
     c64:	03a02021 	move	a0,sp
     c68:	8fbf080c 	lw	ra,2060(sp)
     c6c:	03e00008 	jr	ra
     c70:	27bd0830 	addiu	sp,sp,2096
     c74:	00802821 	move	a1,a0
     c78:	00003821 	move	a3,zero
     c7c:	00003021 	move	a2,zero
     c80:	080004fb 	j	0x13ec
     c84:	00002021 	move	a0,zero
     c88:	27bdfff8 	addiu	sp,sp,-8
     c8c:	00002821 	move	a1,zero
     c90:	afb00000 	sw	s0,0(sp)
     c94:	afbf0004 	sw	ra,4(sp)
     c98:	0c00053c 	jal	0x14f0
     c9c:	00808021 	move	s0,a0
     ca0:	3c040001 	lui	a0,0x1
     ca4:	8c84d4e0 	lw	a0,-11040(a0)
     ca8:	8c82003c 	lw	v0,60(a0)
     cac:	10400003 	beqz	v0,0xcbc
     cb0:	00000000 	nop
     cb4:	0040f809 	jalr	v0
     cb8:	00000000 	nop
     cbc:	0c000374 	jal	0xdd0
     cc0:	02002021 	move	a0,s0
     cc4:	00801021 	move	v0,a0
     cc8:	24420001 	addiu	v0,v0,1
     ccc:	8043ffff 	lb	v1,-1(v0)
     cd0:	5460fffe 	bnezl	v1,0xccc
     cd4:	24420001 	addiu	v0,v0,1
     cd8:	00441023 	subu	v0,v0,a0
     cdc:	03e00008 	jr	ra
     ce0:	2442ffff 	addiu	v0,v0,-1
     ce4:	27bdff90 	addiu	sp,sp,-112
     ce8:	00c01021 	move	v0,a2
     cec:	afb00068 	sw	s0,104(sp)
     cf0:	afbf006c 	sw	ra,108(sp)
     cf4:	04c0002b 	bltz	a2,0xda4
     cf8:	00808021 	move	s0,a0
     cfc:	24030208 	li	v1,520
     d00:	00e03021 	move	a2,a3
     d04:	a7a3000c 	sh	v1,12(sp)
     d08:	01003821 	move	a3,t0
     d0c:	afa50000 	sw	a1,0(sp)
     d10:	14400010 	bnez	v0,0xd54
     d14:	afa50010 	sw	a1,16(sp)
     d18:	2402ffff 	li	v0,-1
     d1c:	03a02821 	move	a1,sp
     d20:	afa00008 	sw	zero,8(sp)
     d24:	afa00014 	sw	zero,20(sp)
     d28:	0c00083e 	jal	0x20f8
     d2c:	a7a2000e 	sh	v0,14(sp)
     d30:	2843ffff 	slti	v1,v0,-1
     d34:	10600004 	beqz	v1,0xd48
     d38:	8fbf006c 	lw	ra,108(sp)
     d3c:	2403008b 	li	v1,139
     d40:	ae030000 	sw	v1,0(s0)
     d44:	8fbf006c 	lw	ra,108(sp)
     d48:	8fb00068 	lw	s0,104(sp)
     d4c:	03e00008 	jr	ra
     d50:	27bd0070 	addiu	sp,sp,112
     d54:	2442ffff 	addiu	v0,v0,-1
     d58:	afa20008 	sw	v0,8(sp)
     d5c:	afa20014 	sw	v0,20(sp)
     d60:	03a02821 	move	a1,sp
     d64:	2402ffff 	li	v0,-1
     d68:	0c00083e 	jal	0x20f8
     d6c:	a7a2000e 	sh	v0,14(sp)
     d70:	2843ffff 	slti	v1,v0,-1
     d74:	14600006 	bnez	v1,0xd90
     d78:	8fa30000 	lw	v1,0(sp)
     d7c:	a0600000 	sb	zero,0(v1)
     d80:	8fbf006c 	lw	ra,108(sp)
     d84:	8fb00068 	lw	s0,104(sp)
     d88:	03e00008 	jr	ra
     d8c:	27bd0070 	addiu	sp,sp,112
     d90:	2403008b 	li	v1,139
     d94:	ae030000 	sw	v1,0(s0)
     d98:	8fa30000 	lw	v1,0(sp)
     d9c:	1000fff8 	b	0xd80
     da0:	a0600000 	sb	zero,0(v1)
     da4:	2402008b 	li	v0,139
     da8:	ac820000 	sw	v0,0(a0)
     dac:	1000ffe5 	b	0xd44
     db0:	2402ffff 	li	v0,-1
     db4:	00e04021 	move	t0,a3
     db8:	00c03821 	move	a3,a2
     dbc:	00a03021 	move	a2,a1
     dc0:	00802821 	move	a1,a0
     dc4:	3c040001 	lui	a0,0x1
     dc8:	08000339 	j	0xce4
     dcc:	8c84d4e4 	lw	a0,-11036(a0)
     dd0:	27bdfff0 	addiu	sp,sp,-16
     dd4:	3c020000 	lui	v0,0x0
     dd8:	24420000 	addiu	v0,v0,0
     ddc:	1040000d 	beqz	v0,0xe14
     de0:	afbf000c 	sw	ra,12(sp)
     de4:	10800005 	beqz	a0,0xdfc
     de8:	00000000 	nop
     dec:	0c002eaa 	jal	0xbaa8
     df0:	00000000 	nop
     df4:	1000ffff 	b	0xdf4
     df8:	00000000 	nop
     dfc:	0c0003f0 	jal	0xfc0
     e00:	afa40000 	sw	a0,0(sp)
     e04:	0c002eaa 	jal	0xbaa8
     e08:	8fa40000 	lw	a0,0(sp)
     e0c:	1000fff9 	b	0xdf4
     e10:	00000000 	nop
     e14:	0c0003f0 	jal	0xfc0
     e18:	00000000 	nop
     e1c:	00003021 	move	a2,zero
     e20:	00002821 	move	a1,zero
     e24:	0c002e96 	jal	0xba58
     e28:	24040001 	li	a0,1
     e2c:	1000fff1 	b	0xdf4
     e30:	00000000 	nop
     e34:	8ca40000 	lw	a0,0(a1)
     e38:	27bdfff8 	addiu	sp,sp,-8
     e3c:	afbf0004 	sw	ra,4(sp)
     e40:	0c00100f 	jal	0x403c
     e44:	00000000 	nop
     e48:	8fbf0004 	lw	ra,4(sp)
     e4c:	080003f8 	j	0xfe0
     e50:	27bd0008 	addiu	sp,sp,8
     e54:	3c030001 	lui	v1,0x1
     e58:	8c63d524 	lw	v1,-10972(v1)
     e5c:	10600011 	beqz	v1,0xea4
     e60:	00000000 	nop
     e64:	3c020001 	lui	v0,0x1
     e68:	8c42d520 	lw	v0,-10976(v0)
     e6c:	00442021 	addu	a0,v0,a0
     e70:	0083182b 	sltu	v1,a0,v1
     e74:	14600009 	bnez	v1,0xe9c
     e78:	00000000 	nop
     e7c:	3c030001 	lui	v1,0x1
     e80:	8c63d51c 	lw	v1,-10980(v1)
     e84:	0083182b 	sltu	v1,a0,v1
     e88:	10600004 	beqz	v1,0xe9c
     e8c:	00000000 	nop
     e90:	3c010001 	lui	at,0x1
     e94:	03e00008 	jr	ra
     e98:	ac24d520 	sw	a0,-10976(at)
     e9c:	03e00008 	jr	ra
     ea0:	2402ffff 	li	v0,-1
     ea4:	27bdfff0 	addiu	sp,sp,-16
     ea8:	3c020001 	lui	v0,0x1
     eac:	2442c444 	addiu	v0,v0,-15292
     eb0:	afb00004 	sw	s0,4(sp)
     eb4:	afbf000c 	sw	ra,12(sp)
     eb8:	afb10008 	sw	s1,8(sp)
     ebc:	1040000e 	beqz	v0,0xef8
     ec0:	00808021 	move	s0,a0
     ec4:	3c110001 	lui	s1,0x1
     ec8:	8e31c444 	lw	s1,-15292(s1)
     ecc:	00118a80 	sll	s1,s1,0xa
     ed0:	0620000e 	bltz	s1,0xf0c
     ed4:	00000000 	nop
     ed8:	16200025 	bnez	s1,0xf70
     edc:	00004021 	move	t0,zero
     ee0:	2402ffff 	li	v0,-1
     ee4:	8fbf000c 	lw	ra,12(sp)
     ee8:	8fb10008 	lw	s1,8(sp)
     eec:	8fb00004 	lw	s0,4(sp)
     ef0:	03e00008 	jr	ra
     ef4:	27bd0010 	addiu	sp,sp,16
     ef8:	3c020001 	lui	v0,0x1
     efc:	2442c440 	addiu	v0,v0,-15296
     f00:	1440001a 	bnez	v0,0xf6c
     f04:	3c110001 	lui	s1,0x1
     f08:	2411fc00 	li	s1,-1024
     f0c:	0c002e9e 	jal	0xba78
     f10:	00000000 	nop
     f14:	02228821 	addu	s1,s1,v0
     f18:	16200015 	bnez	s1,0xf70
     f1c:	00004021 	move	t0,zero
     f20:	3c020001 	lui	v0,0x1
     f24:	8c42d520 	lw	v0,-10976(v0)
     f28:	3c030001 	lui	v1,0x1
     f2c:	8c63d524 	lw	v1,-10972(v1)
     f30:	5060ffec 	beqzl	v1,0xee4
     f34:	2402ffff 	li	v0,-1
     f38:	00502021 	addu	a0,v0,s0
     f3c:	0083182b 	sltu	v1,a0,v1
     f40:	5460ffe8 	bnezl	v1,0xee4
     f44:	2402ffff 	li	v0,-1
     f48:	3c030001 	lui	v1,0x1
     f4c:	8c63d51c 	lw	v1,-10980(v1)
     f50:	0083182b 	sltu	v1,a0,v1
     f54:	5060ffe3 	beqzl	v1,0xee4
     f58:	2402ffff 	li	v0,-1
     f5c:	3c010001 	lui	at,0x1
     f60:	ac24d520 	sw	a0,-10976(at)
     f64:	1000ffe0 	b	0xee8
     f68:	8fbf000c 	lw	ra,12(sp)
     f6c:	00004021 	move	t0,zero
     f70:	02203821 	move	a3,s1
     f74:	00003021 	move	a2,zero
     f78:	3c050001 	lui	a1,0x1
     f7c:	24a5bcb8 	addiu	a1,a1,-17224
     f80:	0c002ea0 	jal	0xba80
     f84:	24040002 	li	a0,2
     f88:	3c010001 	lui	at,0x1
     f8c:	1840ffe4 	blez	v0,0xf20
     f90:	ac22d528 	sw	v0,-10968(at)
     f94:	0c002ea4 	jal	0xba90
     f98:	00402021 	move	a0,v0
     f9c:	00518821 	addu	s1,v0,s1
     fa0:	3c010001 	lui	at,0x1
     fa4:	ac22d524 	sw	v0,-10972(at)
     fa8:	3c010001 	lui	at,0x1
     fac:	ac22d520 	sw	v0,-10976(at)
     fb0:	3c010001 	lui	at,0x1
     fb4:	ac31d51c 	sw	s1,-10980(at)
     fb8:	1000ffdd 	b	0xf30
     fbc:	00401821 	move	v1,v0
     fc0:	3c020001 	lui	v0,0x1
     fc4:	8c42d528 	lw	v0,-10968(v0)
     fc8:	1c400003 	bgtz	v0,0xfd8
     fcc:	00000000 	nop
     fd0:	03e00008 	jr	ra
     fd4:	00000000 	nop
     fd8:	08002ea2 	j	0xba88
     fdc:	00402021 	move	a0,v0
     fe0:	27bdfff8 	addiu	sp,sp,-8
     fe4:	24065000 	li	a2,20480
     fe8:	3c040001 	lui	a0,0x1
     fec:	2484d52c 	addiu	a0,a0,-10964
     ff0:	afbf0004 	sw	ra,4(sp)
     ff4:	0c0007e2 	jal	0x1f88
     ff8:	00002821 	move	a1,zero
     ffc:	24061000 	li	a2,4096
    1000:	3c040001 	lui	a0,0x1
    1004:	24842970 	addiu	a0,a0,10608
    1008:	0c0007e2 	jal	0x1f88
    100c:	00002821 	move	a1,zero
    1010:	0c002e98 	jal	0xba60
    1014:	00000000 	nop
    1018:	04400008 	bltz	v0,0x103c
    101c:	00000000 	nop
    1020:	3c030001 	lui	v1,0x1
    1024:	2463d52c 	addiu	v1,v1,-10964
    1028:	ac620008 	sw	v0,8(v1)
    102c:	24020003 	li	v0,3
    1030:	3c010001 	lui	at,0x1
    1034:	ac232970 	sw	v1,10608(at)
    1038:	a0620004 	sb	v0,4(v1)
    103c:	0c002e9a 	jal	0xba68
    1040:	00000000 	nop
    1044:	0440000a 	bltz	v0,0x1070
    1048:	00000000 	nop
    104c:	3c030001 	lui	v1,0x1
    1050:	2463d52c 	addiu	v1,v1,-10964
    1054:	3c040001 	lui	a0,0x1
    1058:	2484d540 	addiu	a0,a0,-10944
    105c:	ac62001c 	sw	v0,28(v1)
    1060:	24020003 	li	v0,3
    1064:	3c010001 	lui	at,0x1
    1068:	ac242974 	sw	a0,10612(at)
    106c:	a0620018 	sb	v0,24(v1)
    1070:	0c002e9c 	jal	0xba70
    1074:	00000000 	nop
    1078:	0440000b 	bltz	v0,0x10a8
    107c:	8fbf0004 	lw	ra,4(sp)
    1080:	3c030001 	lui	v1,0x1
    1084:	2463d52c 	addiu	v1,v1,-10964
    1088:	3c040001 	lui	a0,0x1
    108c:	2484d554 	addiu	a0,a0,-10924
    1090:	ac620030 	sw	v0,48(v1)
    1094:	24020003 	li	v0,3
    1098:	3c010001 	lui	at,0x1
    109c:	ac242978 	sw	a0,10616(at)
    10a0:	a062002c 	sb	v0,44(v1)
    10a4:	8fbf0004 	lw	ra,4(sp)
    10a8:	03e00008 	jr	ra
    10ac:	27bd0008 	addiu	sp,sp,8
    10b0:	27bdfff8 	addiu	sp,sp,-8
    10b4:	afb00000 	sw	s0,0(sp)
    10b8:	afbf0004 	sw	ra,4(sp)
    10bc:	0c0004ca 	jal	0x1328
    10c0:	00008021 	move	s0,zero
    10c4:	3c070001 	lui	a3,0x1
    10c8:	24e72970 	addiu	a3,a3,10608
    10cc:	00e01821 	move	v1,a3
    10d0:	10000004 	b	0x10e4
    10d4:	24060400 	li	a2,1024
    10d8:	26100001 	addiu	s0,s0,1
    10dc:	12060016 	beq	s0,a2,0x1138
    10e0:	00000000 	nop
    10e4:	8c650000 	lw	a1,0(v1)
    10e8:	14a0fffb 	bnez	a1,0x10d8
    10ec:	24630004 	addiu	v1,v1,4
    10f0:	00103080 	sll	a2,s0,0x2
    10f4:	00d01821 	addu	v1,a2,s0
    10f8:	00032880 	sll	a1,v1,0x2
    10fc:	3c030001 	lui	v1,0x1
    1100:	2463d52c 	addiu	v1,v1,-10964
    1104:	00651821 	addu	v1,v1,a1
    1108:	8c650010 	lw	a1,16(v1)
    110c:	00e63821 	addu	a3,a3,a2
    1110:	00402021 	move	a0,v0
    1114:	24a50001 	addiu	a1,a1,1
    1118:	ac650010 	sw	a1,16(v1)
    111c:	0c0004e3 	jal	0x138c
    1120:	ace30000 	sw	v1,0(a3)
    1124:	8fbf0004 	lw	ra,4(sp)
    1128:	02001021 	move	v0,s0
    112c:	8fb00000 	lw	s0,0(sp)
    1130:	03e00008 	jr	ra
    1134:	27bd0008 	addiu	sp,sp,8
    1138:	0c0004e3 	jal	0x138c
    113c:	00402021 	move	a0,v0
    1140:	0c0005a4 	jal	0x1690
    1144:	2410ffff 	li	s0,-1
    1148:	8fbf0004 	lw	ra,4(sp)
    114c:	2403000c 	li	v1,12
    1150:	ac430000 	sw	v1,0(v0)
    1154:	02001021 	move	v0,s0
    1158:	8fb00000 	lw	s0,0(sp)
    115c:	03e00008 	jr	ra
    1160:	27bd0008 	addiu	sp,sp,8
    1164:	27bdffe8 	addiu	sp,sp,-24
    1168:	2c820400 	sltiu	v0,a0,1024
    116c:	afbf0014 	sw	ra,20(sp)
    1170:	afb30010 	sw	s3,16(sp)
    1174:	afb2000c 	sw	s2,12(sp)
    1178:	afb10008 	sw	s1,8(sp)
    117c:	10400036 	beqz	v0,0x1258
    1180:	afb00004 	sw	s0,4(sp)
    1184:	3c120001 	lui	s2,0x1
    1188:	26522970 	addiu	s2,s2,10608
    118c:	00048880 	sll	s1,a0,0x2
    1190:	02511021 	addu	v0,s2,s1
    1194:	8c420000 	lw	v0,0(v0)
    1198:	1040002f 	beqz	v0,0x1258
    119c:	00809821 	move	s3,a0
    11a0:	0c0004ca 	jal	0x1328
    11a4:	00008021 	move	s0,zero
    11a8:	02401821 	move	v1,s2
    11ac:	10000004 	b	0x11c0
    11b0:	24060400 	li	a2,1024
    11b4:	26100001 	addiu	s0,s0,1
    11b8:	12060019 	beq	s0,a2,0x1220
    11bc:	00000000 	nop
    11c0:	8c650000 	lw	a1,0(v1)
    11c4:	14a0fffb 	bnez	a1,0x11b4
    11c8:	24630004 	addiu	v1,v1,4
    11cc:	02338821 	addu	s1,s1,s3
    11d0:	3c030001 	lui	v1,0x1
    11d4:	2463d52c 	addiu	v1,v1,-10964
    11d8:	00118880 	sll	s1,s1,0x2
    11dc:	00718821 	addu	s1,v1,s1
    11e0:	8e230010 	lw	v1,16(s1)
    11e4:	00102080 	sll	a0,s0,0x2
    11e8:	02449021 	addu	s2,s2,a0
    11ec:	24630001 	addiu	v1,v1,1
    11f0:	00402021 	move	a0,v0
    11f4:	ae230010 	sw	v1,16(s1)
    11f8:	0c0004e3 	jal	0x138c
    11fc:	ae510000 	sw	s1,0(s2)
    1200:	8fbf0014 	lw	ra,20(sp)
    1204:	02001021 	move	v0,s0
    1208:	8fb30010 	lw	s3,16(sp)
    120c:	8fb2000c 	lw	s2,12(sp)
    1210:	8fb10008 	lw	s1,8(sp)
    1214:	8fb00004 	lw	s0,4(sp)
    1218:	03e00008 	jr	ra
    121c:	27bd0018 	addiu	sp,sp,24
    1220:	0c0004e3 	jal	0x138c
    1224:	00402021 	move	a0,v0
    1228:	0c0005a4 	jal	0x1690
    122c:	2410ffff 	li	s0,-1
    1230:	8fbf0014 	lw	ra,20(sp)
    1234:	2403000c 	li	v1,12
    1238:	ac430000 	sw	v1,0(v0)
    123c:	8fb30010 	lw	s3,16(sp)
    1240:	02001021 	move	v0,s0
    1244:	8fb2000c 	lw	s2,12(sp)
    1248:	8fb10008 	lw	s1,8(sp)
    124c:	8fb00004 	lw	s0,4(sp)
    1250:	03e00008 	jr	ra
    1254:	27bd0018 	addiu	sp,sp,24
    1258:	0c0005a4 	jal	0x1690
    125c:	2410ffff 	li	s0,-1
    1260:	24030009 	li	v1,9
    1264:	1000ffe6 	b	0x1200
    1268:	ac430000 	sw	v1,0(v0)
    126c:	27bdfff0 	addiu	sp,sp,-16
    1270:	2c820400 	sltiu	v0,a0,1024
    1274:	afbf000c 	sw	ra,12(sp)
    1278:	afb20008 	sw	s2,8(sp)
    127c:	afb10004 	sw	s1,4(sp)
    1280:	1040001f 	beqz	v0,0x1300
    1284:	afb00000 	sw	s0,0(sp)
    1288:	3c110001 	lui	s1,0x1
    128c:	26312970 	addiu	s1,s1,10608
    1290:	00048080 	sll	s0,a0,0x2
    1294:	02309021 	addu	s2,s1,s0
    1298:	8e420000 	lw	v0,0(s2)
    129c:	10400018 	beqz	v0,0x1300
    12a0:	00000000 	nop
    12a4:	8c430010 	lw	v1,16(v0)
    12a8:	2463ffff 	addiu	v1,v1,-1
    12ac:	10600009 	beqz	v1,0x12d4
    12b0:	ac430010 	sw	v1,16(v0)
    12b4:	8fbf000c 	lw	ra,12(sp)
    12b8:	02302021 	addu	a0,s1,s0
    12bc:	8fb20008 	lw	s2,8(sp)
    12c0:	8fb10004 	lw	s1,4(sp)
    12c4:	8fb00000 	lw	s0,0(sp)
    12c8:	ac800000 	sw	zero,0(a0)
    12cc:	03e00008 	jr	ra
    12d0:	27bd0010 	addiu	sp,sp,16
    12d4:	8c440000 	lw	a0,0(v0)
    12d8:	50800005 	beqzl	a0,0x12f0
    12dc:	ac400000 	sw	zero,0(v0)
    12e0:	0c0005ab 	jal	0x16ac
    12e4:	00000000 	nop
    12e8:	8e420000 	lw	v0,0(s2)
    12ec:	ac400000 	sw	zero,0(v0)
    12f0:	ac400008 	sw	zero,8(v0)
    12f4:	a0400004 	sb	zero,4(v0)
    12f8:	1000ffee 	b	0x12b4
    12fc:	ac40000c 	sw	zero,12(v0)
    1300:	0c0005a4 	jal	0x1690
    1304:	00000000 	nop
    1308:	8fbf000c 	lw	ra,12(sp)
    130c:	24030009 	li	v1,9
    1310:	8fb20008 	lw	s2,8(sp)
    1314:	8fb10004 	lw	s1,4(sp)
    1318:	8fb00000 	lw	s0,0(sp)
    131c:	ac430000 	sw	v1,0(v0)
    1320:	03e00008 	jr	ra
    1324:	27bd0010 	addiu	sp,sp,16
    1328:	70020024 	mfic	v0,$0
    132c:	70000026 	mtic	zero,$0
	...
    1384:	03e00008 	jr	ra
    1388:	00000000 	nop
    138c:	70040026 	mtic	a0,$0
	...
    13e4:	03e00008 	jr	ra
    13e8:	00000000 	nop
    13ec:	27bdffe0 	addiu	sp,sp,-32
    13f0:	afb00014 	sw	s0,20(sp)
    13f4:	3c100001 	lui	s0,0x1
    13f8:	8e10d4e0 	lw	s0,-11040(s0)
    13fc:	afb10018 	sw	s1,24(sp)
    1400:	afbf001c 	sw	ra,28(sp)
    1404:	8e020148 	lw	v0,328(s0)
    1408:	10400034 	beqz	v0,0x14dc
    140c:	00808821 	move	s1,a0
    1410:	8c430004 	lw	v1,4(v0)
    1414:	28640020 	slti	a0,v1,32
    1418:	14800015 	bnez	a0,0x1470
    141c:	24680001 	addiu	t0,v1,1
    1420:	3c020000 	lui	v0,0x0
    1424:	2442169c 	addiu	v0,v0,5788
    1428:	1040002f 	beqz	v0,0x14e8
    142c:	24040190 	li	a0,400
    1430:	afa70008 	sw	a3,8(sp)
    1434:	afa60004 	sw	a2,4(sp)
    1438:	0c0005a7 	jal	0x169c
    143c:	afa50000 	sw	a1,0(sp)
    1440:	10400029 	beqz	v0,0x14e8
    1444:	8fa50000 	lw	a1,0(sp)
    1448:	8e030148 	lw	v1,328(s0)
    144c:	8fa70008 	lw	a3,8(sp)
    1450:	8fa60004 	lw	a2,4(sp)
    1454:	ac430000 	sw	v1,0(v0)
    1458:	ac400004 	sw	zero,4(v0)
    145c:	24080001 	li	t0,1
    1460:	ae020148 	sw	v0,328(s0)
    1464:	00001821 	move	v1,zero
    1468:	ac400188 	sw	zero,392(v0)
    146c:	ac40018c 	sw	zero,396(v0)
    1470:	1620000c 	bnez	s1,0x14a4
    1474:	00032080 	sll	a0,v1,0x2
    1478:	24630002 	addiu	v1,v1,2
    147c:	00031880 	sll	v1,v1,0x2
    1480:	00431821 	addu	v1,v0,v1
    1484:	ac480004 	sw	t0,4(v0)
    1488:	00001021 	move	v0,zero
    148c:	ac650000 	sw	a1,0(v1)
    1490:	8fbf001c 	lw	ra,28(sp)
    1494:	8fb10018 	lw	s1,24(sp)
    1498:	8fb00014 	lw	s0,20(sp)
    149c:	03e00008 	jr	ra
    14a0:	27bd0020 	addiu	sp,sp,32
    14a4:	00442021 	addu	a0,v0,a0
    14a8:	ac860088 	sw	a2,136(a0)
    14ac:	8c490188 	lw	t1,392(v0)
    14b0:	24060001 	li	a2,1
    14b4:	00663004 	sllv	a2,a2,v1
    14b8:	01264825 	or	t1,t1,a2
    14bc:	240a0002 	li	t2,2
    14c0:	ac490188 	sw	t1,392(v0)
    14c4:	162affec 	bne	s1,t2,0x1478
    14c8:	ac870108 	sw	a3,264(a0)
    14cc:	8c44018c 	lw	a0,396(v0)
    14d0:	00863025 	or	a2,a0,a2
    14d4:	1000ffe8 	b	0x1478
    14d8:	ac46018c 	sw	a2,396(v0)
    14dc:	2602014c 	addiu	v0,s0,332
    14e0:	1000ffcb 	b	0x1410
    14e4:	ae020148 	sw	v0,328(s0)
    14e8:	1000ffe9 	b	0x1490
    14ec:	2402ffff 	li	v0,-1
    14f0:	3c020001 	lui	v0,0x1
    14f4:	8c42d4e0 	lw	v0,-11040(v0)
    14f8:	27bdffd0 	addiu	sp,sp,-48
    14fc:	afbe0028 	sw	s8,40(sp)
    1500:	afa20000 	sw	v0,0(sp)
    1504:	3c020000 	lui	v0,0x0
    1508:	244216ac 	addiu	v0,v0,5804
    150c:	afb5001c 	sw	s5,28(sp)
    1510:	afb30014 	sw	s3,20(sp)
    1514:	afbf002c 	sw	ra,44(sp)
    1518:	afb70024 	sw	s7,36(sp)
    151c:	afb60020 	sw	s6,32(sp)
    1520:	afb40018 	sw	s4,24(sp)
    1524:	afb20010 	sw	s2,16(sp)
    1528:	afb1000c 	sw	s1,12(sp)
    152c:	afb00008 	sw	s0,8(sp)
    1530:	0080a821 	move	s5,a0
    1534:	00a0f021 	move	s8,a1
    1538:	2413ffff 	li	s3,-1
    153c:	afa20004 	sw	v0,4(sp)
    1540:	8fa20000 	lw	v0,0(sp)
    1544:	8c520148 	lw	s2,328(v0)
    1548:	12400033 	beqz	s2,0x1618
    154c:	24570148 	addiu	s7,v0,328
    1550:	24140001 	li	s4,1
    1554:	8e500004 	lw	s0,4(s2)
    1558:	00108880 	sll	s1,s0,0x2
    155c:	2610ffff 	addiu	s0,s0,-1
    1560:	06010006 	bgez	s0,0x157c
    1564:	02518821 	addu	s1,s2,s1
    1568:	1000001f 	b	0x15e8
    156c:	8fa20004 	lw	v0,4(sp)
    1570:	2610ffff 	addiu	s0,s0,-1
    1574:	1213001b 	beq	s0,s3,0x15e4
    1578:	2631fffc 	addiu	s1,s1,-4
    157c:	53c00005 	beqzl	s8,0x1594
    1580:	8e420004 	lw	v0,4(s2)
    1584:	8e220104 	lw	v0,260(s1)
    1588:	545efffa 	bnel	v0,s8,0x1574
    158c:	2610ffff 	addiu	s0,s0,-1
    1590:	8e420004 	lw	v0,4(s2)
    1594:	2442ffff 	addiu	v0,v0,-1
    1598:	10500034 	beq	v0,s0,0x166c
    159c:	8e260004 	lw	a2,4(s1)
    15a0:	ae200004 	sw	zero,4(s1)
    15a4:	10c0fff2 	beqz	a2,0x1570
    15a8:	02141804 	sllv	v1,s4,s0
    15ac:	8e420188 	lw	v0,392(s2)
    15b0:	00621024 	and	v0,v1,v0
    15b4:	14400024 	bnez	v0,0x1648
    15b8:	8e560004 	lw	s6,4(s2)
    15bc:	00c0f809 	jalr	a2
    15c0:	00000000 	nop
    15c4:	8e420004 	lw	v0,4(s2)
    15c8:	1456ffde 	bne	v0,s6,0x1544
    15cc:	8fa20000 	lw	v0,0(sp)
    15d0:	8ee20000 	lw	v0,0(s7)
    15d4:	1452ffda 	bne	v0,s2,0x1540
    15d8:	2610ffff 	addiu	s0,s0,-1
    15dc:	1613ffe7 	bne	s0,s3,0x157c
    15e0:	2631fffc 	addiu	s1,s1,-4
    15e4:	8fa20004 	lw	v0,4(sp)
    15e8:	1040000c 	beqz	v0,0x161c
    15ec:	8fbf002c 	lw	ra,44(sp)
    15f0:	8e430004 	lw	v1,4(s2)
    15f4:	14600023 	bnez	v1,0x1684
    15f8:	8e420000 	lw	v0,0(s2)
    15fc:	10400021 	beqz	v0,0x1684
    1600:	02402021 	move	a0,s2
    1604:	0c0005ab 	jal	0x16ac
    1608:	aee20000 	sw	v0,0(s7)
    160c:	8ef20000 	lw	s2,0(s7)
    1610:	5640ffd1 	bnezl	s2,0x1558
    1614:	8e500004 	lw	s0,4(s2)
    1618:	8fbf002c 	lw	ra,44(sp)
    161c:	8fbe0028 	lw	s8,40(sp)
    1620:	8fb70024 	lw	s7,36(sp)
    1624:	8fb60020 	lw	s6,32(sp)
    1628:	8fb5001c 	lw	s5,28(sp)
    162c:	8fb40018 	lw	s4,24(sp)
    1630:	8fb30014 	lw	s3,20(sp)
    1634:	8fb20010 	lw	s2,16(sp)
    1638:	8fb1000c 	lw	s1,12(sp)
    163c:	8fb00008 	lw	s0,8(sp)
    1640:	03e00008 	jr	ra
    1644:	27bd0030 	addiu	sp,sp,48
    1648:	8e42018c 	lw	v0,396(s2)
    164c:	00621824 	and	v1,v1,v0
    1650:	14600008 	bnez	v1,0x1674
    1654:	8e240084 	lw	a0,132(s1)
    1658:	00802821 	move	a1,a0
    165c:	00c0f809 	jalr	a2
    1660:	02a02021 	move	a0,s5
    1664:	1000ffd8 	b	0x15c8
    1668:	8e420004 	lw	v0,4(s2)
    166c:	1000ffcd 	b	0x15a4
    1670:	ae500004 	sw	s0,4(s2)
    1674:	00c0f809 	jalr	a2
    1678:	00000000 	nop
    167c:	1000ffd2 	b	0x15c8
    1680:	8e420004 	lw	v0,4(s2)
    1684:	0240b821 	move	s7,s2
    1688:	1000ffe1 	b	0x1610
    168c:	00409021 	move	s2,v0
    1690:	3c020001 	lui	v0,0x1
    1694:	03e00008 	jr	ra
    1698:	8c42d4e4 	lw	v0,-11036(v0)
    169c:	00802821 	move	a1,a0
    16a0:	3c040001 	lui	a0,0x1
    16a4:	080005af 	j	0x16bc
    16a8:	8c84d4e4 	lw	a0,-11036(a0)
    16ac:	00802821 	move	a1,a0
    16b0:	3c040001 	lui	a0,0x1
    16b4:	0800190e 	j	0x6438
    16b8:	8c84d4e4 	lw	a0,-11036(a0)
    16bc:	27bdffd8 	addiu	sp,sp,-40
    16c0:	afb10004 	sw	s1,4(sp)
    16c4:	24b10013 	addiu	s1,a1,19
    16c8:	2e22001f 	sltiu	v0,s1,31
    16cc:	afb20008 	sw	s2,8(sp)
    16d0:	afbf0024 	sw	ra,36(sp)
    16d4:	afbe0020 	sw	s8,32(sp)
    16d8:	afb7001c 	sw	s7,28(sp)
    16dc:	afb60018 	sw	s6,24(sp)
    16e0:	afb50014 	sw	s5,20(sp)
    16e4:	afb40010 	sw	s4,16(sp)
    16e8:	afb3000c 	sw	s3,12(sp)
    16ec:	afb00000 	sw	s0,0(sp)
    16f0:	1040006b 	beqz	v0,0x18a0
    16f4:	00809021 	move	s2,a0
    16f8:	2ca50011 	sltiu	a1,a1,17
    16fc:	10a0009b 	beqz	a1,0x196c
    1700:	2402000c 	li	v0,12
    1704:	0c000824 	jal	0x2090
    1708:	24110010 	li	s1,16
    170c:	24060002 	li	a2,2
    1710:	24020018 	li	v0,24
    1714:	3c130001 	lui	s3,0x1
    1718:	2673d090 	addiu	s3,s3,-12144
    171c:	02621021 	addu	v0,s3,v0
    1720:	8c500004 	lw	s0,4(v0)
    1724:	2442fff8 	addiu	v0,v0,-8
    1728:	160200a1 	bne	s0,v0,0x19b0
    172c:	24c60002 	addiu	a2,a2,2
    1730:	8e700010 	lw	s0,16(s3)
    1734:	3c090001 	lui	t1,0x1
    1738:	2529d098 	addiu	t1,t1,-12136
    173c:	5209001e 	beql	s0,t1,0x17b8
    1740:	8e620004 	lw	v0,4(s3)
    1744:	8e030004 	lw	v1,4(s0)
    1748:	2402fffc 	li	v0,-4
    174c:	00621824 	and	v1,v1,v0
    1750:	00711023 	subu	v0,v1,s1
    1754:	28440010 	slti	a0,v0,16
    1758:	1080019b 	beqz	a0,0x1dc8
    175c:	02112821 	addu	a1,s0,s1
    1760:	ae690014 	sw	t1,20(s3)
    1764:	044100ac 	bgez	v0,0x1a18
    1768:	ae690010 	sw	t1,16(s3)
    176c:	2c620200 	sltiu	v0,v1,512
    1770:	10400140 	beqz	v0,0x1c74
    1774:	00031242 	srl	v0,v1,0x9
    1778:	000318c2 	srl	v1,v1,0x3
    177c:	24640001 	addiu	a0,v1,1
    1780:	000420c0 	sll	a0,a0,0x3
    1784:	8e670004 	lw	a3,4(s3)
    1788:	02642021 	addu	a0,s3,a0
    178c:	8c850000 	lw	a1,0(a0)
    1790:	00031883 	sra	v1,v1,0x2
    1794:	24020001 	li	v0,1
    1798:	00621004 	sllv	v0,v0,v1
    179c:	00471025 	or	v0,v0,a3
    17a0:	2483fff8 	addiu	v1,a0,-8
    17a4:	ae03000c 	sw	v1,12(s0)
    17a8:	ae050008 	sw	a1,8(s0)
    17ac:	ae620004 	sw	v0,4(s3)
    17b0:	ac900000 	sw	s0,0(a0)
    17b4:	acb0000c 	sw	s0,12(a1)
    17b8:	00061883 	sra	v1,a2,0x2
    17bc:	24050001 	li	a1,1
    17c0:	00652804 	sllv	a1,a1,v1
    17c4:	0045182b 	sltu	v1,v0,a1
    17c8:	5460009c 	bnezl	v1,0x1a3c
    17cc:	8e700008 	lw	s0,8(s3)
    17d0:	00a21824 	and	v1,a1,v0
    17d4:	1460000c 	bnez	v1,0x1808
    17d8:	2408fffc 	li	t0,-4
    17dc:	2403fffc 	li	v1,-4
    17e0:	00052840 	sll	a1,a1,0x1
    17e4:	00c33024 	and	a2,a2,v1
    17e8:	00a21824 	and	v1,a1,v0
    17ec:	14600006 	bnez	v1,0x1808
    17f0:	24c60004 	addiu	a2,a2,4
    17f4:	00052840 	sll	a1,a1,0x1
    17f8:	00a21824 	and	v1,a1,v0
    17fc:	1060fffd 	beqz	v1,0x17f4
    1800:	24c60004 	addiu	a2,a2,4
    1804:	2408fffc 	li	t0,-4
    1808:	000650c0 	sll	t2,a2,0x3
    180c:	026a5021 	addu	t2,s3,t2
    1810:	01403821 	move	a3,t2
    1814:	00c05821 	move	t3,a2
    1818:	8cf0000c 	lw	s0,12(a3)
    181c:	54f00009 	bnel	a3,s0,0x1844
    1820:	8e020004 	lw	v0,4(s0)
    1824:	1000013a 	b	0x1d10
    1828:	2962003f 	slti	v0,t3,63
    182c:	04610159 	bgez	v1,0x1d94
    1830:	02021021 	addu	v0,s0,v0
    1834:	8e10000c 	lw	s0,12(s0)
    1838:	10f00135 	beq	a3,s0,0x1d10
    183c:	2962003f 	slti	v0,t3,63
    1840:	8e020004 	lw	v0,4(s0)
    1844:	00481024 	and	v0,v0,t0
    1848:	00511823 	subu	v1,v0,s1
    184c:	28640010 	slti	a0,v1,16
    1850:	1480fff6 	bnez	a0,0x182c
    1854:	02402021 	move	a0,s2
    1858:	8e06000c 	lw	a2,12(s0)
    185c:	8e070008 	lw	a3,8(s0)
    1860:	02112821 	addu	a1,s0,s1
    1864:	02021021 	addu	v0,s0,v0
    1868:	34680001 	ori	t0,v1,0x1
    186c:	36310001 	ori	s1,s1,0x1
    1870:	ae110004 	sw	s1,4(s0)
    1874:	ace6000c 	sw	a2,12(a3)
    1878:	acc70008 	sw	a3,8(a2)
    187c:	ae650014 	sw	a1,20(s3)
    1880:	ae650010 	sw	a1,16(s3)
    1884:	aca9000c 	sw	t1,12(a1)
    1888:	aca90008 	sw	t1,8(a1)
    188c:	aca80004 	sw	t0,4(a1)
    1890:	0c000826 	jal	0x2098
    1894:	ac430000 	sw	v1,0(v0)
    1898:	10000036 	b	0x1974
    189c:	26020008 	addiu	v0,s0,8
    18a0:	2402fff0 	li	v0,-16
    18a4:	02228824 	and	s1,s1,v0
    18a8:	0620002f 	bltz	s1,0x1968
    18ac:	0225282b 	sltu	a1,s1,a1
    18b0:	14a0002e 	bnez	a1,0x196c
    18b4:	2402000c 	li	v0,12
    18b8:	0c000824 	jal	0x2090
    18bc:	00000000 	nop
    18c0:	2e2201f8 	sltiu	v0,s1,504
    18c4:	1440013e 	bnez	v0,0x1dc0
    18c8:	001130c2 	srl	a2,s1,0x3
    18cc:	00111242 	srl	v0,s1,0x9
    18d0:	10400034 	beqz	v0,0x19a4
    18d4:	24060040 	li	a2,64
    18d8:	2c430005 	sltiu	v1,v0,5
    18dc:	10600102 	beqz	v1,0x1ce8
    18e0:	2c430015 	sltiu	v1,v0,21
    18e4:	00111182 	srl	v0,s1,0x6
    18e8:	24460039 	addiu	a2,v0,57
    18ec:	24480038 	addiu	t0,v0,56
    18f0:	000628c0 	sll	a1,a2,0x3
    18f4:	3c130001 	lui	s3,0x1
    18f8:	2673d090 	addiu	s3,s3,-12144
    18fc:	02652821 	addu	a1,s3,a1
    1900:	8cb00004 	lw	s0,4(a1)
    1904:	24a5fff8 	addiu	a1,a1,-8
    1908:	10b0ff89 	beq	a1,s0,0x1730
    190c:	2403fffc 	li	v1,-4
    1910:	8e020004 	lw	v0,4(s0)
    1914:	00431024 	and	v0,v0,v1
    1918:	00511823 	subu	v1,v0,s1
    191c:	28640010 	slti	a0,v1,16
    1920:	5080ff83 	beqzl	a0,0x1730
    1924:	01003021 	move	a2,t0
    1928:	046100cb 	bgez	v1,0x1c58
    192c:	2407fffc 	li	a3,-4
    1930:	10000009 	b	0x1958
    1934:	8e10000c 	lw	s0,12(s0)
    1938:	00471024 	and	v0,v0,a3
    193c:	00511823 	subu	v1,v0,s1
    1940:	28640010 	slti	a0,v1,16
    1944:	5080ff7a 	beqzl	a0,0x1730
    1948:	01003021 	move	a2,t0
    194c:	046300c3 	bgezl	v1,0x1c5c
    1950:	02021021 	addu	v0,s0,v0
    1954:	8e10000c 	lw	s0,12(s0)
    1958:	54b0fff7 	bnel	a1,s0,0x1938
    195c:	8e020004 	lw	v0,4(s0)
    1960:	1000ff74 	b	0x1734
    1964:	8e700010 	lw	s0,16(s3)
    1968:	2402000c 	li	v0,12
    196c:	ae420000 	sw	v0,0(s2)
    1970:	00001021 	move	v0,zero
    1974:	8fbf0024 	lw	ra,36(sp)
    1978:	8fbe0020 	lw	s8,32(sp)
    197c:	8fb7001c 	lw	s7,28(sp)
    1980:	8fb60018 	lw	s6,24(sp)
    1984:	8fb50014 	lw	s5,20(sp)
    1988:	8fb40010 	lw	s4,16(sp)
    198c:	8fb3000c 	lw	s3,12(sp)
    1990:	8fb20008 	lw	s2,8(sp)
    1994:	8fb10004 	lw	s1,4(sp)
    1998:	8fb00000 	lw	s0,0(sp)
    199c:	03e00008 	jr	ra
    19a0:	27bd0028 	addiu	sp,sp,40
    19a4:	24050200 	li	a1,512
    19a8:	1000ffd2 	b	0x18f4
    19ac:	2408003f 	li	t0,63
    19b0:	8e020004 	lw	v0,4(s0)
    19b4:	2403fffc 	li	v1,-4
    19b8:	8e05000c 	lw	a1,12(s0)
    19bc:	00431024 	and	v0,v0,v1
    19c0:	02021021 	addu	v0,s0,v0
    19c4:	8c430004 	lw	v1,4(v0)
    19c8:	8e060008 	lw	a2,8(s0)
    19cc:	02402021 	move	a0,s2
    19d0:	34630001 	ori	v1,v1,0x1
    19d4:	acc5000c 	sw	a1,12(a2)
    19d8:	aca60008 	sw	a2,8(a1)
    19dc:	0c000826 	jal	0x2098
    19e0:	ac430004 	sw	v1,4(v0)
    19e4:	8fbf0024 	lw	ra,36(sp)
    19e8:	26020008 	addiu	v0,s0,8
    19ec:	8fbe0020 	lw	s8,32(sp)
    19f0:	8fb7001c 	lw	s7,28(sp)
    19f4:	8fb60018 	lw	s6,24(sp)
    19f8:	8fb50014 	lw	s5,20(sp)
    19fc:	8fb40010 	lw	s4,16(sp)
    1a00:	8fb3000c 	lw	s3,12(sp)
    1a04:	8fb20008 	lw	s2,8(sp)
    1a08:	8fb10004 	lw	s1,4(sp)
    1a0c:	8fb00000 	lw	s0,0(sp)
    1a10:	03e00008 	jr	ra
    1a14:	27bd0028 	addiu	sp,sp,40
    1a18:	02031821 	addu	v1,s0,v1
    1a1c:	8c620004 	lw	v0,4(v1)
    1a20:	02402021 	move	a0,s2
    1a24:	34420001 	ori	v0,v0,0x1
    1a28:	0c000826 	jal	0x2098
    1a2c:	ac620004 	sw	v0,4(v1)
    1a30:	1000ffd0 	b	0x1974
    1a34:	26020008 	addiu	v0,s0,8
    1a38:	8e700008 	lw	s0,8(s3)
    1a3c:	2402fffc 	li	v0,-4
    1a40:	8e030004 	lw	v1,4(s0)
    1a44:	0062a824 	and	s5,v1,v0
    1a48:	02b1102b 	sltu	v0,s5,s1
    1a4c:	14400004 	bnez	v0,0x1a60
    1a50:	02b11023 	subu	v0,s5,s1
    1a54:	28430010 	slti	v1,v0,16
    1a58:	10600069 	beqz	v1,0x1c00
    1a5c:	02111821 	addu	v1,s0,s1
    1a60:	3c140001 	lui	s4,0x1
    1a64:	8e94255c 	lw	s4,9564(s4)
    1a68:	3c030001 	lui	v1,0x1
    1a6c:	8c63d088 	lw	v1,-12152(v1)
    1a70:	2402ffff 	li	v0,-1
    1a74:	0215b821 	addu	s7,s0,s5
    1a78:	106200f6 	beq	v1,v0,0x1e54
    1a7c:	0234a021 	addu	s4,s1,s4
    1a80:	2694100f 	addiu	s4,s4,4111
    1a84:	2402f000 	li	v0,-4096
    1a88:	0282a024 	and	s4,s4,v0
    1a8c:	02802821 	move	a1,s4
    1a90:	0c000828 	jal	0x20a0
    1a94:	02402021 	move	a0,s2
    1a98:	0040b021 	move	s6,v0
    1a9c:	2402ffff 	li	v0,-1
    1aa0:	52c200de 	beql	s6,v0,0x1e1c
    1aa4:	8e700008 	lw	s0,8(s3)
    1aa8:	02d7102b 	sltu	v0,s6,s7
    1aac:	144000d8 	bnez	v0,0x1e10
    1ab0:	00000000 	nop
    1ab4:	3c1e0001 	lui	s8,0x1
    1ab8:	27de252c 	addiu	s8,s8,9516
    1abc:	8fc30000 	lw	v1,0(s8)
    1ac0:	02831821 	addu	v1,s4,v1
    1ac4:	00601021 	move	v0,v1
    1ac8:	12f600f9 	beq	s7,s6,0x1eb0
    1acc:	afc30000 	sw	v1,0(s8)
    1ad0:	3c040001 	lui	a0,0x1
    1ad4:	8c84d088 	lw	a0,-12152(a0)
    1ad8:	2403ffff 	li	v1,-1
    1adc:	10830100 	beq	a0,v1,0x1ee0
    1ae0:	02d7b823 	subu	s7,s6,s7
    1ae4:	02e21021 	addu	v0,s7,v0
    1ae8:	afc20000 	sw	v0,0(s8)
    1aec:	26c20008 	addiu	v0,s6,8
    1af0:	3042000f 	andi	v0,v0,0xf
    1af4:	10400005 	beqz	v0,0x1b0c
    1af8:	24031000 	li	v1,4096
    1afc:	02c2b023 	subu	s6,s6,v0
    1b00:	24031010 	li	v1,4112
    1b04:	26d60010 	addiu	s6,s6,16
    1b08:	00621823 	subu	v1,v1,v0
    1b0c:	02d4a021 	addu	s4,s6,s4
    1b10:	32940fff 	andi	s4,s4,0xfff
    1b14:	0074a023 	subu	s4,v1,s4
    1b18:	02802821 	move	a1,s4
    1b1c:	0c000828 	jal	0x20a0
    1b20:	02402021 	move	a0,s2
    1b24:	2403ffff 	li	v1,-1
    1b28:	504300eb 	beql	v0,v1,0x1ed8
    1b2c:	24020001 	li	v0,1
    1b30:	00561023 	subu	v0,v0,s6
    1b34:	00541021 	addu	v0,v0,s4
    1b38:	34420001 	ori	v0,v0,0x1
    1b3c:	8fc30000 	lw	v1,0(s8)
    1b40:	ae760008 	sw	s6,8(s3)
    1b44:	aec20004 	sw	v0,4(s6)
    1b48:	02831821 	addu	v1,s4,v1
    1b4c:	121300e0 	beq	s0,s3,0x1ed0
    1b50:	afc30000 	sw	v1,0(s8)
    1b54:	2ea20010 	sltiu	v0,s5,16
    1b58:	144000e5 	bnez	v0,0x1ef0
    1b5c:	2404fff0 	li	a0,-16
    1b60:	26a2fff4 	addiu	v0,s5,-12
    1b64:	00442024 	and	a0,v0,a0
    1b68:	02041021 	addu	v0,s0,a0
    1b6c:	24050005 	li	a1,5
    1b70:	ac450004 	sw	a1,4(v0)
    1b74:	ac450008 	sw	a1,8(v0)
    1b78:	8e020004 	lw	v0,4(s0)
    1b7c:	2c850010 	sltiu	a1,a0,16
    1b80:	30420001 	andi	v0,v0,0x1
    1b84:	00441025 	or	v0,v0,a0
    1b88:	10a000ea 	beqz	a1,0x1f34
    1b8c:	ae020004 	sw	v0,4(s0)
    1b90:	8ec20004 	lw	v0,4(s6)
    1b94:	02c08021 	move	s0,s6
    1b98:	3c040001 	lui	a0,0x1
    1b9c:	8c842558 	lw	a0,9560(a0)
    1ba0:	0083202b 	sltu	a0,a0,v1
    1ba4:	10800003 	beqz	a0,0x1bb4
    1ba8:	00000000 	nop
    1bac:	3c010001 	lui	at,0x1
    1bb0:	ac232558 	sw	v1,9560(at)
    1bb4:	3c040001 	lui	a0,0x1
    1bb8:	8c842554 	lw	a0,9556(a0)
    1bbc:	0083202b 	sltu	a0,a0,v1
    1bc0:	50800004 	beqzl	a0,0x1bd4
    1bc4:	2403fffc 	li	v1,-4
    1bc8:	3c010001 	lui	at,0x1
    1bcc:	ac232554 	sw	v1,9556(at)
    1bd0:	2403fffc 	li	v1,-4
    1bd4:	00431024 	and	v0,v0,v1
    1bd8:	0051182b 	sltu	v1,v0,s1
    1bdc:	14600004 	bnez	v1,0x1bf0
    1be0:	00511023 	subu	v0,v0,s1
    1be4:	28430010 	slti	v1,v0,16
    1be8:	10600005 	beqz	v1,0x1c00
    1bec:	02111821 	addu	v1,s0,s1
    1bf0:	0c000826 	jal	0x2098
    1bf4:	02402021 	move	a0,s2
    1bf8:	1000ff5e 	b	0x1974
    1bfc:	00001021 	move	v0,zero
    1c00:	34420001 	ori	v0,v0,0x1
    1c04:	36310001 	ori	s1,s1,0x1
    1c08:	ae110004 	sw	s1,4(s0)
    1c0c:	02402021 	move	a0,s2
    1c10:	ae630008 	sw	v1,8(s3)
    1c14:	0c000826 	jal	0x2098
    1c18:	ac620004 	sw	v0,4(v1)
    1c1c:	8fbf0024 	lw	ra,36(sp)
    1c20:	26020008 	addiu	v0,s0,8
    1c24:	8fbe0020 	lw	s8,32(sp)
    1c28:	8fb7001c 	lw	s7,28(sp)
    1c2c:	8fb60018 	lw	s6,24(sp)
    1c30:	8fb50014 	lw	s5,20(sp)
    1c34:	8fb40010 	lw	s4,16(sp)
    1c38:	8fb3000c 	lw	s3,12(sp)
    1c3c:	8fb20008 	lw	s2,8(sp)
    1c40:	8fb10004 	lw	s1,4(sp)
    1c44:	8fb00000 	lw	s0,0(sp)
    1c48:	03e00008 	jr	ra
    1c4c:	27bd0028 	addiu	sp,sp,40
    1c50:	1000feb7 	b	0x1730
    1c54:	01003021 	move	a2,t0
    1c58:	02021021 	addu	v0,s0,v0
    1c5c:	8c430004 	lw	v1,4(v0)
    1c60:	8e05000c 	lw	a1,12(s0)
    1c64:	8e060008 	lw	a2,8(s0)
    1c68:	34630001 	ori	v1,v1,0x1
    1c6c:	1000ff59 	b	0x19d4
    1c70:	02402021 	move	a0,s2
    1c74:	2c440005 	sltiu	a0,v0,5
    1c78:	54800061 	bnezl	a0,0x1e00
    1c7c:	00031182 	srl	v0,v1,0x6
    1c80:	2c440015 	sltiu	a0,v0,21
    1c84:	1080007c 	beqz	a0,0x1e78
    1c88:	2c440055 	sltiu	a0,v0,85
    1c8c:	2445005c 	addiu	a1,v0,92
    1c90:	000528c0 	sll	a1,a1,0x3
    1c94:	2442005b 	addiu	v0,v0,91
    1c98:	02652821 	addu	a1,s3,a1
    1c9c:	8ca40000 	lw	a0,0(a1)
    1ca0:	24a5fff8 	addiu	a1,a1,-8
    1ca4:	10a4006d 	beq	a1,a0,0x1e5c
    1ca8:	2407fffc 	li	a3,-4
    1cac:	8c820004 	lw	v0,4(a0)
    1cb0:	00471024 	and	v0,v0,a3
    1cb4:	0062102b 	sltu	v0,v1,v0
    1cb8:	50400005 	beqzl	v0,0x1cd0
    1cbc:	8c85000c 	lw	a1,12(a0)
    1cc0:	8c840008 	lw	a0,8(a0)
    1cc4:	54a4fffa 	bnel	a1,a0,0x1cb0
    1cc8:	8c820004 	lw	v0,4(a0)
    1ccc:	8c85000c 	lw	a1,12(a0)
    1cd0:	8e620004 	lw	v0,4(s3)
    1cd4:	ae05000c 	sw	a1,12(s0)
    1cd8:	ae040008 	sw	a0,8(s0)
    1cdc:	acb00008 	sw	s0,8(a1)
    1ce0:	1000feb5 	b	0x17b8
    1ce4:	ac90000c 	sw	s0,12(a0)
    1ce8:	1460004e 	bnez	v1,0x1e24
    1cec:	2446005c 	addiu	a2,v0,92
    1cf0:	2c430055 	sltiu	v1,v0,85
    1cf4:	10600067 	beqz	v1,0x1e94
    1cf8:	2c430155 	sltiu	v1,v0,341
    1cfc:	00111302 	srl	v0,s1,0xc
    1d00:	2446006f 	addiu	a2,v0,111
    1d04:	2448006e 	addiu	t0,v0,110
    1d08:	1000fefa 	b	0x18f4
    1d0c:	000628c0 	sll	a1,a2,0x3
    1d10:	14400047 	bnez	v0,0x1e30
    1d14:	25630001 	addiu	v1,t3,1
    1d18:	24e70008 	addiu	a3,a3,8
    1d1c:	00605821 	move	t3,v1
    1d20:	31620003 	andi	v0,t3,0x3
    1d24:	5440febd 	bnezl	v0,0x181c
    1d28:	8cf0000c 	lw	s0,12(a3)
    1d2c:	10000005 	b	0x1d44
    1d30:	30c20003 	andi	v0,a2,0x3
    1d34:	8d420008 	lw	v0,8(t2)
    1d38:	144a0091 	bne	v0,t2,0x1f80
    1d3c:	24c6ffff 	addiu	a2,a2,-1
    1d40:	30c20003 	andi	v0,a2,0x3
    1d44:	1440fffb 	bnez	v0,0x1d34
    1d48:	254afff8 	addiu	t2,t2,-8
    1d4c:	8e630004 	lw	v1,4(s3)
    1d50:	00051027 	nor	v0,zero,a1
    1d54:	00431024 	and	v0,v0,v1
    1d58:	ae620004 	sw	v0,4(s3)
    1d5c:	00052840 	sll	a1,a1,0x1
    1d60:	0045182b 	sltu	v1,v0,a1
    1d64:	5460ff35 	bnezl	v1,0x1a3c
    1d68:	8e700008 	lw	s0,8(s3)
    1d6c:	10a0ff32 	beqz	a1,0x1a38
    1d70:	00a21824 	and	v1,a1,v0
    1d74:	5460fea4 	bnezl	v1,0x1808
    1d78:	01603021 	move	a2,t3
    1d7c:	00052840 	sll	a1,a1,0x1
    1d80:	00a21824 	and	v1,a1,v0
    1d84:	1060fffd 	beqz	v1,0x1d7c
    1d88:	256b0004 	addiu	t3,t3,4
    1d8c:	1000fe9e 	b	0x1808
    1d90:	01603021 	move	a2,t3
    1d94:	8c430004 	lw	v1,4(v0)
    1d98:	8e05000c 	lw	a1,12(s0)
    1d9c:	8e060008 	lw	a2,8(s0)
    1da0:	34630001 	ori	v1,v1,0x1
    1da4:	ac430004 	sw	v1,4(v0)
    1da8:	02402021 	move	a0,s2
    1dac:	acc5000c 	sw	a1,12(a2)
    1db0:	0c000826 	jal	0x2098
    1db4:	aca60008 	sw	a2,8(a1)
    1db8:	1000feee 	b	0x1974
    1dbc:	26020008 	addiu	v0,s0,8
    1dc0:	1000fe54 	b	0x1714
    1dc4:	26220008 	addiu	v0,s1,8
    1dc8:	34460001 	ori	a2,v0,0x1
    1dcc:	02031821 	addu	v1,s0,v1
    1dd0:	36310001 	ori	s1,s1,0x1
    1dd4:	ae110004 	sw	s1,4(s0)
    1dd8:	02402021 	move	a0,s2
    1ddc:	ae650014 	sw	a1,20(s3)
    1de0:	ae650010 	sw	a1,16(s3)
    1de4:	aca9000c 	sw	t1,12(a1)
    1de8:	aca90008 	sw	t1,8(a1)
    1dec:	aca60004 	sw	a2,4(a1)
    1df0:	0c000826 	jal	0x2098
    1df4:	ac620000 	sw	v0,0(v1)
    1df8:	1000fede 	b	0x1974
    1dfc:	26020008 	addiu	v0,s0,8
    1e00:	24450039 	addiu	a1,v0,57
    1e04:	000528c0 	sll	a1,a1,0x3
    1e08:	1000ffa3 	b	0x1c98
    1e0c:	24420038 	addiu	v0,v0,56
    1e10:	1213000a 	beq	s0,s3,0x1e3c
    1e14:	00000000 	nop
    1e18:	8e700008 	lw	s0,8(s3)
    1e1c:	1000ff6c 	b	0x1bd0
    1e20:	8e020004 	lw	v0,4(s0)
    1e24:	2448005b 	addiu	t0,v0,91
    1e28:	1000feb2 	b	0x18f4
    1e2c:	000628c0 	sll	a1,a2,0x3
    1e30:	24e70010 	addiu	a3,a3,16
    1e34:	1000ffba 	b	0x1d20
    1e38:	256b0002 	addiu	t3,t3,2
    1e3c:	3c1e0001 	lui	s8,0x1
    1e40:	27de252c 	addiu	s8,s8,9516
    1e44:	8fc20000 	lw	v0,0(s8)
    1e48:	02821021 	addu	v0,s4,v0
    1e4c:	1000ff20 	b	0x1ad0
    1e50:	afc20000 	sw	v0,0(s8)
    1e54:	1000ff0d 	b	0x1a8c
    1e58:	26940010 	addiu	s4,s4,16
    1e5c:	8e670004 	lw	a3,4(s3)
    1e60:	00021883 	sra	v1,v0,0x2
    1e64:	24020001 	li	v0,1
    1e68:	00621004 	sllv	v0,v0,v1
    1e6c:	00471025 	or	v0,v0,a3
    1e70:	1000ff98 	b	0x1cd4
    1e74:	ae620004 	sw	v0,4(s3)
    1e78:	10800020 	beqz	a0,0x1efc
    1e7c:	2c440155 	sltiu	a0,v0,341
    1e80:	00031302 	srl	v0,v1,0xc
    1e84:	2445006f 	addiu	a1,v0,111
    1e88:	000528c0 	sll	a1,a1,0x3
    1e8c:	1000ff82 	b	0x1c98
    1e90:	2442006e 	addiu	v0,v0,110
    1e94:	10600020 	beqz	v1,0x1f18
    1e98:	2c420555 	sltiu	v0,v0,1365
    1e9c:	001113c2 	srl	v0,s1,0xf
    1ea0:	24460078 	addiu	a2,v0,120
    1ea4:	24480077 	addiu	t0,v0,119
    1ea8:	1000fe92 	b	0x18f4
    1eac:	000628c0 	sll	a1,a2,0x3
    1eb0:	32e40fff 	andi	a0,s7,0xfff
    1eb4:	1480ff06 	bnez	a0,0x1ad0
    1eb8:	00000000 	nop
    1ebc:	8e700008 	lw	s0,8(s3)
    1ec0:	02b41021 	addu	v0,s5,s4
    1ec4:	34420001 	ori	v0,v0,0x1
    1ec8:	1000ff33 	b	0x1b98
    1ecc:	ae020004 	sw	v0,4(s0)
    1ed0:	1000ff31 	b	0x1b98
    1ed4:	02c08021 	move	s0,s6
    1ed8:	1000ff18 	b	0x1b3c
    1edc:	0000a021 	move	s4,zero
    1ee0:	3c010001 	lui	at,0x1
    1ee4:	ac36d088 	sw	s6,-12152(at)
    1ee8:	1000ff01 	b	0x1af0
    1eec:	26c20008 	addiu	v0,s6,8
    1ef0:	24020001 	li	v0,1
    1ef4:	1000ff3e 	b	0x1bf0
    1ef8:	aec20004 	sw	v0,4(s6)
    1efc:	50800014 	beqzl	a0,0x1f50
    1f00:	2c420555 	sltiu	v0,v0,1365
    1f04:	000313c2 	srl	v0,v1,0xf
    1f08:	24450078 	addiu	a1,v0,120
    1f0c:	000528c0 	sll	a1,a1,0x3
    1f10:	1000ff61 	b	0x1c98
    1f14:	24420077 	addiu	v0,v0,119
    1f18:	50400014 	beqzl	v0,0x1f6c
    1f1c:	2406007f 	li	a2,127
    1f20:	00111482 	srl	v0,s1,0x12
    1f24:	2446007d 	addiu	a2,v0,125
    1f28:	2448007c 	addiu	t0,v0,124
    1f2c:	1000fe71 	b	0x18f4
    1f30:	000628c0 	sll	a1,a2,0x3
    1f34:	26050008 	addiu	a1,s0,8
    1f38:	0c00190e 	jal	0x6438
    1f3c:	02402021 	move	a0,s2
    1f40:	8e700008 	lw	s0,8(s3)
    1f44:	8fc30000 	lw	v1,0(s8)
    1f48:	1000ff13 	b	0x1b98
    1f4c:	8e020004 	lw	v0,4(s0)
    1f50:	50400009 	beqzl	v0,0x1f78
    1f54:	240503f8 	li	a1,1016
    1f58:	00031482 	srl	v0,v1,0x12
    1f5c:	2445007d 	addiu	a1,v0,125
    1f60:	000528c0 	sll	a1,a1,0x3
    1f64:	1000ff4c 	b	0x1c98
    1f68:	2442007c 	addiu	v0,v0,124
    1f6c:	240503f8 	li	a1,1016
    1f70:	1000fe60 	b	0x18f4
    1f74:	2408007e 	li	t0,126
    1f78:	1000ff47 	b	0x1c98
    1f7c:	2402007e 	li	v0,126
    1f80:	1000ff76 	b	0x1d5c
    1f84:	8e620004 	lw	v0,4(s3)
    1f88:	00801021 	move	v0,a0
    1f8c:	2cc40010 	sltiu	a0,a2,16
    1f90:	14800023 	bnez	a0,0x2020
    1f94:	00401821 	move	v1,v0
    1f98:	30440003 	andi	a0,v0,0x3
    1f9c:	10800028 	beqz	a0,0x2040
    1fa0:	30a800ff 	andi	t0,a1,0xff
    1fa4:	00441823 	subu	v1,v0,a0
    1fa8:	7c053c20 	seb	a3,a1
    1fac:	24650004 	addiu	a1,v1,4
    1fb0:	00401821 	move	v1,v0
    1fb4:	24630001 	addiu	v1,v1,1
    1fb8:	14a3fffe 	bne	a1,v1,0x1fb4
    1fbc:	a067ffff 	sb	a3,-1(v1)
    1fc0:	24c6fffc 	addiu	a2,a2,-4
    1fc4:	00863021 	addu	a2,a0,a2
    1fc8:	000618c2 	srl	v1,a2,0x3
    1fcc:	11000024 	beqz	t0,0x2060
    1fd0:	30ca0007 	andi	t2,a2,0x7
    1fd4:	00083a00 	sll	a3,t0,0x8
    1fd8:	00e84825 	or	t1,a3,t0
    1fdc:	00093c00 	sll	a3,t1,0x10
    1fe0:	00c02021 	move	a0,a2
    1fe4:	00e93825 	or	a3,a3,t1
    1fe8:	01403021 	move	a2,t2
    1fec:	000318c0 	sll	v1,v1,0x3
    1ff0:	00a31821 	addu	v1,a1,v1
    1ff4:	aca70000 	sw	a3,0(a1)
    1ff8:	aca70004 	sw	a3,4(a1)
    1ffc:	24a50008 	addiu	a1,a1,8
    2000:	5465fffd 	bnel	v1,a1,0x1ff8
    2004:	aca70000 	sw	a3,0(a1)
    2008:	30840004 	andi	a0,a0,0x4
    200c:	10800004 	beqz	a0,0x2020
    2010:	01002821 	move	a1,t0
    2014:	ac670000 	sw	a3,0(v1)
    2018:	2546fffc 	addiu	a2,t2,-4
    201c:	24630004 	addiu	v1,v1,4
    2020:	7c052c20 	seb	a1,a1
    2024:	10c00004 	beqz	a2,0x2038
    2028:	00663821 	addu	a3,v1,a2
    202c:	24630001 	addiu	v1,v1,1
    2030:	1467fffe 	bne	v1,a3,0x202c
    2034:	a065ffff 	sb	a1,-1(v1)
    2038:	03e00008 	jr	ra
    203c:	00000000 	nop
    2040:	30ca0007 	andi	t2,a2,0x7
    2044:	1500000a 	bnez	t0,0x2070
    2048:	000618c2 	srl	v1,a2,0x3
    204c:	00c02021 	move	a0,a2
    2050:	00402821 	move	a1,v0
    2054:	01403021 	move	a2,t2
    2058:	1000ffe4 	b	0x1fec
    205c:	00003821 	move	a3,zero
    2060:	00c02021 	move	a0,a2
    2064:	00003821 	move	a3,zero
    2068:	1000ffe0 	b	0x1fec
    206c:	01403021 	move	a2,t2
    2070:	00083a00 	sll	a3,t0,0x8
    2074:	00e84825 	or	t1,a3,t0
    2078:	00093c00 	sll	a3,t1,0x10
    207c:	00c02021 	move	a0,a2
    2080:	00402821 	move	a1,v0
    2084:	00e93825 	or	a3,a3,t1
    2088:	1000ffd8 	b	0x1fec
    208c:	01403021 	move	a2,t2
    2090:	03e00008 	jr	ra
    2094:	00000000 	nop
    2098:	03e00008 	jr	ra
    209c:	00000000 	nop
    20a0:	27bdfff8 	addiu	sp,sp,-8
    20a4:	afb00000 	sw	s0,0(sp)
    20a8:	00808021 	move	s0,a0
    20ac:	afbf0004 	sw	ra,4(sp)
    20b0:	3c010001 	lui	at,0x1
    20b4:	ac203970 	sw	zero,14704(at)
    20b8:	0c000395 	jal	0xe54
    20bc:	00a02021 	move	a0,a1
    20c0:	2403ffff 	li	v1,-1
    20c4:	10430004 	beq	v0,v1,0x20d8
    20c8:	8fbf0004 	lw	ra,4(sp)
    20cc:	8fb00000 	lw	s0,0(sp)
    20d0:	03e00008 	jr	ra
    20d4:	27bd0008 	addiu	sp,sp,8
    20d8:	3c030001 	lui	v1,0x1
    20dc:	8c633970 	lw	v1,14704(v1)
    20e0:	1060fffa 	beqz	v1,0x20cc
    20e4:	00000000 	nop
    20e8:	ae030000 	sw	v1,0(s0)
    20ec:	8fb00000 	lw	s0,0(sp)
    20f0:	03e00008 	jr	ra
    20f4:	27bd0008 	addiu	sp,sp,8
    20f8:	27bdff00 	addiu	sp,sp,-256
    20fc:	afbf00fc 	sw	ra,252(sp)
    2100:	afb600f0 	sw	s6,240(sp)
    2104:	afb500ec 	sw	s5,236(sp)
    2108:	afa400a4 	sw	a0,164(sp)
    210c:	00a0a821 	move	s5,a1
    2110:	00c0b021 	move	s6,a2
    2114:	afa700a8 	sw	a3,168(sp)
    2118:	afbe00f8 	sw	s8,248(sp)
    211c:	afb700f4 	sw	s7,244(sp)
    2120:	afb400e8 	sw	s4,232(sp)
    2124:	afb300e4 	sw	s3,228(sp)
    2128:	afb200e0 	sw	s2,224(sp)
    212c:	afb100dc 	sw	s1,220(sp)
    2130:	0c001a03 	jal	0x680c
    2134:	afb000d8 	sw	s0,216(sp)
    2138:	8c420000 	lw	v0,0(v0)
    213c:	00402021 	move	a0,v0
    2140:	0c000331 	jal	0xcc4
    2144:	afa200c0 	sw	v0,192(sp)
    2148:	afa200c4 	sw	v0,196(sp)
    214c:	96a2000c 	lhu	v0,12(s5)
    2150:	30420080 	andi	v0,v0,0x80
    2154:	10400005 	beqz	v0,0x216c
    2158:	27b40008 	addiu	s4,sp,8
    215c:	8ea20010 	lw	v0,16(s5)
    2160:	10400532 	beqz	v0,0x362c
    2164:	8fa400a4 	lw	a0,164(sp)
    2168:	27b40008 	addiu	s4,sp,8
    216c:	afb40070 	sw	s4,112(sp)
    2170:	afa00078 	sw	zero,120(sp)
    2174:	afa00074 	sw	zero,116(sp)
    2178:	afa000b0 	sw	zero,176(sp)
    217c:	afa000b4 	sw	zero,180(sp)
    2180:	afa000b8 	sw	zero,184(sp)
    2184:	afa000bc 	sw	zero,188(sp)
    2188:	afa000cc 	sw	zero,204(sp)
    218c:	afa0009c 	sw	zero,156(sp)
    2190:	02806021 	move	t4,s4
    2194:	02c0b821 	move	s7,s6
    2198:	82e20000 	lb	v0,0(s7)
    219c:	10400048 	beqz	v0,0x22c0
    21a0:	24030025 	li	v1,37
    21a4:	104304a4 	beq	v0,v1,0x3438
    21a8:	02e08021 	move	s0,s7
    21ac:	10000005 	b	0x21c4
    21b0:	82020001 	lb	v0,1(s0)
    21b4:	1043002e 	beq	v0,v1,0x2270
    21b8:	02379023 	subu	s2,s1,s7
    21bc:	02208021 	move	s0,s1
    21c0:	82020001 	lb	v0,1(s0)
    21c4:	1440fffb 	bnez	v0,0x21b4
    21c8:	26110001 	addiu	s1,s0,1
    21cc:	02379023 	subu	s2,s1,s7
    21d0:	1240003b 	beqz	s2,0x22c0
    21d4:	8fa20074 	lw	v0,116(sp)
    21d8:	8fa30078 	lw	v1,120(sp)
    21dc:	ad970000 	sw	s7,0(t4)
    21e0:	24420001 	addiu	v0,v0,1
    21e4:	00721821 	addu	v1,v1,s2
    21e8:	28440008 	slti	a0,v0,8
    21ec:	ad920004 	sw	s2,4(t4)
    21f0:	afa30078 	sw	v1,120(sp)
    21f4:	1080002a 	beqz	a0,0x22a0
    21f8:	afa20074 	sw	v0,116(sp)
    21fc:	258c0008 	addiu	t4,t4,8
    2200:	8fa3009c 	lw	v1,156(sp)
    2204:	82020001 	lb	v0,1(s0)
    2208:	00721821 	addu	v1,v1,s2
    220c:	1040002c 	beqz	v0,0x22c0
    2210:	afa3009c 	sw	v1,156(sp)
    2214:	26370001 	addiu	s7,s1,1
    2218:	82300001 	lb	s0,1(s1)
    221c:	a3a00096 	sb	zero,150(sp)
    2220:	00002021 	move	a0,zero
    2224:	00002821 	move	a1,zero
    2228:	241effff 	li	s8,-1
    222c:	00008821 	move	s1,zero
    2230:	00007821 	move	t7,zero
    2234:	2407002a 	li	a3,42
    2238:	2406006c 	li	a2,108
    223c:	2408ffff 	li	t0,-1
    2240:	26f70001 	addiu	s7,s7,1
    2244:	2602ffe0 	addiu	v0,s0,-32
    2248:	2c430059 	sltiu	v1,v0,89
    224c:	10600046 	beqz	v1,0x2368
    2250:	00000000 	nop
    2254:	00021080 	sll	v0,v0,0x2
    2258:	3c030001 	lui	v1,0x1
    225c:	2463bd04 	addiu	v1,v1,-17148
    2260:	00621021 	addu	v0,v1,v0
    2264:	8c420000 	lw	v0,0(v0)
    2268:	00400008 	jr	v0
    226c:	00000000 	nop
    2270:	5240ffe9 	beqzl	s2,0x2218
    2274:	26370001 	addiu	s7,s1,1
    2278:	8fa20074 	lw	v0,116(sp)
    227c:	8fa30078 	lw	v1,120(sp)
    2280:	ad970000 	sw	s7,0(t4)
    2284:	24420001 	addiu	v0,v0,1
    2288:	00721821 	addu	v1,v1,s2
    228c:	28440008 	slti	a0,v0,8
    2290:	ad920004 	sw	s2,4(t4)
    2294:	afa30078 	sw	v1,120(sp)
    2298:	1480ffd8 	bnez	a0,0x21fc
    229c:	afa20074 	sw	v0,116(sp)
    22a0:	8fa400a4 	lw	a0,164(sp)
    22a4:	27a60070 	addiu	a2,sp,112
    22a8:	0c002070 	jal	0x81c0
    22ac:	02a02821 	move	a1,s5
    22b0:	1440000a 	bnez	v0,0x22dc
    22b4:	02806021 	move	t4,s4
    22b8:	1000ffd2 	b	0x2204
    22bc:	8fa3009c 	lw	v1,156(sp)
    22c0:	8fa20078 	lw	v0,120(sp)
    22c4:	50400006 	beqzl	v0,0x22e0
    22c8:	96a2000c 	lhu	v0,12(s5)
    22cc:	8fa400a4 	lw	a0,164(sp)
    22d0:	27a60070 	addiu	a2,sp,112
    22d4:	0c002070 	jal	0x81c0
    22d8:	02a02821 	move	a1,s5
    22dc:	96a2000c 	lhu	v0,12(s5)
    22e0:	8fa4009c 	lw	a0,156(sp)
    22e4:	2403ffff 	li	v1,-1
    22e8:	30420040 	andi	v0,v0,0x40
    22ec:	0062200b 	movn	a0,v1,v0
    22f0:	afa4009c 	sw	a0,156(sp)
    22f4:	8fbf00fc 	lw	ra,252(sp)
    22f8:	8fa2009c 	lw	v0,156(sp)
    22fc:	8fbe00f8 	lw	s8,248(sp)
    2300:	8fb700f4 	lw	s7,244(sp)
    2304:	8fb600f0 	lw	s6,240(sp)
    2308:	8fb500ec 	lw	s5,236(sp)
    230c:	8fb400e8 	lw	s4,232(sp)
    2310:	8fb300e4 	lw	s3,228(sp)
    2314:	8fb200e0 	lw	s2,224(sp)
    2318:	8fb100dc 	lw	s1,220(sp)
    231c:	8fb000d8 	lw	s0,216(sp)
    2320:	03e00008 	jr	ra
    2324:	27bd0100 	addiu	sp,sp,256
    2328:	00008821 	move	s1,zero
    232c:	2603ffd0 	addiu	v1,s0,-48
    2330:	26f70001 	addiu	s7,s7,1
    2334:	00111080 	sll	v0,s1,0x2
    2338:	82f0ffff 	lb	s0,-1(s7)
    233c:	00518821 	addu	s1,v0,s1
    2340:	00118840 	sll	s1,s1,0x1
    2344:	00718821 	addu	s1,v1,s1
    2348:	2603ffd0 	addiu	v1,s0,-48
    234c:	2c62000a 	sltiu	v0,v1,10
    2350:	5440fff8 	bnezl	v0,0x2334
    2354:	26f70001 	addiu	s7,s7,1
    2358:	2602ffe0 	addiu	v0,s0,-32
    235c:	2c430059 	sltiu	v1,v0,89
    2360:	5460ffbd 	bnezl	v1,0x2258
    2364:	00021080 	sll	v0,v0,0x2
    2368:	54800001 	bnezl	a0,0x2370
    236c:	a3a50096 	sb	a1,150(sp)
    2370:	1200ffd3 	beqz	s0,0x22c0
    2374:	24020001 	li	v0,1
    2378:	a3b00048 	sb	s0,72(sp)
    237c:	a3a00096 	sb	zero,150(sp)
    2380:	24120001 	li	s2,1
    2384:	afa200a0 	sw	v0,160(sp)
    2388:	27b30048 	addiu	s3,sp,72
    238c:	afaf0098 	sw	t7,152(sp)
    2390:	0000f021 	move	s8,zero
    2394:	8fa20098 	lw	v0,152(sp)
    2398:	8fa30078 	lw	v1,120(sp)
    239c:	304f0002 	andi	t7,v0,0x2
    23a0:	304b0084 	andi	t3,v0,0x84
    23a4:	024f9021 	addu	s2,s2,t7
    23a8:	15600004 	bnez	t3,0x23bc
    23ac:	8fa20074 	lw	v0,116(sp)
    23b0:	0232b023 	subu	s6,s1,s2
    23b4:	1ec00322 	bgtz	s6,0x3040
    23b8:	2ac40011 	slti	a0,s6,17
    23bc:	83a40096 	lb	a0,150(sp)
    23c0:	24490001 	addiu	t1,v0,1
    23c4:	10800010 	beqz	a0,0x2408
    23c8:	25880008 	addiu	t0,t4,8
    23cc:	27a50096 	addiu	a1,sp,150
    23d0:	24630001 	addiu	v1,v1,1
    23d4:	ad850000 	sw	a1,0(t4)
    23d8:	29240008 	slti	a0,t1,8
    23dc:	24050001 	li	a1,1
    23e0:	ad850004 	sw	a1,4(t4)
    23e4:	afa30078 	sw	v1,120(sp)
    23e8:	1080034c 	beqz	a0,0x311c
    23ec:	afa90074 	sw	t1,116(sp)
    23f0:	24450002 	addiu	a1,v0,2
    23f4:	25840010 	addiu	a0,t4,16
    23f8:	01201021 	move	v0,t1
    23fc:	01006021 	move	t4,t0
    2400:	00a04821 	move	t1,a1
    2404:	00804021 	move	t0,a0
    2408:	11e0000f 	beqz	t7,0x2448
    240c:	24040080 	li	a0,128
    2410:	27a40094 	addiu	a0,sp,148
    2414:	24630002 	addiu	v1,v1,2
    2418:	ad840000 	sw	a0,0(t4)
    241c:	29220008 	slti	v0,t1,8
    2420:	24040002 	li	a0,2
    2424:	ad840004 	sw	a0,4(t4)
    2428:	afa30078 	sw	v1,120(sp)
    242c:	1040034a 	beqz	v0,0x3158
    2430:	afa90074 	sw	t1,116(sp)
    2434:	01201021 	move	v0,t1
    2438:	01006021 	move	t4,t0
    243c:	25290001 	addiu	t1,t1,1
    2440:	25080008 	addiu	t0,t0,8
    2444:	24040080 	li	a0,128
    2448:	51640242 	beql	t3,a0,0x2d54
    244c:	0232b023 	subu	s6,s1,s2
    2450:	8fa400a0 	lw	a0,160(sp)
    2454:	03c4f023 	subu	s8,s8,a0
    2458:	1fc0027a 	bgtz	s8,0x2e44
    245c:	2bc40011 	slti	a0,s8,17
    2460:	8fa20098 	lw	v0,152(sp)
    2464:	30420100 	andi	v0,v0,0x100
    2468:	544001e5 	bnezl	v0,0x2c00
    246c:	2a100066 	slti	s0,s0,102
    2470:	8fa400a0 	lw	a0,160(sp)
    2474:	29220008 	slti	v0,t1,8
    2478:	ad930000 	sw	s3,0(t4)
    247c:	00831821 	addu	v1,a0,v1
    2480:	ad840004 	sw	a0,4(t4)
    2484:	afa30078 	sw	v1,120(sp)
    2488:	104002e3 	beqz	v0,0x3018
    248c:	afa90074 	sw	t1,116(sp)
    2490:	8fa20098 	lw	v0,152(sp)
    2494:	30530004 	andi	s3,v0,0x4
    2498:	52600005 	beqzl	s3,0x24b0
    249c:	8fa2009c 	lw	v0,156(sp)
    24a0:	02328023 	subu	s0,s1,s2
    24a4:	1e000339 	bgtz	s0,0x318c
    24a8:	2a040011 	slti	a0,s0,17
    24ac:	8fa2009c 	lw	v0,156(sp)
    24b0:	0232882c 	max	s1,s1,s2
    24b4:	00511021 	addu	v0,v0,s1
    24b8:	146000b6 	bnez	v1,0x2794
    24bc:	afa2009c 	sw	v0,156(sp)
    24c0:	afa00074 	sw	zero,116(sp)
    24c4:	1000ff34 	b	0x2198
    24c8:	02806021 	move	t4,s4
    24cc:	35ef0080 	ori	t7,t7,0x80
    24d0:	1000ff5b 	b	0x2240
    24d4:	82f00000 	lb	s0,0(s7)
    24d8:	82f00000 	lb	s0,0(s7)
    24dc:	120706bd 	beq	s0,a3,0x3fd4
    24e0:	26e20001 	addiu	v0,s7,1
    24e4:	2603ffd0 	addiu	v1,s0,-48
    24e8:	2c69000a 	sltiu	t1,v1,10
    24ec:	0040b821 	move	s7,v0
    24f0:	1120ff54 	beqz	t1,0x2244
    24f4:	0000f021 	move	s8,zero
    24f8:	26f70001 	addiu	s7,s7,1
    24fc:	001e1080 	sll	v0,s8,0x2
    2500:	82f0ffff 	lb	s0,-1(s7)
    2504:	005ef021 	addu	s8,v0,s8
    2508:	001ef040 	sll	s8,s8,0x1
    250c:	03c3f021 	addu	s8,s8,v1
    2510:	2603ffd0 	addiu	v1,s0,-48
    2514:	2c62000a 	sltiu	v0,v1,10
    2518:	5440fff8 	bnezl	v0,0x24fc
    251c:	26f70001 	addiu	s7,s7,1
    2520:	1000ff49 	b	0x2248
    2524:	2602ffe0 	addiu	v0,s0,-32
    2528:	82f00000 	lb	s0,0(s7)
    252c:	1000ff44 	b	0x2240
    2530:	35ef0004 	ori	t7,t7,0x4
    2534:	82f00000 	lb	s0,0(s7)
    2538:	24040001 	li	a0,1
    253c:	1000ff40 	b	0x2240
    2540:	2405002b 	li	a1,43
    2544:	8fa200a8 	lw	v0,168(sp)
    2548:	82f00000 	lb	s0,0(s7)
    254c:	8c510000 	lw	s1,0(v0)
    2550:	24420004 	addiu	v0,v0,4
    2554:	0621ff3a 	bgez	s1,0x2240
    2558:	afa200a8 	sw	v0,168(sp)
    255c:	00118823 	negu	s1,s1
    2560:	1000ff37 	b	0x2240
    2564:	35ef0004 	ori	t7,t7,0x4
    2568:	35ef0001 	ori	t7,t7,0x1
    256c:	1000ff34 	b	0x2240
    2570:	82f00000 	lb	s0,0(s7)
    2574:	14a0ff32 	bnez	a1,0x2240
    2578:	82f00000 	lb	s0,0(s7)
    257c:	24040001 	li	a0,1
    2580:	1000ff2f 	b	0x2240
    2584:	24050020 	li	a1,32
    2588:	54800001 	bnezl	a0,0x2590
    258c:	a3a50096 	sb	a1,150(sp)
    2590:	3c020001 	lui	v0,0x1
    2594:	2442bce4 	addiu	v0,v0,-17180
    2598:	afa200bc 	sw	v0,188(sp)
    259c:	31e20020 	andi	v0,t7,0x20
    25a0:	10400140 	beqz	v0,0x2aa4
    25a4:	8fa300a8 	lw	v1,168(sp)
    25a8:	8fa200a8 	lw	v0,168(sp)
    25ac:	2403fff8 	li	v1,-8
    25b0:	24420007 	addiu	v0,v0,7
    25b4:	00431024 	and	v0,v0,v1
    25b8:	8c560000 	lw	s6,0(v0)
    25bc:	8c520004 	lw	s2,4(v0)
    25c0:	24430008 	addiu	v1,v0,8
    25c4:	afa300a8 	sw	v1,168(sp)
    25c8:	31e30001 	andi	v1,t7,0x1
    25cc:	10600004 	beqz	v1,0x25e0
    25d0:	24020002 	li	v0,2
    25d4:	02d21825 	or	v1,s6,s2
    25d8:	146003e5 	bnez	v1,0x3570
    25dc:	24030030 	li	v1,48
    25e0:	2403ffff 	li	v1,-1
    25e4:	a3a00096 	sb	zero,150(sp)
    25e8:	13c30104 	beq	s8,v1,0x29fc
    25ec:	afa000ac 	sw	zero,172(sp)
    25f0:	2413ff7f 	li	s3,-129
    25f4:	01f32024 	and	a0,t7,s3
    25f8:	02d21825 	or	v1,s6,s2
    25fc:	1460028e 	bnez	v1,0x3038
    2600:	afa40098 	sw	a0,152(sp)
    2604:	57c00311 	bnezl	s8,0x324c
    2608:	24030001 	li	v1,1
    260c:	54400053 	bnezl	v0,0x275c
    2610:	0000f021 	move	s8,zero
    2614:	31e20001 	andi	v0,t7,0x1
    2618:	afa200a0 	sw	v0,160(sp)
    261c:	144003a3 	bnez	v0,0x34ac
    2620:	27b30070 	addiu	s3,sp,112
    2624:	8fa200a0 	lw	v0,160(sp)
    2628:	03c2902c 	max	s2,s8,v0
    262c:	8fa200ac 	lw	v0,172(sp)
    2630:	5440ff58 	bnezl	v0,0x2394
    2634:	26520001 	addiu	s2,s2,1
    2638:	1000ff57 	b	0x2398
    263c:	8fa20098 	lw	v0,152(sp)
    2640:	54800001 	bnezl	a0,0x2648
    2644:	a3a50096 	sb	a1,150(sp)
    2648:	31e20020 	andi	v0,t7,0x20
    264c:	14400138 	bnez	v0,0x2b30
    2650:	8fa200a8 	lw	v0,168(sp)
    2654:	31e30010 	andi	v1,t7,0x10
    2658:	8c480000 	lw	t0,0(v0)
    265c:	14600123 	bnez	v1,0x2aec
    2660:	24420004 	addiu	v0,v0,4
    2664:	31e30040 	andi	v1,t7,0x40
    2668:	10600485 	beqz	v1,0x3880
    266c:	afa200a8 	sw	v0,168(sp)
    2670:	3116ffff 	andi	s6,t0,0xffff
    2674:	00009021 	move	s2,zero
    2678:	1000ffd9 	b	0x25e0
    267c:	24020001 	li	v0,1
    2680:	8fa200a8 	lw	v0,168(sp)
    2684:	a3a00096 	sb	zero,150(sp)
    2688:	8c530000 	lw	s3,0(v0)
    268c:	12600454 	beqz	s3,0x37e0
    2690:	24560004 	addiu	s6,v0,4
    2694:	2402ffff 	li	v0,-1
    2698:	13c203d7 	beq	s8,v0,0x35f8
    269c:	03c03021 	move	a2,s8
    26a0:	00002821 	move	a1,zero
    26a4:	02602021 	move	a0,s3
    26a8:	afac00a0 	sw	t4,160(sp)
    26ac:	0c001a0e 	jal	0x6838
    26b0:	afaf0098 	sw	t7,152(sp)
    26b4:	8faf0098 	lw	t7,152(sp)
    26b8:	104005b8 	beqz	v0,0x3d9c
    26bc:	8fac00a0 	lw	t4,160(sp)
    26c0:	83a30096 	lb	v1,150(sp)
    26c4:	00531023 	subu	v0,v0,s3
    26c8:	005e102d 	min	v0,v0,s8
    26cc:	00009021 	move	s2,zero
    26d0:	afa200a0 	sw	v0,160(sp)
    26d4:	afa300ac 	sw	v1,172(sp)
    26d8:	0052902c 	max	s2,v0,s2
    26dc:	afb600a8 	sw	s6,168(sp)
    26e0:	afaf0098 	sw	t7,152(sp)
    26e4:	1000ffd1 	b	0x262c
    26e8:	0000f021 	move	s8,zero
    26ec:	54800001 	bnezl	a0,0x26f4
    26f0:	a3a50096 	sb	a1,150(sp)
    26f4:	31e20020 	andi	v0,t7,0x20
    26f8:	10400392 	beqz	v0,0x3544
    26fc:	8fa200a8 	lw	v0,168(sp)
    2700:	8fa200a8 	lw	v0,168(sp)
    2704:	2403fff8 	li	v1,-8
    2708:	24420007 	addiu	v0,v0,7
    270c:	00431024 	and	v0,v0,v1
    2710:	8c430004 	lw	v1,4(v0)
    2714:	8c560000 	lw	s6,0(v0)
    2718:	24440008 	addiu	a0,v0,8
    271c:	afa400a8 	sw	a0,168(sp)
    2720:	00609021 	move	s2,v1
    2724:	046000aa 	bltz	v1,0x29d0
    2728:	00164023 	negu	t0,s6
    272c:	83a30096 	lb	v1,150(sp)
    2730:	2402ffff 	li	v0,-1
    2734:	13c20107 	beq	s8,v0,0x2b54
    2738:	afa300ac 	sw	v1,172(sp)
    273c:	2403ff7f 	li	v1,-129
    2740:	02d21025 	or	v0,s6,s2
    2744:	14400103 	bnez	v0,0x2b54
    2748:	01e37824 	and	t7,t7,v1
    274c:	17c00552 	bnez	s8,0x3c98
    2750:	27a20070 	addiu	v0,sp,112
    2754:	afaf0098 	sw	t7,152(sp)
    2758:	0000f021 	move	s8,zero
    275c:	afa000a0 	sw	zero,160(sp)
    2760:	1000ffb0 	b	0x2624
    2764:	27b30070 	addiu	s3,sp,112
    2768:	8fa300a8 	lw	v1,168(sp)
    276c:	a3a00096 	sb	zero,150(sp)
    2770:	24120001 	li	s2,1
    2774:	8c620000 	lw	v0,0(v1)
    2778:	24630004 	addiu	v1,v1,4
    277c:	afa300a8 	sw	v1,168(sp)
    2780:	a3a20048 	sb	v0,72(sp)
    2784:	24020001 	li	v0,1
    2788:	afa200a0 	sw	v0,160(sp)
    278c:	1000feff 	b	0x238c
    2790:	27b30048 	addiu	s3,sp,72
    2794:	8fa400a4 	lw	a0,164(sp)
    2798:	27a60070 	addiu	a2,sp,112
    279c:	0c002070 	jal	0x81c0
    27a0:	02a02821 	move	a1,s5
    27a4:	1440fecd 	bnez	v0,0x22dc
    27a8:	02806021 	move	t4,s4
    27ac:	1000fe7a 	b	0x2198
    27b0:	afa00074 	sw	zero,116(sp)
    27b4:	54800001 	bnezl	a0,0x27bc
    27b8:	a3a50096 	sb	a1,150(sp)
    27bc:	31e20020 	andi	v0,t7,0x20
    27c0:	144000d1 	bnez	v0,0x2b08
    27c4:	8fa200a8 	lw	v0,168(sp)
    27c8:	31e30010 	andi	v1,t7,0x10
    27cc:	8c480000 	lw	t0,0(v0)
    27d0:	1460003a 	bnez	v1,0x28bc
    27d4:	24420004 	addiu	v0,v0,4
    27d8:	31e30040 	andi	v1,t7,0x40
    27dc:	10600424 	beqz	v1,0x3870
    27e0:	afa200a8 	sw	v0,168(sp)
    27e4:	3116ffff 	andi	s6,t0,0xffff
    27e8:	00009021 	move	s2,zero
    27ec:	1000ff7c 	b	0x25e0
    27f0:	00001021 	move	v0,zero
    27f4:	54800001 	bnezl	a0,0x27fc
    27f8:	a3a50096 	sb	a1,150(sp)
    27fc:	8fa400a8 	lw	a0,168(sp)
    2800:	31e20020 	andi	v0,t7,0x20
    2804:	14400348 	bnez	v0,0x3528
    2808:	24830004 	addiu	v1,a0,4
    280c:	31e20010 	andi	v0,t7,0x10
    2810:	1440038e 	bnez	v0,0x364c
    2814:	8fa200a8 	lw	v0,168(sp)
    2818:	31ef0040 	andi	t7,t7,0x40
    281c:	51e0038c 	beqzl	t7,0x3650
    2820:	8c420000 	lw	v0,0(v0)
    2824:	8fa200a8 	lw	v0,168(sp)
    2828:	afa300a8 	sw	v1,168(sp)
    282c:	8fa3009c 	lw	v1,156(sp)
    2830:	8c420000 	lw	v0,0(v0)
    2834:	1000fe58 	b	0x2198
    2838:	a4430000 	sh	v1,0(v0)
    283c:	82f00000 	lb	s0,0(s7)
    2840:	520603e4 	beql	s0,a2,0x37d4
    2844:	82f00001 	lb	s0,1(s7)
    2848:	1000fe7d 	b	0x2240
    284c:	35ef0010 	ori	t7,t7,0x10
    2850:	35ef0040 	ori	t7,t7,0x40
    2854:	1000fe7a 	b	0x2240
    2858:	82f00000 	lb	s0,0(s7)
    285c:	35ef0020 	ori	t7,t7,0x20
    2860:	1000fe77 	b	0x2240
    2864:	82f00000 	lb	s0,0(s7)
    2868:	8fa300a8 	lw	v1,168(sp)
    286c:	24027830 	li	v0,30768
    2870:	a7a20094 	sh	v0,148(sp)
    2874:	24620004 	addiu	v0,v1,4
    2878:	afa200a8 	sw	v0,168(sp)
    287c:	3c020001 	lui	v0,0x1
    2880:	2442bce4 	addiu	v0,v0,-17180
    2884:	afa200bc 	sw	v0,188(sp)
    2888:	8c760000 	lw	s6,0(v1)
    288c:	00009021 	move	s2,zero
    2890:	35ef0002 	ori	t7,t7,0x2
    2894:	24020002 	li	v0,2
    2898:	1000ff51 	b	0x25e0
    289c:	24100078 	li	s0,120
    28a0:	54800001 	bnezl	a0,0x28a8
    28a4:	a3a50096 	sb	a1,150(sp)
    28a8:	31e20020 	andi	v0,t7,0x20
    28ac:	14400095 	bnez	v0,0x2b04
    28b0:	35ef0010 	ori	t7,t7,0x10
    28b4:	8fa200a8 	lw	v0,168(sp)
    28b8:	24420004 	addiu	v0,v0,4
    28bc:	8fa300a8 	lw	v1,168(sp)
    28c0:	00009021 	move	s2,zero
    28c4:	afa200a8 	sw	v0,168(sp)
    28c8:	8c760000 	lw	s6,0(v1)
    28cc:	1000ff44 	b	0x25e0
    28d0:	00001021 	move	v0,zero
    28d4:	35ef0008 	ori	t7,t7,0x8
    28d8:	1000fe59 	b	0x2240
    28dc:	82f00000 	lb	s0,0(s7)
    28e0:	54800001 	bnezl	a0,0x28e8
    28e4:	a3a50096 	sb	a1,150(sp)
    28e8:	8fa200a8 	lw	v0,168(sp)
    28ec:	2403fff8 	li	v1,-8
    28f0:	afac00a0 	sw	t4,160(sp)
    28f4:	24420007 	addiu	v0,v0,7
    28f8:	00431024 	and	v0,v0,v1
    28fc:	8c530000 	lw	s3,0(v0)
    2900:	8c560004 	lw	s6,4(v0)
    2904:	24420008 	addiu	v0,v0,8
    2908:	02602021 	move	a0,s3
    290c:	02c02821 	move	a1,s6
    2910:	afaf0098 	sw	t7,152(sp)
    2914:	afb300b4 	sw	s3,180(sp)
    2918:	afb600b8 	sw	s6,184(sp)
    291c:	afa200a8 	sw	v0,168(sp)
    2920:	0c001f74 	jal	0x7dd0
    2924:	24120001 	li	s2,1
    2928:	8faf0098 	lw	t7,152(sp)
    292c:	145202e3 	bne	v0,s2,0x34bc
    2930:	8fac00a0 	lw	t4,160(sp)
    2934:	02602021 	move	a0,s3
    2938:	02c02821 	move	a1,s6
    293c:	00003021 	move	a2,zero
    2940:	0c002ca9 	jal	0xb2a4
    2944:	00003821 	move	a3,zero
    2948:	8faf0098 	lw	t7,152(sp)
    294c:	04400452 	bltz	v0,0x3a98
    2950:	8fac00a0 	lw	t4,160(sp)
    2954:	83a20096 	lb	v0,150(sp)
    2958:	afa200ac 	sw	v0,172(sp)
    295c:	2a0a0048 	slti	t2,s0,72
    2960:	3c030001 	lui	v1,0x1
    2964:	2463bcc0 	addiu	v1,v1,-17216
    2968:	3c020001 	lui	v0,0x1
    296c:	2442bcc4 	addiu	v0,v0,-17212
    2970:	006a100b 	movn	v0,v1,t2
    2974:	00409821 	move	s3,v0
    2978:	2402ff7f 	li	v0,-129
    297c:	01e21024 	and	v0,t7,v0
    2980:	afa20098 	sw	v0,152(sp)
    2984:	24020003 	li	v0,3
    2988:	24120003 	li	s2,3
    298c:	afa200a0 	sw	v0,160(sp)
    2990:	1000ff26 	b	0x262c
    2994:	0000f021 	move	s8,zero
    2998:	54800001 	bnezl	a0,0x29a0
    299c:	a3a50096 	sb	a1,150(sp)
    29a0:	31e20020 	andi	v0,t7,0x20
    29a4:	1440ff56 	bnez	v0,0x2700
    29a8:	35ef0010 	ori	t7,t7,0x10
    29ac:	8fa200a8 	lw	v0,168(sp)
    29b0:	24420004 	addiu	v0,v0,4
    29b4:	8fa300a8 	lw	v1,168(sp)
    29b8:	8c760000 	lw	s6,0(v1)
    29bc:	001697c3 	sra	s2,s6,0x1f
    29c0:	02401821 	move	v1,s2
    29c4:	0461ff59 	bgez	v1,0x272c
    29c8:	afa200a8 	sw	v0,168(sp)
    29cc:	00164023 	negu	t0,s6
    29d0:	0008102b 	sltu	v0,zero,t0
    29d4:	00124823 	negu	t1,s2
    29d8:	01229023 	subu	s2,t1,v0
    29dc:	2402002d 	li	v0,45
    29e0:	a3a20096 	sb	v0,150(sp)
    29e4:	2403ffff 	li	v1,-1
    29e8:	2402002d 	li	v0,45
    29ec:	afa200ac 	sw	v0,172(sp)
    29f0:	0100b021 	move	s6,t0
    29f4:	17c3fefe 	bne	s8,v1,0x25f0
    29f8:	24020001 	li	v0,1
    29fc:	24030001 	li	v1,1
    2a00:	10430054 	beq	v0,v1,0x2b54
    2a04:	24030002 	li	v1,2
    2a08:	10430215 	beq	v0,v1,0x3260
    2a0c:	8fa500bc 	lw	a1,188(sp)
    2a10:	27a20070 	addiu	v0,sp,112
    2a14:	afa200a0 	sw	v0,160(sp)
    2a18:	10000002 	b	0x2a24
    2a1c:	00401821 	move	v1,v0
    2a20:	02601821 	move	v1,s3
    2a24:	00122f40 	sll	a1,s2,0x1d
    2a28:	001620c2 	srl	a0,s6,0x3
    2a2c:	32c20007 	andi	v0,s6,0x7
    2a30:	001290c2 	srl	s2,s2,0x3
    2a34:	00a4b025 	or	s6,a1,a0
    2a38:	24420030 	addiu	v0,v0,48
    2a3c:	02d22025 	or	a0,s6,s2
    2a40:	2473ffff 	addiu	s3,v1,-1
    2a44:	1480fff6 	bnez	a0,0x2a20
    2a48:	a062ffff 	sb	v0,-1(v1)
    2a4c:	31e40001 	andi	a0,t7,0x1
    2a50:	50800067 	beqzl	a0,0x2bf0
    2a54:	8fa200a0 	lw	v0,160(sp)
    2a58:	24040030 	li	a0,48
    2a5c:	10440063 	beq	v0,a0,0x2bec
    2a60:	8fa200a0 	lw	v0,160(sp)
    2a64:	2463fffe 	addiu	v1,v1,-2
    2a68:	a264ffff 	sb	a0,-1(s3)
    2a6c:	00431023 	subu	v0,v0,v1
    2a70:	afa200a0 	sw	v0,160(sp)
    2a74:	afaf0098 	sw	t7,152(sp)
    2a78:	1000feea 	b	0x2624
    2a7c:	00609821 	move	s3,v1
    2a80:	54800001 	bnezl	a0,0x2a88
    2a84:	a3a50096 	sb	a1,150(sp)
    2a88:	3c020001 	lui	v0,0x1
    2a8c:	2442bcd0 	addiu	v0,v0,-17200
    2a90:	afa200bc 	sw	v0,188(sp)
    2a94:	31e20020 	andi	v0,t7,0x20
    2a98:	1440fec4 	bnez	v0,0x25ac
    2a9c:	8fa200a8 	lw	v0,168(sp)
    2aa0:	8fa300a8 	lw	v1,168(sp)
    2aa4:	31e20010 	andi	v0,t7,0x10
    2aa8:	8c680000 	lw	t0,0(v1)
    2aac:	24630004 	addiu	v1,v1,4
    2ab0:	1440025e 	bnez	v0,0x342c
    2ab4:	afa300a8 	sw	v1,168(sp)
    2ab8:	31e20040 	andi	v0,t7,0x40
    2abc:	5040025c 	beqzl	v0,0x3430
    2ac0:	0100b021 	move	s6,t0
    2ac4:	3116ffff 	andi	s6,t0,0xffff
    2ac8:	1000febf 	b	0x25c8
    2acc:	00009021 	move	s2,zero
    2ad0:	54800001 	bnezl	a0,0x2ad8
    2ad4:	a3a50096 	sb	a1,150(sp)
    2ad8:	31e20020 	andi	v0,t7,0x20
    2adc:	14400013 	bnez	v0,0x2b2c
    2ae0:	35ef0010 	ori	t7,t7,0x10
    2ae4:	8fa200a8 	lw	v0,168(sp)
    2ae8:	24420004 	addiu	v0,v0,4
    2aec:	8fa300a8 	lw	v1,168(sp)
    2af0:	00009021 	move	s2,zero
    2af4:	afa200a8 	sw	v0,168(sp)
    2af8:	8c760000 	lw	s6,0(v1)
    2afc:	1000feb8 	b	0x25e0
    2b00:	24020001 	li	v0,1
    2b04:	8fa200a8 	lw	v0,168(sp)
    2b08:	2403fff8 	li	v1,-8
    2b0c:	24420007 	addiu	v0,v0,7
    2b10:	00431024 	and	v0,v0,v1
    2b14:	24430008 	addiu	v1,v0,8
    2b18:	8c560000 	lw	s6,0(v0)
    2b1c:	8c520004 	lw	s2,4(v0)
    2b20:	afa300a8 	sw	v1,168(sp)
    2b24:	1000feae 	b	0x25e0
    2b28:	00001021 	move	v0,zero
    2b2c:	8fa200a8 	lw	v0,168(sp)
    2b30:	2403fff8 	li	v1,-8
    2b34:	24420007 	addiu	v0,v0,7
    2b38:	00431024 	and	v0,v0,v1
    2b3c:	24430008 	addiu	v1,v0,8
    2b40:	8c560000 	lw	s6,0(v0)
    2b44:	8c520004 	lw	s2,4(v0)
    2b48:	afa300a8 	sw	v1,168(sp)
    2b4c:	1000fea4 	b	0x25e0
    2b50:	24020001 	li	v0,1
    2b54:	1240044d 	beqz	s2,0x3c8c
    2b58:	2ec2000a 	sltiu	v0,s6,10
    2b5c:	27b30070 	addiu	s3,sp,112
    2b60:	afb00098 	sw	s0,152(sp)
    2b64:	afb300a0 	sw	s3,160(sp)
    2b68:	02408021 	move	s0,s2
    2b6c:	afac00c8 	sw	t4,200(sp)
    2b70:	02209021 	move	s2,s1
    2b74:	01e08821 	move	s1,t7
    2b78:	02c02021 	move	a0,s6
    2b7c:	02002821 	move	a1,s0
    2b80:	2406000a 	li	a2,10
    2b84:	0c0028b3 	jal	0xa2cc
    2b88:	00003821 	move	a3,zero
    2b8c:	24420030 	addiu	v0,v0,48
    2b90:	2673ffff 	addiu	s3,s3,-1
    2b94:	02c02021 	move	a0,s6
    2b98:	2406000a 	li	a2,10
    2b9c:	00003821 	move	a3,zero
    2ba0:	02002821 	move	a1,s0
    2ba4:	0c002753 	jal	0x9d4c
    2ba8:	a2620000 	sb	v0,0(s3)
    2bac:	12000004 	beqz	s0,0x2bc0
    2bb0:	00402021 	move	a0,v0
    2bb4:	0040b021 	move	s6,v0
    2bb8:	1000ffef 	b	0x2b78
    2bbc:	00608021 	move	s0,v1
    2bc0:	2ed60064 	sltiu	s6,s6,100
    2bc4:	52c0fffc 	beqzl	s6,0x2bb8
    2bc8:	0040b021 	move	s6,v0
    2bcc:	8fb00098 	lw	s0,152(sp)
    2bd0:	8fac00c8 	lw	t4,200(sp)
    2bd4:	02207821 	move	t7,s1
    2bd8:	02601021 	move	v0,s3
    2bdc:	02408821 	move	s1,s2
    2be0:	24840030 	addiu	a0,a0,48
    2be4:	2453ffff 	addiu	s3,v0,-1
    2be8:	a044ffff 	sb	a0,-1(v0)
    2bec:	8fa200a0 	lw	v0,160(sp)
    2bf0:	afaf0098 	sw	t7,152(sp)
    2bf4:	00531023 	subu	v0,v0,s3
    2bf8:	1000fe8a 	b	0x2624
    2bfc:	afa200a0 	sw	v0,160(sp)
    2c00:	160000c7 	bnez	s0,0x2f20
    2c04:	8fa200b0 	lw	v0,176(sp)
    2c08:	8fa600b4 	lw	a2,180(sp)
    2c0c:	8fa200b8 	lw	v0,184(sp)
    2c10:	00003821 	move	a3,zero
    2c14:	00c02021 	move	a0,a2
    2c18:	00402821 	move	a1,v0
    2c1c:	00003021 	move	a2,zero
    2c20:	afac00d0 	sw	t4,208(sp)
    2c24:	afa800c8 	sw	t0,200(sp)
    2c28:	afa900ac 	sw	t1,172(sp)
    2c2c:	0c002c39 	jal	0xb0e4
    2c30:	afa300a0 	sw	v1,160(sp)
    2c34:	8fa300a0 	lw	v1,160(sp)
    2c38:	8fa900ac 	lw	t1,172(sp)
    2c3c:	8fa800c8 	lw	t0,200(sp)
    2c40:	1440019a 	bnez	v0,0x32ac
    2c44:	8fac00d0 	lw	t4,208(sp)
    2c48:	3c040001 	lui	a0,0x1
    2c4c:	2484bd00 	addiu	a0,a0,-17152
    2c50:	24630001 	addiu	v1,v1,1
    2c54:	ad840000 	sw	a0,0(t4)
    2c58:	29220008 	slti	v0,t1,8
    2c5c:	24040001 	li	a0,1
    2c60:	ad840004 	sw	a0,4(t4)
    2c64:	afa30078 	sw	v1,120(sp)
    2c68:	104002bf 	beqz	v0,0x3768
    2c6c:	afa90074 	sw	t1,116(sp)
    2c70:	8fa20090 	lw	v0,144(sp)
    2c74:	8fa300b0 	lw	v1,176(sp)
    2c78:	0043102a 	slt	v0,v0,v1
    2c7c:	14400006 	bnez	v0,0x2c98
    2c80:	8fa200c0 	lw	v0,192(sp)
    2c84:	8fa20098 	lw	v0,152(sp)
    2c88:	30420001 	andi	v0,v0,0x1
    2c8c:	1040fe00 	beqz	v0,0x2490
    2c90:	8fa30078 	lw	v1,120(sp)
    2c94:	8fa200c0 	lw	v0,192(sp)
    2c98:	8fa30078 	lw	v1,120(sp)
    2c9c:	8fa500c4 	lw	a1,196(sp)
    2ca0:	ad020000 	sw	v0,0(t0)
    2ca4:	8fa20074 	lw	v0,116(sp)
    2ca8:	00a31821 	addu	v1,a1,v1
    2cac:	ad050004 	sw	a1,4(t0)
    2cb0:	24420001 	addiu	v0,v0,1
    2cb4:	28440008 	slti	a0,v0,8
    2cb8:	afa30078 	sw	v1,120(sp)
    2cbc:	108002bd 	beqz	a0,0x37b4
    2cc0:	afa20074 	sw	v0,116(sp)
    2cc4:	25080008 	addiu	t0,t0,8
    2cc8:	8fa200b0 	lw	v0,176(sp)
    2ccc:	2450ffff 	addiu	s0,v0,-1
    2cd0:	5a00fdf0 	blezl	s0,0x2494
    2cd4:	8fa20098 	lw	v0,152(sp)
    2cd8:	2a040011 	slti	a0,s0,17
    2cdc:	3c070001 	lui	a3,0x1
    2ce0:	24e7be68 	addiu	a3,a3,-16792
    2ce4:	148002d8 	bnez	a0,0x3848
    2ce8:	8fa20074 	lw	v0,116(sp)
    2cec:	24160010 	li	s6,16
    2cf0:	8fb300a4 	lw	s3,164(sp)
    2cf4:	10000006 	b	0x2d10
    2cf8:	00e0f021 	move	s8,a3
    2cfc:	25080008 	addiu	t0,t0,8
    2d00:	2610fff0 	addiu	s0,s0,-16
    2d04:	2a040011 	slti	a0,s0,17
    2d08:	148002cf 	bnez	a0,0x3848
    2d0c:	03c03821 	move	a3,s8
    2d10:	24420001 	addiu	v0,v0,1
    2d14:	24630010 	addiu	v1,v1,16
    2d18:	28440008 	slti	a0,v0,8
    2d1c:	ad1e0000 	sw	s8,0(t0)
    2d20:	ad160004 	sw	s6,4(t0)
    2d24:	afa30078 	sw	v1,120(sp)
    2d28:	1480fff4 	bnez	a0,0x2cfc
    2d2c:	afa20074 	sw	v0,116(sp)
    2d30:	27a60070 	addiu	a2,sp,112
    2d34:	02a02821 	move	a1,s5
    2d38:	0c002070 	jal	0x81c0
    2d3c:	02602021 	move	a0,s3
    2d40:	1440fd66 	bnez	v0,0x22dc
    2d44:	8fa30078 	lw	v1,120(sp)
    2d48:	8fa20074 	lw	v0,116(sp)
    2d4c:	1000ffec 	b	0x2d00
    2d50:	02804021 	move	t0,s4
    2d54:	1ac0fdbf 	blez	s6,0x2454
    2d58:	8fa400a0 	lw	a0,160(sp)
    2d5c:	2ac40011 	slti	a0,s6,17
    2d60:	1480044d 	bnez	a0,0x3e98
    2d64:	01002821 	move	a1,t0
    2d68:	3c070001 	lui	a3,0x1
    2d6c:	24e7be68 	addiu	a3,a3,-16792
    2d70:	afb000ac 	sw	s0,172(sp)
    2d74:	afb100c8 	sw	s1,200(sp)
    2d78:	24080010 	li	t0,16
    2d7c:	02c08821 	move	s1,s6
    2d80:	8fb000a4 	lw	s0,164(sp)
    2d84:	0240b021 	move	s6,s2
    2d88:	10000005 	b	0x2da0
    2d8c:	00e09021 	move	s2,a3
    2d90:	2631fff0 	addiu	s1,s1,-16
    2d94:	2a240011 	slti	a0,s1,17
    2d98:	14800015 	bnez	a0,0x2df0
    2d9c:	258c0008 	addiu	t4,t4,8
    2da0:	24420001 	addiu	v0,v0,1
    2da4:	24630010 	addiu	v1,v1,16
    2da8:	28440008 	slti	a0,v0,8
    2dac:	ad920000 	sw	s2,0(t4)
    2db0:	ad880004 	sw	t0,4(t4)
    2db4:	afa30078 	sw	v1,120(sp)
    2db8:	1480fff5 	bnez	a0,0x2d90
    2dbc:	afa20074 	sw	v0,116(sp)
    2dc0:	27a60070 	addiu	a2,sp,112
    2dc4:	02a02821 	move	a1,s5
    2dc8:	0c002070 	jal	0x81c0
    2dcc:	02002021 	move	a0,s0
    2dd0:	1440fd42 	bnez	v0,0x22dc
    2dd4:	2631fff0 	addiu	s1,s1,-16
    2dd8:	2a240011 	slti	a0,s1,17
    2ddc:	8fa30078 	lw	v1,120(sp)
    2de0:	8fa20074 	lw	v0,116(sp)
    2de4:	02806021 	move	t4,s4
    2de8:	1080ffed 	beqz	a0,0x2da0
    2dec:	24080010 	li	t0,16
    2df0:	02403821 	move	a3,s2
    2df4:	8fb000ac 	lw	s0,172(sp)
    2df8:	02c09021 	move	s2,s6
    2dfc:	0220b021 	move	s6,s1
    2e00:	8fb100c8 	lw	s1,200(sp)
    2e04:	24420001 	addiu	v0,v0,1
    2e08:	25850008 	addiu	a1,t4,8
    2e0c:	00761821 	addu	v1,v1,s6
    2e10:	28440008 	slti	a0,v0,8
    2e14:	ad870000 	sw	a3,0(t4)
    2e18:	ad960004 	sw	s6,4(t4)
    2e1c:	afa30078 	sw	v1,120(sp)
    2e20:	10800259 	beqz	a0,0x3788
    2e24:	afa20074 	sw	v0,116(sp)
    2e28:	8fa400a0 	lw	a0,160(sp)
    2e2c:	24490001 	addiu	t1,v0,1
    2e30:	24a80008 	addiu	t0,a1,8
    2e34:	03c4f023 	subu	s8,s8,a0
    2e38:	1bc0fd89 	blez	s8,0x2460
    2e3c:	00a06021 	move	t4,a1
    2e40:	2bc40011 	slti	a0,s8,17
    2e44:	14800310 	bnez	a0,0x3a88
    2e48:	00000000 	nop
    2e4c:	3c070001 	lui	a3,0x1
    2e50:	24e7be68 	addiu	a3,a3,-16792
    2e54:	afb000ac 	sw	s0,172(sp)
    2e58:	afb100c8 	sw	s1,200(sp)
    2e5c:	24160010 	li	s6,16
    2e60:	03c08821 	move	s1,s8
    2e64:	8fb000a4 	lw	s0,164(sp)
    2e68:	02e0f021 	move	s8,s7
    2e6c:	0240b821 	move	s7,s2
    2e70:	10000005 	b	0x2e88
    2e74:	00e09021 	move	s2,a3
    2e78:	2631fff0 	addiu	s1,s1,-16
    2e7c:	2a240011 	slti	a0,s1,17
    2e80:	14800014 	bnez	a0,0x2ed4
    2e84:	258c0008 	addiu	t4,t4,8
    2e88:	24420001 	addiu	v0,v0,1
    2e8c:	24630010 	addiu	v1,v1,16
    2e90:	28440008 	slti	a0,v0,8
    2e94:	ad920000 	sw	s2,0(t4)
    2e98:	ad960004 	sw	s6,4(t4)
    2e9c:	afa30078 	sw	v1,120(sp)
    2ea0:	1480fff5 	bnez	a0,0x2e78
    2ea4:	afa20074 	sw	v0,116(sp)
    2ea8:	27a60070 	addiu	a2,sp,112
    2eac:	02a02821 	move	a1,s5
    2eb0:	0c002070 	jal	0x81c0
    2eb4:	02002021 	move	a0,s0
    2eb8:	1440fd08 	bnez	v0,0x22dc
    2ebc:	2631fff0 	addiu	s1,s1,-16
    2ec0:	2a240011 	slti	a0,s1,17
    2ec4:	8fa30078 	lw	v1,120(sp)
    2ec8:	8fa20074 	lw	v0,116(sp)
    2ecc:	1080ffee 	beqz	a0,0x2e88
    2ed0:	02806021 	move	t4,s4
    2ed4:	02403821 	move	a3,s2
    2ed8:	8fb000ac 	lw	s0,172(sp)
    2edc:	02e09021 	move	s2,s7
    2ee0:	03c0b821 	move	s7,s8
    2ee4:	0220f021 	move	s8,s1
    2ee8:	8fb100c8 	lw	s1,200(sp)
    2eec:	24490001 	addiu	t1,v0,1
    2ef0:	25840008 	addiu	a0,t4,8
    2ef4:	007e1821 	addu	v1,v1,s8
    2ef8:	29220008 	slti	v0,t1,8
    2efc:	ad870000 	sw	a3,0(t4)
    2f00:	ad9e0004 	sw	s8,4(t4)
    2f04:	afa30078 	sw	v1,120(sp)
    2f08:	1040013d 	beqz	v0,0x3400
    2f0c:	afa90074 	sw	t1,116(sp)
    2f10:	25290001 	addiu	t1,t1,1
    2f14:	24880008 	addiu	t0,a0,8
    2f18:	1000fd51 	b	0x2460
    2f1c:	00806021 	move	t4,a0
    2f20:	28420002 	slti	v0,v0,2
    2f24:	14400103 	bnez	v0,0x3334
    2f28:	24700001 	addiu	s0,v1,1
    2f2c:	24030001 	li	v1,1
    2f30:	29220008 	slti	v0,t1,8
    2f34:	ad930000 	sw	s3,0(t4)
    2f38:	ad830004 	sw	v1,4(t4)
    2f3c:	afb00078 	sw	s0,120(sp)
    2f40:	1040013f 	beqz	v0,0x3440
    2f44:	afa90074 	sw	t1,116(sp)
    2f48:	8fa300c4 	lw	v1,196(sp)
    2f4c:	8fa400c0 	lw	a0,192(sp)
    2f50:	253e0001 	addiu	s8,t1,1
    2f54:	02038021 	addu	s0,s0,v1
    2f58:	2bc20008 	slti	v0,s8,8
    2f5c:	ad040000 	sw	a0,0(t0)
    2f60:	ad030004 	sw	v1,4(t0)
    2f64:	afb00078 	sw	s0,120(sp)
    2f68:	10400147 	beqz	v0,0x3488
    2f6c:	afbe0074 	sw	s8,116(sp)
    2f70:	25160008 	addiu	s6,t0,8
    2f74:	8fa200b8 	lw	v0,184(sp)
    2f78:	8fa300b4 	lw	v1,180(sp)
    2f7c:	27c90001 	addiu	t1,s8,1
    2f80:	00402821 	move	a1,v0
    2f84:	8fa200b0 	lw	v0,176(sp)
    2f88:	26c80008 	addiu	t0,s6,8
    2f8c:	00602021 	move	a0,v1
    2f90:	00003021 	move	a2,zero
    2f94:	2443ffff 	addiu	v1,v0,-1
    2f98:	00003821 	move	a3,zero
    2f9c:	afa900d0 	sw	t1,208(sp)
    2fa0:	afa900c8 	sw	t1,200(sp)
    2fa4:	afa800ac 	sw	t0,172(sp)
    2fa8:	0c002c56 	jal	0xb158
    2fac:	afa300a0 	sw	v1,160(sp)
    2fb0:	8fa300a0 	lw	v1,160(sp)
    2fb4:	8fa800ac 	lw	t0,172(sp)
    2fb8:	8fab00c8 	lw	t3,200(sp)
    2fbc:	104000eb 	beqz	v0,0x336c
    2fc0:	8fa900d0 	lw	t1,208(sp)
    2fc4:	266a0001 	addiu	t2,s3,1
    2fc8:	02038021 	addu	s0,s0,v1
    2fcc:	29620008 	slti	v0,t3,8
    2fd0:	aeca0000 	sw	t2,0(s6)
    2fd4:	aec30004 	sw	v1,4(s6)
    2fd8:	afb00078 	sw	s0,120(sp)
    2fdc:	104001a0 	beqz	v0,0x3660
    2fe0:	afab0074 	sw	t3,116(sp)
    2fe4:	26c20010 	addiu	v0,s6,16
    2fe8:	27cb0002 	addiu	t3,s8,2
    2fec:	0100b021 	move	s6,t0
    2ff0:	00404021 	move	t0,v0
    2ff4:	8fa500cc 	lw	a1,204(sp)
    2ff8:	27a40084 	addiu	a0,sp,132
    2ffc:	29620008 	slti	v0,t3,8
    3000:	00b01821 	addu	v1,a1,s0
    3004:	aec40000 	sw	a0,0(s6)
    3008:	aec50004 	sw	a1,4(s6)
    300c:	afa30078 	sw	v1,120(sp)
    3010:	1440fd1f 	bnez	v0,0x2490
    3014:	afab0074 	sw	t3,116(sp)
    3018:	8fa400a4 	lw	a0,164(sp)
    301c:	27a60070 	addiu	a2,sp,112
    3020:	0c002070 	jal	0x81c0
    3024:	02a02821 	move	a1,s5
    3028:	1440fcac 	bnez	v0,0x22dc
    302c:	8fa30078 	lw	v1,120(sp)
    3030:	1000fd17 	b	0x2490
    3034:	02804021 	move	t0,s4
    3038:	1000fe70 	b	0x29fc
    303c:	8faf0098 	lw	t7,152(sp)
    3040:	3c070001 	lui	a3,0x1
    3044:	24e7be78 	addiu	a3,a3,-16776
    3048:	5480002b 	bnezl	a0,0x30f8
    304c:	24420001 	addiu	v0,v0,1
    3050:	afb000d0 	sw	s0,208(sp)
    3054:	afb100d4 	sw	s1,212(sp)
    3058:	02c08021 	move	s0,s6
    305c:	24080010 	li	t0,16
    3060:	0240b021 	move	s6,s2
    3064:	afaf00ac 	sw	t7,172(sp)
    3068:	afab00c8 	sw	t3,200(sp)
    306c:	8fb100a4 	lw	s1,164(sp)
    3070:	10000005 	b	0x3088
    3074:	00e09021 	move	s2,a3
    3078:	2610fff0 	addiu	s0,s0,-16
    307c:	2a040011 	slti	a0,s0,17
    3080:	14800015 	bnez	a0,0x30d8
    3084:	258c0008 	addiu	t4,t4,8
    3088:	24420001 	addiu	v0,v0,1
    308c:	24630010 	addiu	v1,v1,16
    3090:	28440008 	slti	a0,v0,8
    3094:	ad920000 	sw	s2,0(t4)
    3098:	ad880004 	sw	t0,4(t4)
    309c:	afa30078 	sw	v1,120(sp)
    30a0:	1480fff5 	bnez	a0,0x3078
    30a4:	afa20074 	sw	v0,116(sp)
    30a8:	27a60070 	addiu	a2,sp,112
    30ac:	02a02821 	move	a1,s5
    30b0:	0c002070 	jal	0x81c0
    30b4:	02202021 	move	a0,s1
    30b8:	1440fc88 	bnez	v0,0x22dc
    30bc:	2610fff0 	addiu	s0,s0,-16
    30c0:	2a040011 	slti	a0,s0,17
    30c4:	8fa30078 	lw	v1,120(sp)
    30c8:	8fa20074 	lw	v0,116(sp)
    30cc:	02806021 	move	t4,s4
    30d0:	1080ffed 	beqz	a0,0x3088
    30d4:	24080010 	li	t0,16
    30d8:	02403821 	move	a3,s2
    30dc:	8faf00ac 	lw	t7,172(sp)
    30e0:	02c09021 	move	s2,s6
    30e4:	8fab00c8 	lw	t3,200(sp)
    30e8:	0200b021 	move	s6,s0
    30ec:	8fb100d4 	lw	s1,212(sp)
    30f0:	8fb000d0 	lw	s0,208(sp)
    30f4:	24420001 	addiu	v0,v0,1
    30f8:	00761821 	addu	v1,v1,s6
    30fc:	28440008 	slti	a0,v0,8
    3100:	ad870000 	sw	a3,0(t4)
    3104:	ad960004 	sw	s6,4(t4)
    3108:	afa30078 	sw	v1,120(sp)
    310c:	1080015f 	beqz	a0,0x368c
    3110:	afa20074 	sw	v0,116(sp)
    3114:	1000fca9 	b	0x23bc
    3118:	258c0008 	addiu	t4,t4,8
    311c:	8fa400a4 	lw	a0,164(sp)
    3120:	27a60070 	addiu	a2,sp,112
    3124:	02a02821 	move	a1,s5
    3128:	afab00c8 	sw	t3,200(sp)
    312c:	0c002070 	jal	0x81c0
    3130:	afaf00ac 	sw	t7,172(sp)
    3134:	1440fc69 	bnez	v0,0x22dc
    3138:	8fa20074 	lw	v0,116(sp)
    313c:	8fa30078 	lw	v1,120(sp)
    3140:	27a80010 	addiu	t0,sp,16
    3144:	24490001 	addiu	t1,v0,1
    3148:	02806021 	move	t4,s4
    314c:	8fab00c8 	lw	t3,200(sp)
    3150:	1000fcad 	b	0x2408
    3154:	8faf00ac 	lw	t7,172(sp)
    3158:	8fa400a4 	lw	a0,164(sp)
    315c:	27a60070 	addiu	a2,sp,112
    3160:	02a02821 	move	a1,s5
    3164:	0c002070 	jal	0x81c0
    3168:	afab00ac 	sw	t3,172(sp)
    316c:	1440fc5b 	bnez	v0,0x22dc
    3170:	8fa20074 	lw	v0,116(sp)
    3174:	8fa30078 	lw	v1,120(sp)
    3178:	27a80010 	addiu	t0,sp,16
    317c:	24490001 	addiu	t1,v0,1
    3180:	02806021 	move	t4,s4
    3184:	1000fcaf 	b	0x2444
    3188:	8fab00ac 	lw	t3,172(sp)
    318c:	3c070001 	lui	a3,0x1
    3190:	24e7be78 	addiu	a3,a3,-16776
    3194:	1480001d 	bnez	a0,0x320c
    3198:	8fa20074 	lw	v0,116(sp)
    319c:	24130010 	li	s3,16
    31a0:	8fb600a4 	lw	s6,164(sp)
    31a4:	10000005 	b	0x31bc
    31a8:	00e0f021 	move	s8,a3
    31ac:	2610fff0 	addiu	s0,s0,-16
    31b0:	2a040011 	slti	a0,s0,17
    31b4:	14800014 	bnez	a0,0x3208
    31b8:	25080008 	addiu	t0,t0,8
    31bc:	24420001 	addiu	v0,v0,1
    31c0:	24630010 	addiu	v1,v1,16
    31c4:	28440008 	slti	a0,v0,8
    31c8:	ad1e0000 	sw	s8,0(t0)
    31cc:	ad130004 	sw	s3,4(t0)
    31d0:	afa30078 	sw	v1,120(sp)
    31d4:	1480fff5 	bnez	a0,0x31ac
    31d8:	afa20074 	sw	v0,116(sp)
    31dc:	27a60070 	addiu	a2,sp,112
    31e0:	02a02821 	move	a1,s5
    31e4:	0c002070 	jal	0x81c0
    31e8:	02c02021 	move	a0,s6
    31ec:	1440fc3b 	bnez	v0,0x22dc
    31f0:	2610fff0 	addiu	s0,s0,-16
    31f4:	2a040011 	slti	a0,s0,17
    31f8:	8fa30078 	lw	v1,120(sp)
    31fc:	8fa20074 	lw	v0,116(sp)
    3200:	1080ffee 	beqz	a0,0x31bc
    3204:	02804021 	move	t0,s4
    3208:	03c03821 	move	a3,s8
    320c:	24420001 	addiu	v0,v0,1
    3210:	00701821 	addu	v1,v1,s0
    3214:	28440008 	slti	a0,v0,8
    3218:	ad070000 	sw	a3,0(t0)
    321c:	ad100004 	sw	s0,4(t0)
    3220:	afa30078 	sw	v1,120(sp)
    3224:	1480fca1 	bnez	a0,0x24ac
    3228:	afa20074 	sw	v0,116(sp)
    322c:	8fa400a4 	lw	a0,164(sp)
    3230:	27a60070 	addiu	a2,sp,112
    3234:	0c002070 	jal	0x81c0
    3238:	02a02821 	move	a1,s5
    323c:	1440fc27 	bnez	v0,0x22dc
    3240:	8fa30078 	lw	v1,120(sp)
    3244:	1000fc9a 	b	0x24b0
    3248:	8fa2009c 	lw	v0,156(sp)
    324c:	10430316 	beq	v0,v1,0x3ea8
    3250:	24030002 	li	v1,2
    3254:	1443fdee 	bne	v0,v1,0x2a10
    3258:	8faf0098 	lw	t7,152(sp)
    325c:	8fa500bc 	lw	a1,188(sp)
    3260:	27a20070 	addiu	v0,sp,112
    3264:	afa200a0 	sw	v0,160(sp)
    3268:	00409821 	move	s3,v0
    326c:	32c2000f 	andi	v0,s6,0xf
    3270:	00a21021 	addu	v0,a1,v0
    3274:	00122700 	sll	a0,s2,0x1c
    3278:	90430000 	lbu	v1,0(v0)
    327c:	0016b102 	srl	s6,s6,0x4
    3280:	0096b025 	or	s6,a0,s6
    3284:	00129102 	srl	s2,s2,0x4
    3288:	2673ffff 	addiu	s3,s3,-1
    328c:	02d21025 	or	v0,s6,s2
    3290:	1440fff6 	bnez	v0,0x326c
    3294:	a2630000 	sb	v1,0(s3)
    3298:	8fa200a0 	lw	v0,160(sp)
    329c:	afaf0098 	sw	t7,152(sp)
    32a0:	00531023 	subu	v0,v0,s3
    32a4:	1000fcdf 	b	0x2624
    32a8:	afa200a0 	sw	v0,160(sp)
    32ac:	8fa20090 	lw	v0,144(sp)
    32b0:	18400103 	blez	v0,0x36c0
    32b4:	8fa500b0 	lw	a1,176(sp)
    32b8:	0045202a 	slt	a0,v0,a1
    32bc:	548000b0 	bnezl	a0,0x3580
    32c0:	00431821 	addu	v1,v0,v1
    32c4:	00a31821 	addu	v1,a1,v1
    32c8:	29240008 	slti	a0,t1,8
    32cc:	ad930000 	sw	s3,0(t4)
    32d0:	ad850004 	sw	a1,4(t4)
    32d4:	afa30078 	sw	v1,120(sp)
    32d8:	108002a4 	beqz	a0,0x3d6c
    32dc:	afa90074 	sw	t1,116(sp)
    32e0:	8fa400b0 	lw	a0,176(sp)
    32e4:	00448023 	subu	s0,v0,a0
    32e8:	1e00026e 	bgtz	s0,0x3ca4
    32ec:	2a040011 	slti	a0,s0,17
    32f0:	8fa20098 	lw	v0,152(sp)
    32f4:	30420001 	andi	v0,v0,0x1
    32f8:	1040fc66 	beqz	v0,0x2494
    32fc:	8fa20098 	lw	v0,152(sp)
    3300:	8fa200c0 	lw	v0,192(sp)
    3304:	8fa500c4 	lw	a1,196(sp)
    3308:	ad020000 	sw	v0,0(t0)
    330c:	8fa20074 	lw	v0,116(sp)
    3310:	00651821 	addu	v1,v1,a1
    3314:	ad050004 	sw	a1,4(t0)
    3318:	24420001 	addiu	v0,v0,1
    331c:	28440008 	slti	a0,v0,8
    3320:	afa30078 	sw	v1,120(sp)
    3324:	1080ff3c 	beqz	a0,0x3018
    3328:	afa20074 	sw	v0,116(sp)
    332c:	1000fc58 	b	0x2490
    3330:	25080008 	addiu	t0,t0,8
    3334:	8fa20098 	lw	v0,152(sp)
    3338:	30420001 	andi	v0,v0,0x1
    333c:	1440fefc 	bnez	v0,0x2f30
    3340:	24030001 	li	v1,1
    3344:	29220008 	slti	v0,t1,8
    3348:	ad930000 	sw	s3,0(t4)
    334c:	ad830004 	sw	v1,4(t4)
    3350:	afb00078 	sw	s0,120(sp)
    3354:	104000c2 	beqz	v0,0x3660
    3358:	afa90074 	sw	t1,116(sp)
    335c:	0100b021 	move	s6,t0
    3360:	252b0001 	addiu	t3,t1,1
    3364:	1000ff23 	b	0x2ff4
    3368:	25080008 	addiu	t0,t0,8
    336c:	1860ff22 	blez	v1,0x2ff8
    3370:	8fa500cc 	lw	a1,204(sp)
    3374:	28620011 	slti	v0,v1,17
    3378:	14400312 	bnez	v0,0x3fc4
    337c:	02001021 	move	v0,s0
    3380:	3c070001 	lui	a3,0x1
    3384:	24e7be68 	addiu	a3,a3,-16792
    3388:	afb100a0 	sw	s1,160(sp)
    338c:	afb200ac 	sw	s2,172(sp)
    3390:	24130010 	li	s3,16
    3394:	00608821 	move	s1,v1
    3398:	8fb000a4 	lw	s0,164(sp)
    339c:	0120f021 	move	s8,t1
    33a0:	10000007 	b	0x33c0
    33a4:	00e09021 	move	s2,a3
    33a8:	26d60008 	addiu	s6,s6,8
    33ac:	2631fff0 	addiu	s1,s1,-16
    33b0:	2a240011 	slti	a0,s1,17
    33b4:	14800113 	bnez	a0,0x3804
    33b8:	02201821 	move	v1,s1
    33bc:	27de0001 	addiu	s8,s8,1
    33c0:	24420010 	addiu	v0,v0,16
    33c4:	2bc40008 	slti	a0,s8,8
    33c8:	aed20000 	sw	s2,0(s6)
    33cc:	aed30004 	sw	s3,4(s6)
    33d0:	afa20078 	sw	v0,120(sp)
    33d4:	1480fff4 	bnez	a0,0x33a8
    33d8:	afbe0074 	sw	s8,116(sp)
    33dc:	27a60070 	addiu	a2,sp,112
    33e0:	02a02821 	move	a1,s5
    33e4:	0c002070 	jal	0x81c0
    33e8:	02002021 	move	a0,s0
    33ec:	1440fbbb 	bnez	v0,0x22dc
    33f0:	8fa20078 	lw	v0,120(sp)
    33f4:	8fbe0074 	lw	s8,116(sp)
    33f8:	1000ffec 	b	0x33ac
    33fc:	0280b021 	move	s6,s4
    3400:	8fa400a4 	lw	a0,164(sp)
    3404:	27a60070 	addiu	a2,sp,112
    3408:	0c002070 	jal	0x81c0
    340c:	02a02821 	move	a1,s5
    3410:	1440fbb2 	bnez	v0,0x22dc
    3414:	8fa90074 	lw	t1,116(sp)
    3418:	8fa30078 	lw	v1,120(sp)
    341c:	27a80010 	addiu	t0,sp,16
    3420:	25290001 	addiu	t1,t1,1
    3424:	1000fc0e 	b	0x2460
    3428:	02806021 	move	t4,s4
    342c:	0100b021 	move	s6,t0
    3430:	1000fc65 	b	0x25c8
    3434:	00009021 	move	s2,zero
    3438:	1000fb76 	b	0x2214
    343c:	02e08821 	move	s1,s7
    3440:	8fa400a4 	lw	a0,164(sp)
    3444:	27a60070 	addiu	a2,sp,112
    3448:	0c002070 	jal	0x81c0
    344c:	02a02821 	move	a1,s5
    3450:	1440fba2 	bnez	v0,0x22dc
    3454:	8fa90074 	lw	t1,116(sp)
    3458:	8fb00078 	lw	s0,120(sp)
    345c:	8fa300c4 	lw	v1,196(sp)
    3460:	8fa400c0 	lw	a0,192(sp)
    3464:	253e0001 	addiu	s8,t1,1
    3468:	02804021 	move	t0,s4
    346c:	02038021 	addu	s0,s0,v1
    3470:	2bc20008 	slti	v0,s8,8
    3474:	ad040000 	sw	a0,0(t0)
    3478:	ad030004 	sw	v1,4(t0)
    347c:	afb00078 	sw	s0,120(sp)
    3480:	1440febb 	bnez	v0,0x2f70
    3484:	afbe0074 	sw	s8,116(sp)
    3488:	8fa400a4 	lw	a0,164(sp)
    348c:	27a60070 	addiu	a2,sp,112
    3490:	0c002070 	jal	0x81c0
    3494:	02a02821 	move	a1,s5
    3498:	1440fb90 	bnez	v0,0x22dc
    349c:	8fb00078 	lw	s0,120(sp)
    34a0:	8fbe0074 	lw	s8,116(sp)
    34a4:	1000feb3 	b	0x2f74
    34a8:	0280b021 	move	s6,s4
    34ac:	24020030 	li	v0,48
    34b0:	a3a2006f 	sb	v0,111(sp)
    34b4:	1000fc5b 	b	0x2624
    34b8:	27b3006f 	addiu	s3,sp,111
    34bc:	8fa300b4 	lw	v1,180(sp)
    34c0:	8fa200b8 	lw	v0,184(sp)
    34c4:	afac00a0 	sw	t4,160(sp)
    34c8:	00602021 	move	a0,v1
    34cc:	00402821 	move	a1,v0
    34d0:	0c001f74 	jal	0x7dd0
    34d4:	afaf0098 	sw	t7,152(sp)
    34d8:	8faf0098 	lw	t7,152(sp)
    34dc:	144000ec 	bnez	v0,0x3890
    34e0:	8fac00a0 	lw	t4,160(sp)
    34e4:	2a0a0048 	slti	t2,s0,72
    34e8:	3c030001 	lui	v1,0x1
    34ec:	2463bcc8 	addiu	v1,v1,-17208
    34f0:	3c020001 	lui	v0,0x1
    34f4:	2442bccc 	addiu	v0,v0,-17204
    34f8:	006a100b 	movn	v0,v1,t2
    34fc:	00409821 	move	s3,v0
    3500:	2402ff7f 	li	v0,-129
    3504:	01e21024 	and	v0,t7,v0
    3508:	afa20098 	sw	v0,152(sp)
    350c:	83a20096 	lb	v0,150(sp)
    3510:	0000f021 	move	s8,zero
    3514:	24120003 	li	s2,3
    3518:	afa200ac 	sw	v0,172(sp)
    351c:	24020003 	li	v0,3
    3520:	1000fc42 	b	0x262c
    3524:	afa200a0 	sw	v0,160(sp)
    3528:	8fa5009c 	lw	a1,156(sp)
    352c:	8c820000 	lw	v0,0(a0)
    3530:	afa300a8 	sw	v1,168(sp)
    3534:	000527c3 	sra	a0,a1,0x1f
    3538:	ac450000 	sw	a1,0(v0)
    353c:	1000fb16 	b	0x2198
    3540:	ac440004 	sw	a0,4(v0)
    3544:	31e30010 	andi	v1,t7,0x10
    3548:	1460fd1a 	bnez	v1,0x29b4
    354c:	24420004 	addiu	v0,v0,4
    3550:	31e30040 	andi	v1,t7,0x40
    3554:	1060fd18 	beqz	v1,0x29b8
    3558:	8fa300a8 	lw	v1,168(sp)
    355c:	afa200a8 	sw	v0,168(sp)
    3560:	84760000 	lh	s6,0(v1)
    3564:	001697c3 	sra	s2,s6,0x1f
    3568:	1000fc6e 	b	0x2724
    356c:	02401821 	move	v1,s2
    3570:	a3a30094 	sb	v1,148(sp)
    3574:	a3b00095 	sb	s0,149(sp)
    3578:	1000fc19 	b	0x25e0
    357c:	35ef0002 	ori	t7,t7,0x2
    3580:	29240008 	slti	a0,t1,8
    3584:	ad930000 	sw	s3,0(t4)
    3588:	ad820004 	sw	v0,4(t4)
    358c:	afa30078 	sw	v1,120(sp)
    3590:	108001ec 	beqz	a0,0x3d44
    3594:	afa90074 	sw	t1,116(sp)
    3598:	8fa500c4 	lw	a1,196(sp)
    359c:	8fa600c0 	lw	a2,192(sp)
    35a0:	25290001 	addiu	t1,t1,1
    35a4:	00651821 	addu	v1,v1,a1
    35a8:	29240008 	slti	a0,t1,8
    35ac:	02629821 	addu	s3,s3,v0
    35b0:	ad060000 	sw	a2,0(t0)
    35b4:	ad050004 	sw	a1,4(t0)
    35b8:	afa30078 	sw	v1,120(sp)
    35bc:	108001d7 	beqz	a0,0x3d1c
    35c0:	afa90074 	sw	t1,116(sp)
    35c4:	25080008 	addiu	t0,t0,8
    35c8:	8fa400b0 	lw	a0,176(sp)
    35cc:	25290001 	addiu	t1,t1,1
    35d0:	ad130000 	sw	s3,0(t0)
    35d4:	00821023 	subu	v0,a0,v0
    35d8:	00431821 	addu	v1,v0,v1
    35dc:	29240008 	slti	a0,t1,8
    35e0:	ad020004 	sw	v0,4(t0)
    35e4:	afa30078 	sw	v1,120(sp)
    35e8:	1080fe8b 	beqz	a0,0x3018
    35ec:	afa90074 	sw	t1,116(sp)
    35f0:	1000fba7 	b	0x2490
    35f4:	25080008 	addiu	t0,t0,8
    35f8:	02602021 	move	a0,s3
    35fc:	afac00c8 	sw	t4,200(sp)
    3600:	0c000331 	jal	0xcc4
    3604:	afaf0098 	sw	t7,152(sp)
    3608:	83a30096 	lb	v1,150(sp)
    360c:	00009021 	move	s2,zero
    3610:	afa200a0 	sw	v0,160(sp)
    3614:	afa300ac 	sw	v1,172(sp)
    3618:	0052902c 	max	s2,v0,s2
    361c:	afb600a8 	sw	s6,168(sp)
    3620:	0000f021 	move	s8,zero
    3624:	1000fc01 	b	0x262c
    3628:	8fac00c8 	lw	t4,200(sp)
    362c:	0c0005af 	jal	0x16bc
    3630:	24050040 	li	a1,64
    3634:	aea20000 	sw	v0,0(s5)
    3638:	1040027a 	beqz	v0,0x4024
    363c:	aea20010 	sw	v0,16(s5)
    3640:	24020040 	li	v0,64
    3644:	1000fac8 	b	0x2168
    3648:	aea20014 	sw	v0,20(s5)
    364c:	8c420000 	lw	v0,0(v0)
    3650:	afa300a8 	sw	v1,168(sp)
    3654:	8fa3009c 	lw	v1,156(sp)
    3658:	1000facf 	b	0x2198
    365c:	ac430000 	sw	v1,0(v0)
    3660:	8fa400a4 	lw	a0,164(sp)
    3664:	27a60070 	addiu	a2,sp,112
    3668:	0c002070 	jal	0x81c0
    366c:	02a02821 	move	a1,s5
    3670:	1440fb1a 	bnez	v0,0x22dc
    3674:	8fa90074 	lw	t1,116(sp)
    3678:	8fb00078 	lw	s0,120(sp)
    367c:	27a80010 	addiu	t0,sp,16
    3680:	252b0001 	addiu	t3,t1,1
    3684:	1000fe5b 	b	0x2ff4
    3688:	0280b021 	move	s6,s4
    368c:	8fa400a4 	lw	a0,164(sp)
    3690:	27a60070 	addiu	a2,sp,112
    3694:	02a02821 	move	a1,s5
    3698:	afab00c8 	sw	t3,200(sp)
    369c:	0c002070 	jal	0x81c0
    36a0:	afaf00ac 	sw	t7,172(sp)
    36a4:	1440fb0d 	bnez	v0,0x22dc
    36a8:	8fa30078 	lw	v1,120(sp)
    36ac:	8fa20074 	lw	v0,116(sp)
    36b0:	02806021 	move	t4,s4
    36b4:	8fab00c8 	lw	t3,200(sp)
    36b8:	1000fb40 	b	0x23bc
    36bc:	8faf00ac 	lw	t7,172(sp)
    36c0:	3c050001 	lui	a1,0x1
    36c4:	24a5bd00 	addiu	a1,a1,-17152
    36c8:	24630001 	addiu	v1,v1,1
    36cc:	ad850000 	sw	a1,0(t4)
    36d0:	29240008 	slti	a0,t1,8
    36d4:	24050001 	li	a1,1
    36d8:	ad850004 	sw	a1,4(t4)
    36dc:	afa30078 	sw	v1,120(sp)
    36e0:	108000f2 	beqz	a0,0x3aac
    36e4:	afa90074 	sw	t1,116(sp)
    36e8:	8fa40098 	lw	a0,152(sp)
    36ec:	8fa500b0 	lw	a1,176(sp)
    36f0:	30840001 	andi	a0,a0,0x1
    36f4:	00852025 	or	a0,a0,a1
    36f8:	00822025 	or	a0,a0,v0
    36fc:	5080fb65 	beqzl	a0,0x2494
    3700:	8fa20098 	lw	v0,152(sp)
    3704:	8fa400c0 	lw	a0,192(sp)
    3708:	8fa600c4 	lw	a2,196(sp)
    370c:	ad040000 	sw	a0,0(t0)
    3710:	8fa40074 	lw	a0,116(sp)
    3714:	00661821 	addu	v1,v1,a2
    3718:	ad060004 	sw	a2,4(t0)
    371c:	24840001 	addiu	a0,a0,1
    3720:	28850008 	slti	a1,a0,8
    3724:	afa30078 	sw	v1,120(sp)
    3728:	10a000e9 	beqz	a1,0x3ad0
    372c:	afa40074 	sw	a0,116(sp)
    3730:	25080008 	addiu	t0,t0,8
    3734:	044001ae 	bltz	v0,0x3df0
    3738:	2845fff0 	slti	a1,v0,-16
    373c:	8fa500b0 	lw	a1,176(sp)
    3740:	24840001 	addiu	a0,a0,1
    3744:	28820008 	slti	v0,a0,8
    3748:	00a31821 	addu	v1,a1,v1
    374c:	ad130000 	sw	s3,0(t0)
    3750:	ad050004 	sw	a1,4(t0)
    3754:	afa30078 	sw	v1,120(sp)
    3758:	1040fe2f 	beqz	v0,0x3018
    375c:	afa40074 	sw	a0,116(sp)
    3760:	1000fb4b 	b	0x2490
    3764:	25080008 	addiu	t0,t0,8
    3768:	8fa400a4 	lw	a0,164(sp)
    376c:	27a60070 	addiu	a2,sp,112
    3770:	0c002070 	jal	0x81c0
    3774:	02a02821 	move	a1,s5
    3778:	1440fad8 	bnez	v0,0x22dc
    377c:	02804021 	move	t0,s4
    3780:	1000fd3c 	b	0x2c74
    3784:	8fa20090 	lw	v0,144(sp)
    3788:	8fa400a4 	lw	a0,164(sp)
    378c:	27a60070 	addiu	a2,sp,112
    3790:	0c002070 	jal	0x81c0
    3794:	02a02821 	move	a1,s5
    3798:	1440fad0 	bnez	v0,0x22dc
    379c:	8fa20074 	lw	v0,116(sp)
    37a0:	8fa30078 	lw	v1,120(sp)
    37a4:	27a80010 	addiu	t0,sp,16
    37a8:	24490001 	addiu	t1,v0,1
    37ac:	1000fb28 	b	0x2450
    37b0:	02806021 	move	t4,s4
    37b4:	8fa400a4 	lw	a0,164(sp)
    37b8:	27a60070 	addiu	a2,sp,112
    37bc:	0c002070 	jal	0x81c0
    37c0:	02a02821 	move	a1,s5
    37c4:	1440fac5 	bnez	v0,0x22dc
    37c8:	8fa30078 	lw	v1,120(sp)
    37cc:	1000fd3e 	b	0x2cc8
    37d0:	02804021 	move	t0,s4
    37d4:	35ef0020 	ori	t7,t7,0x20
    37d8:	1000fa99 	b	0x2240
    37dc:	26f70001 	addiu	s7,s7,1
    37e0:	2fc30007 	sltiu	v1,s8,7
    37e4:	24020006 	li	v0,6
    37e8:	03c3100b 	movn	v0,s8,v1
    37ec:	afa200a0 	sw	v0,160(sp)
    37f0:	00409021 	move	s2,v0
    37f4:	3c130001 	lui	s3,0x1
    37f8:	2673bcf8 	addiu	s3,s3,-17160
    37fc:	1000fae3 	b	0x238c
    3800:	afb600a8 	sw	s6,168(sp)
    3804:	02403821 	move	a3,s2
    3808:	8fb100a0 	lw	s1,160(sp)
    380c:	8fb200ac 	lw	s2,172(sp)
    3810:	00408021 	move	s0,v0
    3814:	27cb0001 	addiu	t3,s8,1
    3818:	26c40008 	addiu	a0,s6,8
    381c:	02038021 	addu	s0,s0,v1
    3820:	29620008 	slti	v0,t3,8
    3824:	aec70000 	sw	a3,0(s6)
    3828:	aec30004 	sw	v1,4(s6)
    382c:	afb00078 	sw	s0,120(sp)
    3830:	1040ff8b 	beqz	v0,0x3660
    3834:	afab0074 	sw	t3,116(sp)
    3838:	256b0001 	addiu	t3,t3,1
    383c:	24880008 	addiu	t0,a0,8
    3840:	1000fdec 	b	0x2ff4
    3844:	0080b021 	move	s6,a0
    3848:	24420001 	addiu	v0,v0,1
    384c:	00701821 	addu	v1,v1,s0
    3850:	28440008 	slti	a0,v0,8
    3854:	ad070000 	sw	a3,0(t0)
    3858:	ad100004 	sw	s0,4(t0)
    385c:	afa30078 	sw	v1,120(sp)
    3860:	1080fded 	beqz	a0,0x3018
    3864:	afa20074 	sw	v0,116(sp)
    3868:	1000fb09 	b	0x2490
    386c:	25080008 	addiu	t0,t0,8
    3870:	0100b021 	move	s6,t0
    3874:	00009021 	move	s2,zero
    3878:	1000fb59 	b	0x25e0
    387c:	00001021 	move	v0,zero
    3880:	0100b021 	move	s6,t0
    3884:	00009021 	move	s2,zero
    3888:	1000fb55 	b	0x25e0
    388c:	24020001 	li	v0,1
    3890:	2403ffdf 	li	v1,-33
    3894:	02031824 	and	v1,s0,v1
    3898:	2402ffff 	li	v0,-1
    389c:	13c2017c 	beq	s8,v0,0x3e90
    38a0:	afa300ac 	sw	v1,172(sp)
    38a4:	24020047 	li	v0,71
    38a8:	50620001 	beql	v1,v0,0x38b0
    38ac:	025ef00a 	movz	s8,s2,s8
    38b0:	35e20100 	ori	v0,t7,0x100
    38b4:	afa20098 	sw	v0,152(sp)
    38b8:	8fa200b8 	lw	v0,184(sp)
    38bc:	0440008e 	bltz	v0,0x3af8
    38c0:	3c128000 	lui	s2,0x8000
    38c4:	8fb200b8 	lw	s2,184(sp)
    38c8:	afa000c8 	sw	zero,200(sp)
    38cc:	24020066 	li	v0,102
    38d0:	1202009d 	beq	s0,v0,0x3b48
    38d4:	24020046 	li	v0,70
    38d8:	1202009b 	beq	s0,v0,0x3b48
    38dc:	8fa300ac 	lw	v1,172(sp)
    38e0:	24020045 	li	v0,69
    38e4:	afac00b0 	sw	t4,176(sp)
    38e8:	10620174 	beq	v1,v0,0x3ebc
    38ec:	afaf00a0 	sw	t7,160(sp)
    38f0:	8fa300b4 	lw	v1,180(sp)
    38f4:	8fa400a4 	lw	a0,164(sp)
    38f8:	27a2007c 	addiu	v0,sp,124
    38fc:	00603021 	move	a2,v1
    3900:	02403821 	move	a3,s2
    3904:	afa20000 	sw	v0,0(sp)
    3908:	27ab008c 	addiu	t3,sp,140
    390c:	27aa0090 	addiu	t2,sp,144
    3910:	03c04821 	move	t1,s8
    3914:	0c0012b1 	jal	0x4ac4
    3918:	24080002 	li	t0,2
    391c:	00409821 	move	s3,v0
    3920:	24020067 	li	v0,103
    3924:	8faf00a0 	lw	t7,160(sp)
    3928:	8fac00b0 	lw	t4,176(sp)
    392c:	16020172 	bne	s0,v0,0x3ef8
    3930:	03c0b021 	move	s6,s8
    3934:	31e20001 	andi	v0,t7,0x1
    3938:	144000a6 	bnez	v0,0x3bd4
    393c:	0276b021 	addu	s6,s3,s6
    3940:	8fa30090 	lw	v1,144(sp)
    3944:	24020047 	li	v0,71
    3948:	afa300a0 	sw	v1,160(sp)
    394c:	8fa3007c 	lw	v1,124(sp)
    3950:	00731823 	subu	v1,v1,s3
    3954:	afa300b0 	sw	v1,176(sp)
    3958:	8fa300ac 	lw	v1,172(sp)
    395c:	1462000a 	bne	v1,v0,0x3988
    3960:	8fa300a0 	lw	v1,160(sp)
    3964:	8fa300a0 	lw	v1,160(sp)
    3968:	2862fffd 	slti	v0,v1,-3
    396c:	54400006 	bnezl	v0,0x3988
    3970:	2610fffe 	addiu	s0,s0,-2
    3974:	03c3702a 	slt	t6,s8,v1
    3978:	11c00063 	beqz	t6,0x3b08
    397c:	8fa200b0 	lw	v0,176(sp)
    3980:	2610fffe 	addiu	s0,s0,-2
    3984:	8fa300a0 	lw	v1,160(sp)
    3988:	a3b00084 	sb	s0,132(sp)
    398c:	2404002b 	li	a0,43
    3990:	2462ffff 	addiu	v0,v1,-1
    3994:	04410004 	bgez	v0,0x39a8
    3998:	afa20090 	sw	v0,144(sp)
    399c:	24020001 	li	v0,1
    39a0:	00431023 	subu	v0,v0,v1
    39a4:	2404002d 	li	a0,45
    39a8:	2843000a 	slti	v1,v0,10
    39ac:	1460016a 	bnez	v1,0x3f58
    39b0:	a3a40085 	sb	a0,133(sp)
    39b4:	3c076666 	lui	a3,0x6666
    39b8:	27a50083 	addiu	a1,sp,131
    39bc:	10000003 	b	0x39cc
    39c0:	24e76667 	addiu	a3,a3,26215
    39c4:	00c02821 	move	a1,a2
    39c8:	00601021 	move	v0,v1
    39cc:	00470018 	mult	v0,a3
    39d0:	000227c3 	sra	a0,v0,0x1f
    39d4:	28480064 	slti	t0,v0,100
    39d8:	24a6ffff 	addiu	a2,a1,-1
    39dc:	00001810 	mfhi	v1
    39e0:	00031883 	sra	v1,v1,0x2
    39e4:	00641823 	subu	v1,v1,a0
    39e8:	00032080 	sll	a0,v1,0x2
    39ec:	00832021 	addu	a0,a0,v1
    39f0:	00042040 	sll	a0,a0,0x1
    39f4:	00441023 	subu	v0,v0,a0
    39f8:	24420030 	addiu	v0,v0,48
    39fc:	1100fff1 	beqz	t0,0x39c4
    3a00:	a0a2ffff 	sb	v0,-1(a1)
    3a04:	24620030 	addiu	v0,v1,48
    3a08:	24a4fffe 	addiu	a0,a1,-2
    3a0c:	27a30083 	addiu	v1,sp,131
    3a10:	7c021420 	seb	v0,v0
    3a14:	0083182b 	sltu	v1,a0,v1
    3a18:	1060017f 	beqz	v1,0x4018
    3a1c:	a0c2ffff 	sb	v0,-1(a2)
    3a20:	27a30086 	addiu	v1,sp,134
    3a24:	24630001 	addiu	v1,v1,1
    3a28:	a062ffff 	sb	v0,-1(v1)
    3a2c:	24840001 	addiu	a0,a0,1
    3a30:	27a20083 	addiu	v0,sp,131
    3a34:	5482fffb 	bnel	a0,v0,0x3a24
    3a38:	80820000 	lb	v0,0(a0)
    3a3c:	27a20085 	addiu	v0,sp,133
    3a40:	27a30086 	addiu	v1,sp,134
    3a44:	00451023 	subu	v0,v0,a1
    3a48:	00621021 	addu	v0,v1,v0
    3a4c:	27a30084 	addiu	v1,sp,132
    3a50:	00431023 	subu	v0,v0,v1
    3a54:	afa200cc 	sw	v0,204(sp)
    3a58:	8fa300b0 	lw	v1,176(sp)
    3a5c:	8fa400cc 	lw	a0,204(sp)
    3a60:	28620002 	slti	v0,v1,2
    3a64:	00641821 	addu	v1,v1,a0
    3a68:	14400148 	bnez	v0,0x3f8c
    3a6c:	afa300a0 	sw	v1,160(sp)
    3a70:	8fa200a0 	lw	v0,160(sp)
    3a74:	00009021 	move	s2,zero
    3a78:	24420001 	addiu	v0,v0,1
    3a7c:	afa200a0 	sw	v0,160(sp)
    3a80:	10000029 	b	0x3b28
    3a84:	0052902c 	max	s2,v0,s2
    3a88:	3c070001 	lui	a3,0x1
    3a8c:	24e7be68 	addiu	a3,a3,-16792
    3a90:	1000fd18 	b	0x2ef4
    3a94:	01002021 	move	a0,t0
    3a98:	2402002d 	li	v0,45
    3a9c:	a3a20096 	sb	v0,150(sp)
    3aa0:	2402002d 	li	v0,45
    3aa4:	1000fbad 	b	0x295c
    3aa8:	afa200ac 	sw	v0,172(sp)
    3aac:	8fa400a4 	lw	a0,164(sp)
    3ab0:	27a60070 	addiu	a2,sp,112
    3ab4:	0c002070 	jal	0x81c0
    3ab8:	02a02821 	move	a1,s5
    3abc:	1440fa07 	bnez	v0,0x22dc
    3ac0:	8fa20090 	lw	v0,144(sp)
    3ac4:	8fa30078 	lw	v1,120(sp)
    3ac8:	1000ff07 	b	0x36e8
    3acc:	02804021 	move	t0,s4
    3ad0:	8fa400a4 	lw	a0,164(sp)
    3ad4:	27a60070 	addiu	a2,sp,112
    3ad8:	0c002070 	jal	0x81c0
    3adc:	02a02821 	move	a1,s5
    3ae0:	1440f9fe 	bnez	v0,0x22dc
    3ae4:	8fa20090 	lw	v0,144(sp)
    3ae8:	8fa30078 	lw	v1,120(sp)
    3aec:	8fa40074 	lw	a0,116(sp)
    3af0:	1000ff10 	b	0x3734
    3af4:	02804021 	move	t0,s4
    3af8:	00529026 	xor	s2,v0,s2
    3afc:	2402002d 	li	v0,45
    3b00:	1000ff72 	b	0x38cc
    3b04:	afa200c8 	sw	v0,200(sp)
    3b08:	0062102a 	slt	v0,v1,v0
    3b0c:	544000ff 	bnezl	v0,0x3f0c
    3b10:	8fa300a0 	lw	v1,160(sp)
    3b14:	31ef0001 	andi	t7,t7,0x1
    3b18:	15e00116 	bnez	t7,0x3f74
    3b1c:	8fa200a0 	lw	v0,160(sp)
    3b20:	006f902c 	max	s2,v1,t7
    3b24:	24100067 	li	s0,103
    3b28:	8fa200c8 	lw	v0,200(sp)
    3b2c:	50400098 	beqzl	v0,0x3d90
    3b30:	83a20096 	lb	v0,150(sp)
    3b34:	2402002d 	li	v0,45
    3b38:	a3a20096 	sb	v0,150(sp)
    3b3c:	0000f021 	move	s8,zero
    3b40:	1000fa14 	b	0x2394
    3b44:	26520001 	addiu	s2,s2,1
    3b48:	8fa300b4 	lw	v1,180(sp)
    3b4c:	8fa400a4 	lw	a0,164(sp)
    3b50:	27a2007c 	addiu	v0,sp,124
    3b54:	00603021 	move	a2,v1
    3b58:	02403821 	move	a3,s2
    3b5c:	afa20000 	sw	v0,0(sp)
    3b60:	27ab008c 	addiu	t3,sp,140
    3b64:	27aa0090 	addiu	t2,sp,144
    3b68:	03c04821 	move	t1,s8
    3b6c:	24080003 	li	t0,3
    3b70:	afac00b0 	sw	t4,176(sp)
    3b74:	0c0012b1 	jal	0x4ac4
    3b78:	afaf00a0 	sw	t7,160(sp)
    3b7c:	00409821 	move	s3,v0
    3b80:	82630000 	lb	v1,0(s3)
    3b84:	005eb021 	addu	s6,v0,s8
    3b88:	24020030 	li	v0,48
    3b8c:	8faf00a0 	lw	t7,160(sp)
    3b90:	1462003b 	bne	v1,v0,0x3c80
    3b94:	8fac00b0 	lw	t4,176(sp)
    3b98:	8fa300b4 	lw	v1,180(sp)
    3b9c:	02402821 	move	a1,s2
    3ba0:	00003021 	move	a2,zero
    3ba4:	00602021 	move	a0,v1
    3ba8:	00003821 	move	a3,zero
    3bac:	afac00b0 	sw	t4,176(sp)
    3bb0:	0c002c56 	jal	0xb158
    3bb4:	afaf00a0 	sw	t7,160(sp)
    3bb8:	8faf00a0 	lw	t7,160(sp)
    3bbc:	10400030 	beqz	v0,0x3c80
    3bc0:	8fac00b0 	lw	t4,176(sp)
    3bc4:	24020001 	li	v0,1
    3bc8:	005e1023 	subu	v0,v0,s8
    3bcc:	afa20090 	sw	v0,144(sp)
    3bd0:	02c2b021 	addu	s6,s6,v0
    3bd4:	8fa200b4 	lw	v0,180(sp)
    3bd8:	02402821 	move	a1,s2
    3bdc:	00003021 	move	a2,zero
    3be0:	00402021 	move	a0,v0
    3be4:	00003821 	move	a3,zero
    3be8:	afac00b0 	sw	t4,176(sp)
    3bec:	0c002c39 	jal	0xb0e4
    3bf0:	afaf00a0 	sw	t7,160(sp)
    3bf4:	02c01821 	move	v1,s6
    3bf8:	8faf00a0 	lw	t7,160(sp)
    3bfc:	1040000c 	beqz	v0,0x3c30
    3c00:	8fac00b0 	lw	t4,176(sp)
    3c04:	8fa3007c 	lw	v1,124(sp)
    3c08:	0076102b 	sltu	v0,v1,s6
    3c0c:	10400008 	beqz	v0,0x3c30
    3c10:	24040030 	li	a0,48
    3c14:	24620001 	addiu	v0,v1,1
    3c18:	afa2007c 	sw	v0,124(sp)
    3c1c:	a0640000 	sb	a0,0(v1)
    3c20:	8fa3007c 	lw	v1,124(sp)
    3c24:	0076102b 	sltu	v0,v1,s6
    3c28:	1440fffb 	bnez	v0,0x3c18
    3c2c:	24620001 	addiu	v0,v1,1
    3c30:	00731823 	subu	v1,v1,s3
    3c34:	afa300b0 	sw	v1,176(sp)
    3c38:	8fa30090 	lw	v1,144(sp)
    3c3c:	24020047 	li	v0,71
    3c40:	afa300a0 	sw	v1,160(sp)
    3c44:	8fa300ac 	lw	v1,172(sp)
    3c48:	1062ff46 	beq	v1,v0,0x3964
    3c4c:	24020066 	li	v0,102
    3c50:	1602ff4c 	bne	s0,v0,0x3984
    3c54:	8fa300a0 	lw	v1,160(sp)
    3c58:	31e20001 	andi	v0,t7,0x1
    3c5c:	186000e5 	blez	v1,0x3ff4
    3c60:	005e1025 	or	v0,v0,s8
    3c64:	1040ffb0 	beqz	v0,0x3b28
    3c68:	00609021 	move	s2,v1
    3c6c:	27ce0001 	addiu	t6,s8,1
    3c70:	006e1021 	addu	v0,v1,t6
    3c74:	afa200a0 	sw	v0,160(sp)
    3c78:	1000ffab 	b	0x3b28
    3c7c:	00409021 	move	s2,v0
    3c80:	8fa20090 	lw	v0,144(sp)
    3c84:	1000ffd3 	b	0x3bd4
    3c88:	02c2b021 	addu	s6,s6,v0
    3c8c:	5040fbb4 	beqzl	v0,0x2b60
    3c90:	27b30070 	addiu	s3,sp,112
    3c94:	27a20070 	addiu	v0,sp,112
    3c98:	afa200a0 	sw	v0,160(sp)
    3c9c:	1000fbd0 	b	0x2be0
    3ca0:	02c02021 	move	a0,s6
    3ca4:	3c070001 	lui	a3,0x1
    3ca8:	24e7be68 	addiu	a3,a3,-16792
    3cac:	14800042 	bnez	a0,0x3db8
    3cb0:	8fa20074 	lw	v0,116(sp)
    3cb4:	24160010 	li	s6,16
    3cb8:	8fb300a4 	lw	s3,164(sp)
    3cbc:	10000006 	b	0x3cd8
    3cc0:	00e0f021 	move	s8,a3
    3cc4:	25080008 	addiu	t0,t0,8
    3cc8:	2610fff0 	addiu	s0,s0,-16
    3ccc:	2a040011 	slti	a0,s0,17
    3cd0:	14800039 	bnez	a0,0x3db8
    3cd4:	03c03821 	move	a3,s8
    3cd8:	24420001 	addiu	v0,v0,1
    3cdc:	24630010 	addiu	v1,v1,16
    3ce0:	28440008 	slti	a0,v0,8
    3ce4:	ad1e0000 	sw	s8,0(t0)
    3ce8:	ad160004 	sw	s6,4(t0)
    3cec:	afa30078 	sw	v1,120(sp)
    3cf0:	1480fff4 	bnez	a0,0x3cc4
    3cf4:	afa20074 	sw	v0,116(sp)
    3cf8:	27a60070 	addiu	a2,sp,112
    3cfc:	02a02821 	move	a1,s5
    3d00:	0c002070 	jal	0x81c0
    3d04:	02602021 	move	a0,s3
    3d08:	1440f974 	bnez	v0,0x22dc
    3d0c:	8fa30078 	lw	v1,120(sp)
    3d10:	8fa20074 	lw	v0,116(sp)
    3d14:	1000ffec 	b	0x3cc8
    3d18:	02804021 	move	t0,s4
    3d1c:	8fa400a4 	lw	a0,164(sp)
    3d20:	27a60070 	addiu	a2,sp,112
    3d24:	0c002070 	jal	0x81c0
    3d28:	02a02821 	move	a1,s5
    3d2c:	1440f96b 	bnez	v0,0x22dc
    3d30:	8fa20090 	lw	v0,144(sp)
    3d34:	8fa30078 	lw	v1,120(sp)
    3d38:	8fa90074 	lw	t1,116(sp)
    3d3c:	1000fe22 	b	0x35c8
    3d40:	02804021 	move	t0,s4
    3d44:	8fa400a4 	lw	a0,164(sp)
    3d48:	27a60070 	addiu	a2,sp,112
    3d4c:	0c002070 	jal	0x81c0
    3d50:	02a02821 	move	a1,s5
    3d54:	1440f961 	bnez	v0,0x22dc
    3d58:	8fa20090 	lw	v0,144(sp)
    3d5c:	8fa30078 	lw	v1,120(sp)
    3d60:	8fa90074 	lw	t1,116(sp)
    3d64:	1000fe0c 	b	0x3598
    3d68:	02804021 	move	t0,s4
    3d6c:	8fa400a4 	lw	a0,164(sp)
    3d70:	27a60070 	addiu	a2,sp,112
    3d74:	0c002070 	jal	0x81c0
    3d78:	02a02821 	move	a1,s5
    3d7c:	1440f957 	bnez	v0,0x22dc
    3d80:	8fa20090 	lw	v0,144(sp)
    3d84:	8fa30078 	lw	v1,120(sp)
    3d88:	1000fd55 	b	0x32e0
    3d8c:	02804021 	move	t0,s4
    3d90:	0000f021 	move	s8,zero
    3d94:	1000fa25 	b	0x262c
    3d98:	afa200ac 	sw	v0,172(sp)
    3d9c:	83a20096 	lb	v0,150(sp)
    3da0:	03c09021 	move	s2,s8
    3da4:	afbe00a0 	sw	s8,160(sp)
    3da8:	afa200ac 	sw	v0,172(sp)
    3dac:	afb600a8 	sw	s6,168(sp)
    3db0:	1000fa1e 	b	0x262c
    3db4:	0000f021 	move	s8,zero
    3db8:	24420001 	addiu	v0,v0,1
    3dbc:	00701821 	addu	v1,v1,s0
    3dc0:	28440008 	slti	a0,v0,8
    3dc4:	ad070000 	sw	a3,0(t0)
    3dc8:	ad100004 	sw	s0,4(t0)
    3dcc:	afa30078 	sw	v1,120(sp)
    3dd0:	10800059 	beqz	a0,0x3f38
    3dd4:	afa20074 	sw	v0,116(sp)
    3dd8:	1000fd45 	b	0x32f0
    3ddc:	25080008 	addiu	t0,t0,8
    3de0:	1000faef 	b	0x29a0
    3de4:	a3a50096 	sb	a1,150(sp)
    3de8:	1000fb3b 	b	0x2ad8
    3dec:	a3a50096 	sb	a1,150(sp)
    3df0:	3c070001 	lui	a3,0x1
    3df4:	24e7be68 	addiu	a3,a3,-16792
    3df8:	00028023 	negu	s0,v0
    3dfc:	24160010 	li	s6,16
    3e00:	14a00008 	bnez	a1,0x3e24
    3e04:	00e0f021 	move	s8,a3
    3e08:	10000018 	b	0x3e6c
    3e0c:	24840001 	addiu	a0,a0,1
    3e10:	25080008 	addiu	t0,t0,8
    3e14:	2610fff0 	addiu	s0,s0,-16
    3e18:	2a020011 	slti	v0,s0,17
    3e1c:	14400012 	bnez	v0,0x3e68
    3e20:	03c03821 	move	a3,s8
    3e24:	24840001 	addiu	a0,a0,1
    3e28:	24630010 	addiu	v1,v1,16
    3e2c:	28820008 	slti	v0,a0,8
    3e30:	ad1e0000 	sw	s8,0(t0)
    3e34:	ad160004 	sw	s6,4(t0)
    3e38:	afa30078 	sw	v1,120(sp)
    3e3c:	1440fff4 	bnez	v0,0x3e10
    3e40:	afa40074 	sw	a0,116(sp)
    3e44:	8fa400a4 	lw	a0,164(sp)
    3e48:	27a60070 	addiu	a2,sp,112
    3e4c:	0c002070 	jal	0x81c0
    3e50:	02a02821 	move	a1,s5
    3e54:	1440f921 	bnez	v0,0x22dc
    3e58:	8fa30078 	lw	v1,120(sp)
    3e5c:	8fa40074 	lw	a0,116(sp)
    3e60:	1000ffec 	b	0x3e14
    3e64:	02804021 	move	t0,s4
    3e68:	24840001 	addiu	a0,a0,1
    3e6c:	00701821 	addu	v1,v1,s0
    3e70:	28820008 	slti	v0,a0,8
    3e74:	ad070000 	sw	a3,0(t0)
    3e78:	ad100004 	sw	s0,4(t0)
    3e7c:	afa30078 	sw	v1,120(sp)
    3e80:	10400047 	beqz	v0,0x3fa0
    3e84:	afa40074 	sw	a0,116(sp)
    3e88:	1000fe2c 	b	0x373c
    3e8c:	25080008 	addiu	t0,t0,8
    3e90:	1000fe87 	b	0x38b0
    3e94:	241e0006 	li	s8,6
    3e98:	3c070001 	lui	a3,0x1
    3e9c:	24e7be68 	addiu	a3,a3,-16792
    3ea0:	1000fbda 	b	0x2e0c
    3ea4:	01201021 	move	v0,t1
    3ea8:	27a20070 	addiu	v0,sp,112
    3eac:	afa200a0 	sw	v0,160(sp)
    3eb0:	8faf0098 	lw	t7,152(sp)
    3eb4:	1000fb4a 	b	0x2be0
    3eb8:	02c02021 	move	a0,s6
    3ebc:	8fa300b4 	lw	v1,180(sp)
    3ec0:	8fa400a4 	lw	a0,164(sp)
    3ec4:	27a2007c 	addiu	v0,sp,124
    3ec8:	27d60001 	addiu	s6,s8,1
    3ecc:	00603021 	move	a2,v1
    3ed0:	02403821 	move	a3,s2
    3ed4:	afa20000 	sw	v0,0(sp)
    3ed8:	27ab008c 	addiu	t3,sp,140
    3edc:	27aa0090 	addiu	t2,sp,144
    3ee0:	02c04821 	move	t1,s6
    3ee4:	0c0012b1 	jal	0x4ac4
    3ee8:	24080002 	li	t0,2
    3eec:	8faf00a0 	lw	t7,160(sp)
    3ef0:	8fac00b0 	lw	t4,176(sp)
    3ef4:	00409821 	move	s3,v0
    3ef8:	24020047 	li	v0,71
    3efc:	1202fe8e 	beq	s0,v0,0x3938
    3f00:	31e20001 	andi	v0,t7,0x1
    3f04:	1000ff33 	b	0x3bd4
    3f08:	0276b021 	addu	s6,s3,s6
    3f0c:	1c600003 	bgtz	v1,0x3f1c
    3f10:	24020001 	li	v0,1
    3f14:	24020002 	li	v0,2
    3f18:	00431023 	subu	v0,v0,v1
    3f1c:	8fa300b0 	lw	v1,176(sp)
    3f20:	00009021 	move	s2,zero
    3f24:	24100067 	li	s0,103
    3f28:	00431021 	addu	v0,v0,v1
    3f2c:	afa200a0 	sw	v0,160(sp)
    3f30:	1000fefd 	b	0x3b28
    3f34:	0052902c 	max	s2,v0,s2
    3f38:	8fa400a4 	lw	a0,164(sp)
    3f3c:	27a60070 	addiu	a2,sp,112
    3f40:	0c002070 	jal	0x81c0
    3f44:	02a02821 	move	a1,s5
    3f48:	1440f8e4 	bnez	v0,0x22dc
    3f4c:	8fa30078 	lw	v1,120(sp)
    3f50:	1000fce7 	b	0x32f0
    3f54:	02804021 	move	t0,s4
    3f58:	24420030 	addiu	v0,v0,48
    3f5c:	24030030 	li	v1,48
    3f60:	a3a20087 	sb	v0,135(sp)
    3f64:	24020004 	li	v0,4
    3f68:	a3a30086 	sb	v1,134(sp)
    3f6c:	1000feba 	b	0x3a58
    3f70:	afa200cc 	sw	v0,204(sp)
    3f74:	00009021 	move	s2,zero
    3f78:	24100067 	li	s0,103
    3f7c:	24420001 	addiu	v0,v0,1
    3f80:	afa200a0 	sw	v0,160(sp)
    3f84:	1000fee8 	b	0x3b28
    3f88:	0052902c 	max	s2,v0,s2
    3f8c:	31ef0001 	andi	t7,t7,0x1
    3f90:	11e0fee5 	beqz	t7,0x3b28
    3f94:	006f902c 	max	s2,v1,t7
    3f98:	1000feb6 	b	0x3a74
    3f9c:	8fa200a0 	lw	v0,160(sp)
    3fa0:	8fa400a4 	lw	a0,164(sp)
    3fa4:	27a60070 	addiu	a2,sp,112
    3fa8:	0c002070 	jal	0x81c0
    3fac:	02a02821 	move	a1,s5
    3fb0:	1440f8ca 	bnez	v0,0x22dc
    3fb4:	8fa30078 	lw	v1,120(sp)
    3fb8:	8fa40074 	lw	a0,116(sp)
    3fbc:	1000fddf 	b	0x373c
    3fc0:	02804021 	move	t0,s4
    3fc4:	3c070001 	lui	a3,0x1
    3fc8:	24e7be68 	addiu	a3,a3,-16792
    3fcc:	1000fe13 	b	0x381c
    3fd0:	01002021 	move	a0,t0
    3fd4:	8fa300a8 	lw	v1,168(sp)
    3fd8:	82f00001 	lb	s0,1(s7)
    3fdc:	0040b821 	move	s7,v0
    3fe0:	8c7e0000 	lw	s8,0(v1)
    3fe4:	24630004 	addiu	v1,v1,4
    3fe8:	afa300a8 	sw	v1,168(sp)
    3fec:	1000f894 	b	0x2240
    3ff0:	03c8f02c 	max	s8,s8,t0
    3ff4:	14400005 	bnez	v0,0x400c
    3ff8:	27c20002 	addiu	v0,s8,2
    3ffc:	24020001 	li	v0,1
    4000:	24120001 	li	s2,1
    4004:	1000fec8 	b	0x3b28
    4008:	afa200a0 	sw	v0,160(sp)
    400c:	afa200a0 	sw	v0,160(sp)
    4010:	1000fec5 	b	0x3b28
    4014:	00409021 	move	s2,v0
    4018:	24020002 	li	v0,2
    401c:	1000fe8e 	b	0x3a58
    4020:	afa200cc 	sw	v0,204(sp)
    4024:	8fa300a4 	lw	v1,164(sp)
    4028:	2402000c 	li	v0,12
    402c:	ac620000 	sw	v0,0(v1)
    4030:	2402ffff 	li	v0,-1
    4034:	1000f8af 	b	0x22f4
    4038:	afa2009c 	sw	v0,156(sp)
    403c:	10800012 	beqz	a0,0x4088
    4040:	00802821 	move	a1,a0
    4044:	27bdfbf0 	addiu	sp,sp,-1040
    4048:	24060400 	li	a2,1024
    404c:	afbf040c 	sw	ra,1036(sp)
    4050:	0c001fdb 	jal	0x7f6c
    4054:	03a02021 	move	a0,sp
    4058:	2405002f 	li	a1,47
    405c:	03a02021 	move	a0,sp
    4060:	0c002059 	jal	0x8164
    4064:	a3a00400 	sb	zero,1024(sp)
    4068:	10400005 	beqz	v0,0x4080
    406c:	8fbf040c 	lw	ra,1036(sp)
    4070:	a0400001 	sb	zero,1(v0)
    4074:	0c0011f8 	jal	0x47e0
    4078:	03a02021 	move	a0,sp
    407c:	8fbf040c 	lw	ra,1036(sp)
    4080:	03e00008 	jr	ra
    4084:	27bd0410 	addiu	sp,sp,1040
    4088:	03e00008 	jr	ra
    408c:	00000000 	nop
    4090:	80860000 	lb	a2,0(a0)
    4094:	10c0000e 	beqz	a2,0x40d0
    4098:	30c300ff 	andi	v1,a2,0xff
    409c:	00001021 	move	v0,zero
    40a0:	2465ff9f 	addiu	a1,v1,-97
    40a4:	2ca5001a 	sltiu	a1,a1,26
    40a8:	2463ffd0 	addiu	v1,v1,-48
    40ac:	14a00003 	bnez	a1,0x40bc
    40b0:	2c63000a 	sltiu	v1,v1,10
    40b4:	10600008 	beqz	v1,0x40d8
    40b8:	2403003a 	li	v1,58
    40bc:	24420001 	addiu	v0,v0,1
    40c0:	00821821 	addu	v1,a0,v0
    40c4:	80660000 	lb	a2,0(v1)
    40c8:	14c0fff5 	bnez	a2,0x40a0
    40cc:	30c300ff 	andi	v1,a2,0xff
    40d0:	03e00008 	jr	ra
    40d4:	2402ffff 	li	v0,-1
    40d8:	14c3fffd 	bne	a2,v1,0x40d0
    40dc:	00000000 	nop
    40e0:	03e00008 	jr	ra
    40e4:	24420001 	addiu	v0,v0,1
    40e8:	18c0000d 	blez	a2,0x4120
    40ec:	00000000 	nop
    40f0:	80a20000 	lb	v0,0(a1)
    40f4:	1040000c 	beqz	v0,0x4128
    40f8:	00863021 	addu	a2,a0,a2
    40fc:	10000005 	b	0x4114
    4100:	24840001 	addiu	a0,a0,1
    4104:	80a20000 	lb	v0,0(a1)
    4108:	50400008 	beqzl	v0,0x412c
    410c:	a0800000 	sb	zero,0(a0)
    4110:	24840001 	addiu	a0,a0,1
    4114:	a082ffff 	sb	v0,-1(a0)
    4118:	14c4fffa 	bne	a2,a0,0x4104
    411c:	24a50001 	addiu	a1,a1,1
    4120:	03e00008 	jr	ra
    4124:	00001021 	move	v0,zero
    4128:	a0800000 	sb	zero,0(a0)
    412c:	03e00008 	jr	ra
    4130:	24020001 	li	v0,1
    4134:	80820000 	lb	v0,0(a0)
    4138:	14400014 	bnez	v0,0x418c
    413c:	00801021 	move	v0,a0
    4140:	18c0000d 	blez	a2,0x4178
    4144:	00000000 	nop
    4148:	80a20000 	lb	v0,0(a1)
    414c:	1040000c 	beqz	v0,0x4180
    4150:	00863021 	addu	a2,a0,a2
    4154:	10000005 	b	0x416c
    4158:	24840001 	addiu	a0,a0,1
    415c:	80a20000 	lb	v0,0(a1)
    4160:	50400008 	beqzl	v0,0x4184
    4164:	a0800000 	sb	zero,0(a0)
    4168:	24840001 	addiu	a0,a0,1
    416c:	a082ffff 	sb	v0,-1(a0)
    4170:	1486fffa 	bne	a0,a2,0x415c
    4174:	24a50001 	addiu	a1,a1,1
    4178:	03e00008 	jr	ra
    417c:	00001021 	move	v0,zero
    4180:	a0800000 	sb	zero,0(a0)
    4184:	03e00008 	jr	ra
    4188:	24020001 	li	v0,1
    418c:	24420001 	addiu	v0,v0,1
    4190:	80470000 	lb	a3,0(v0)
    4194:	00c21823 	subu	v1,a2,v0
    4198:	14e0fffc 	bnez	a3,0x418c
    419c:	00831821 	addu	v1,a0,v1
    41a0:	00603021 	move	a2,v1
    41a4:	1000ffe6 	b	0x4140
    41a8:	00402021 	move	a0,v0
    41ac:	80820000 	lb	v0,0(a0)
    41b0:	144000a1 	bnez	v0,0x4438
    41b4:	00803021 	move	a2,a0
    41b8:	18a00079 	blez	a1,0x43a0
    41bc:	2403002f 	li	v1,47
    41c0:	24020001 	li	v0,1
    41c4:	10a20076 	beq	a1,v0,0x43a0
    41c8:	a0c30000 	sb	v1,0(a2)
    41cc:	a0c00001 	sb	zero,1(a2)
    41d0:	80850001 	lb	a1,1(a0)
    41d4:	00001821 	move	v1,zero
    41d8:	00001021 	move	v0,zero
    41dc:	14a00007 	bnez	a1,0x41fc
    41e0:	2408002f 	li	t0,47
    41e4:	1000004e 	b	0x4320
    41e8:	00831021 	addu	v0,a0,v1
    41ec:	00831821 	addu	v1,a0,v1
    41f0:	80650002 	lb	a1,2(v1)
    41f4:	10a0001b 	beqz	a1,0x4264
    41f8:	00c01821 	move	v1,a2
    41fc:	00821021 	addu	v0,a0,v0
    4200:	80470000 	lb	a3,0(v0)
    4204:	24620001 	addiu	v0,v1,1
    4208:	14e8fff8 	bne	a3,t0,0x41ec
    420c:	00403021 	move	a2,v0
    4210:	54a8fff7 	bnel	a1,t0,0x41f0
    4214:	00831821 	addu	v1,a0,v1
    4218:	00821021 	addu	v0,a0,v0
    421c:	80450000 	lb	a1,0(v0)
    4220:	10a00009 	beqz	a1,0x4248
    4224:	24650002 	addiu	a1,v1,2
    4228:	00852821 	addu	a1,a0,a1
    422c:	80a70000 	lb	a3,0(a1)
    4230:	24420001 	addiu	v0,v0,1
    4234:	24a50001 	addiu	a1,a1,1
    4238:	a047ffff 	sb	a3,-1(v0)
    423c:	80a6ffff 	lb	a2,-1(a1)
    4240:	54c0fffb 	bnezl	a2,0x4230
    4244:	80a70000 	lb	a3,0(a1)
    4248:	00603021 	move	a2,v1
    424c:	00601021 	move	v0,v1
    4250:	2463ffff 	addiu	v1,v1,-1
    4254:	00831821 	addu	v1,a0,v1
    4258:	80650002 	lb	a1,2(v1)
    425c:	14a0ffe7 	bnez	a1,0x41fc
    4260:	00c01821 	move	v1,a2
    4264:	80890000 	lb	t1,0(a0)
    4268:	1120002c 	beqz	t1,0x431c
    426c:	00001821 	move	v1,zero
    4270:	80860001 	lb	a2,1(a0)
    4274:	50c0002a 	beqzl	a2,0x4320
    4278:	00831021 	addu	v0,a0,v1
    427c:	80880002 	lb	t0,2(a0)
    4280:	11000026 	beqz	t0,0x431c
    4284:	00001021 	move	v0,zero
    4288:	240a002f 	li	t2,47
    428c:	1000000b 	b	0x42bc
    4290:	240b002e 	li	t3,46
    4294:	50a00021 	beqzl	a1,0x431c
    4298:	00001821 	move	v1,zero
    429c:	00821021 	addu	v0,a0,v0
    42a0:	80460002 	lb	a2,2(v0)
    42a4:	50c0001d 	beqzl	a2,0x431c
    42a8:	00001821 	move	v1,zero
    42ac:	80480003 	lb	t0,3(v0)
    42b0:	11000019 	beqz	t0,0x4318
    42b4:	00601021 	move	v0,v1
    42b8:	00a04821 	move	t1,a1
    42bc:	24430001 	addiu	v1,v0,1
    42c0:	00833821 	addu	a3,a0,v1
    42c4:	152afff3 	bne	t1,t2,0x4294
    42c8:	80e50000 	lb	a1,0(a3)
    42cc:	14cbfff1 	bne	a2,t3,0x4294
    42d0:	00000000 	nop
    42d4:	150affef 	bne	t0,t2,0x4294
    42d8:	00000000 	nop
    42dc:	24430002 	addiu	v1,v0,2
    42e0:	10a00008 	beqz	a1,0x4304
    42e4:	00831821 	addu	v1,a0,v1
    42e8:	80660001 	lb	a2,1(v1)
    42ec:	24e70001 	addiu	a3,a3,1
    42f0:	24630001 	addiu	v1,v1,1
    42f4:	a0e6ffff 	sb	a2,-1(a3)
    42f8:	8065ffff 	lb	a1,-1(v1)
    42fc:	54a0fffb 	bnezl	a1,0x42ec
    4300:	80660001 	lb	a2,1(v1)
    4304:	00822821 	addu	a1,a0,v0
    4308:	80a50000 	lb	a1,0(a1)
    430c:	00401821 	move	v1,v0
    4310:	14a0ffe2 	bnez	a1,0x429c
    4314:	2442ffff 	addiu	v0,v0,-1
    4318:	00001821 	move	v1,zero
    431c:	00831021 	addu	v0,a0,v1
    4320:	80450001 	lb	a1,1(v0)
    4324:	2407002e 	li	a3,46
    4328:	00004021 	move	t0,zero
    432c:	10a7000b 	beq	a1,a3,0x435c
    4330:	2406002f 	li	a2,47
    4334:	10a00012 	beqz	a1,0x4380
    4338:	24620001 	addiu	v0,v1,1
    433c:	54a6000c 	bnel	a1,a2,0x4370
    4340:	24420001 	addiu	v0,v0,1
    4344:	00604021 	move	t0,v1
    4348:	00401821 	move	v1,v0
    434c:	00831021 	addu	v0,a0,v1
    4350:	80450001 	lb	a1,1(v0)
    4354:	14a7fff7 	bne	a1,a3,0x4334
    4358:	00000000 	nop
    435c:	80450002 	lb	a1,2(v0)
    4360:	50a70011 	beql	a1,a3,0x43a8
    4364:	80420003 	lb	v0,3(v0)
    4368:	24620001 	addiu	v0,v1,1
    436c:	24420001 	addiu	v0,v0,1
    4370:	00822821 	addu	a1,a0,v0
    4374:	80a50000 	lb	a1,0(a1)
    4378:	14a0fff0 	bnez	a1,0x433c
    437c:	00000000 	nop
    4380:	80820001 	lb	v0,1(a0)
    4384:	1440001f 	bnez	v0,0x4404
    4388:	2403002f 	li	v1,47
    438c:	80850000 	lb	a1,0(a0)
    4390:	10a3001a 	beq	a1,v1,0x43fc
    4394:	00001021 	move	v0,zero
    4398:	03e00008 	jr	ra
    439c:	00000000 	nop
    43a0:	03e00008 	jr	ra
    43a4:	2402fff6 	li	v0,-10
    43a8:	1446fff0 	bne	v0,a2,0x436c
    43ac:	24620001 	addiu	v0,v1,1
    43b0:	25090001 	addiu	t1,t0,1
    43b4:	00894821 	addu	t1,a0,t1
    43b8:	81220000 	lb	v0,0(t1)
    43bc:	1040000a 	beqz	v0,0x43e8
    43c0:	24620004 	addiu	v0,v1,4
    43c4:	00821021 	addu	v0,a0,v0
    43c8:	804a0000 	lb	t2,0(v0)
    43cc:	00432823 	subu	a1,v0,v1
    43d0:	00a82821 	addu	a1,a1,t0
    43d4:	a12a0000 	sb	t2,0(t1)
    43d8:	80a5fffe 	lb	a1,-2(a1)
    43dc:	25290001 	addiu	t1,t1,1
    43e0:	14a0fff9 	bnez	a1,0x43c8
    43e4:	24420001 	addiu	v0,v0,1
    43e8:	00001821 	move	v1,zero
    43ec:	00001021 	move	v0,zero
    43f0:	00604021 	move	t0,v1
    43f4:	1000ffd5 	b	0x434c
    43f8:	00401821 	move	v1,v0
    43fc:	03e00008 	jr	ra
    4400:	a0800000 	sb	zero,0(a0)
    4404:	24020001 	li	v0,1
    4408:	24430001 	addiu	v1,v0,1
    440c:	00832821 	addu	a1,a0,v1
    4410:	80a50000 	lb	a1,0(a1)
    4414:	54a0fffc 	bnezl	a1,0x4408
    4418:	00601021 	move	v0,v1
    441c:	00822021 	addu	a0,a0,v0
    4420:	80850000 	lb	a1,0(a0)
    4424:	2403002f 	li	v1,47
    4428:	14a3ffdb 	bne	a1,v1,0x4398
    442c:	00001021 	move	v0,zero
    4430:	1000fff2 	b	0x43fc
    4434:	00000000 	nop
    4438:	24c60001 	addiu	a2,a2,1
    443c:	80c30000 	lb	v1,0(a2)
    4440:	00a61023 	subu	v0,a1,a2
    4444:	1460fffc 	bnez	v1,0x4438
    4448:	00821021 	addu	v0,a0,v0
    444c:	1000ff5a 	b	0x41b8
    4450:	00402821 	move	a1,v0
    4454:	27bdfff0 	addiu	sp,sp,-16
    4458:	afb20008 	sw	s2,8(sp)
    445c:	afb10004 	sw	s1,4(sp)
    4460:	afb00000 	sw	s0,0(sp)
    4464:	afbf000c 	sw	ra,12(sp)
    4468:	80870000 	lb	a3,0(a0)
    446c:	00808021 	move	s0,a0
    4470:	00a08821 	move	s1,a1
    4474:	10e00013 	beqz	a3,0x44c4
    4478:	00c09021 	move	s2,a2
    447c:	00e02821 	move	a1,a3
    4480:	00002021 	move	a0,zero
    4484:	30a200ff 	andi	v0,a1,0xff
    4488:	2443ff9f 	addiu	v1,v0,-97
    448c:	2c63001a 	sltiu	v1,v1,26
    4490:	2442ffd0 	addiu	v0,v0,-48
    4494:	14600003 	bnez	v1,0x44a4
    4498:	2c42000a 	sltiu	v0,v0,10
    449c:	10400036 	beqz	v0,0x4578
    44a0:	2402003a 	li	v0,58
    44a4:	24840001 	addiu	a0,a0,1
    44a8:	02041021 	addu	v0,s0,a0
    44ac:	80450000 	lb	a1,0(v0)
    44b0:	14a0fff5 	bnez	a1,0x4488
    44b4:	30a200ff 	andi	v0,a1,0xff
    44b8:	2402002f 	li	v0,47
    44bc:	10e20046 	beq	a3,v0,0x45d8
    44c0:	00000000 	nop
    44c4:	3c040001 	lui	a0,0x1
    44c8:	0c000331 	jal	0xcc4
    44cc:	24842560 	addiu	a0,a0,9568
    44d0:	0052102b 	sltu	v0,v0,s2
    44d4:	1040009d 	beqz	v0,0x474c
    44d8:	2402fffc 	li	v0,-4
    44dc:	3c050001 	lui	a1,0x1
    44e0:	24a52560 	addiu	a1,a1,9568
    44e4:	0c001fb3 	jal	0x7ecc
    44e8:	02202021 	move	a0,s1
    44ec:	82220000 	lb	v0,0(s1)
    44f0:	144000ab 	bnez	v0,0x47a0
    44f4:	02202021 	move	a0,s1
    44f8:	02402821 	move	a1,s2
    44fc:	18a00092 	blez	a1,0x4748
    4500:	2403002f 	li	v1,47
    4504:	24020001 	li	v0,1
    4508:	10a2008f 	beq	a1,v0,0x4748
    450c:	a0830000 	sb	v1,0(a0)
    4510:	a0800001 	sb	zero,1(a0)
    4514:	82220000 	lb	v0,0(s1)
    4518:	144000a8 	bnez	v0,0x47bc
    451c:	02201021 	move	v0,s1
    4520:	02402021 	move	a0,s2
    4524:	1880000e 	blez	a0,0x4560
    4528:	8fbf000c 	lw	ra,12(sp)
    452c:	82030000 	lb	v1,0(s0)
    4530:	10600060 	beqz	v1,0x46b4
    4534:	00442021 	addu	a0,v0,a0
    4538:	10000005 	b	0x4550
    453c:	24420001 	addiu	v0,v0,1
    4540:	82030000 	lb	v1,0(s0)
    4544:	5060005c 	beqzl	v1,0x46b8
    4548:	a0400000 	sb	zero,0(v0)
    454c:	24420001 	addiu	v0,v0,1
    4550:	a043ffff 	sb	v1,-1(v0)
    4554:	1444fffa 	bne	v0,a0,0x4540
    4558:	26100001 	addiu	s0,s0,1
    455c:	8fbf000c 	lw	ra,12(sp)
    4560:	8fb20008 	lw	s2,8(sp)
    4564:	8fb10004 	lw	s1,4(sp)
    4568:	8fb00000 	lw	s0,0(sp)
    456c:	2402fff9 	li	v0,-7
    4570:	03e00008 	jr	ra
    4574:	27bd0010 	addiu	sp,sp,16
    4578:	14a2ffcf 	bne	a1,v0,0x44b8
    457c:	02042021 	addu	a0,s0,a0
    4580:	80830001 	lb	v1,1(a0)
    4584:	2402002f 	li	v0,47
    4588:	1462ffcc 	bne	v1,v0,0x44bc
    458c:	02321821 	addu	v1,s1,s2
    4590:	1e400006 	bgtz	s2,0x45ac
    4594:	02201021 	move	v0,s1
    4598:	10000009 	b	0x45c0
    459c:	8fbf000c 	lw	ra,12(sp)
    45a0:	82070000 	lb	a3,0(s0)
    45a4:	50e00044 	beqzl	a3,0x46b8
    45a8:	a0400000 	sb	zero,0(v0)
    45ac:	24420001 	addiu	v0,v0,1
    45b0:	a047ffff 	sb	a3,-1(v0)
    45b4:	1443fffa 	bne	v0,v1,0x45a0
    45b8:	26100001 	addiu	s0,s0,1
    45bc:	8fbf000c 	lw	ra,12(sp)
    45c0:	8fb20008 	lw	s2,8(sp)
    45c4:	8fb10004 	lw	s1,4(sp)
    45c8:	8fb00000 	lw	s0,0(sp)
    45cc:	2402ffff 	li	v0,-1
    45d0:	03e00008 	jr	ra
    45d4:	27bd0010 	addiu	sp,sp,16
    45d8:	3c040001 	lui	a0,0x1
    45dc:	0c000331 	jal	0xcc4
    45e0:	24842560 	addiu	a0,a0,9568
    45e4:	0052102b 	sltu	v0,v0,s2
    45e8:	10400058 	beqz	v0,0x474c
    45ec:	2402fffe 	li	v0,-2
    45f0:	3c050001 	lui	a1,0x1
    45f4:	24a52560 	addiu	a1,a1,9568
    45f8:	0c001fb3 	jal	0x7ecc
    45fc:	02202021 	move	a0,s1
    4600:	82250000 	lb	a1,0(s1)
    4604:	10a0000e 	beqz	a1,0x4640
    4608:	00002021 	move	a0,zero
    460c:	30a200ff 	andi	v0,a1,0xff
    4610:	2443ff9f 	addiu	v1,v0,-97
    4614:	2c63001a 	sltiu	v1,v1,26
    4618:	2442ffd0 	addiu	v0,v0,-48
    461c:	14600003 	bnez	v1,0x462c
    4620:	2c42000a 	sltiu	v0,v0,10
    4624:	1040004f 	beqz	v0,0x4764
    4628:	2402003a 	li	v0,58
    462c:	24840001 	addiu	a0,a0,1
    4630:	02241021 	addu	v0,s1,a0
    4634:	80450000 	lb	a1,0(v0)
    4638:	14a0fff5 	bnez	a1,0x4610
    463c:	30a200ff 	andi	v0,a1,0xff
    4640:	2404ffff 	li	a0,-1
    4644:	02242021 	addu	a0,s1,a0
    4648:	a0800000 	sb	zero,0(a0)
    464c:	82220000 	lb	v0,0(s1)
    4650:	1440004c 	bnez	v0,0x4784
    4654:	02201021 	move	v0,s1
    4658:	02402021 	move	a0,s2
    465c:	02201021 	move	v0,s1
    4660:	1880000e 	blez	a0,0x469c
    4664:	8fbf000c 	lw	ra,12(sp)
    4668:	82030000 	lb	v1,0(s0)
    466c:	10600011 	beqz	v1,0x46b4
    4670:	00442021 	addu	a0,v0,a0
    4674:	10000005 	b	0x468c
    4678:	24420001 	addiu	v0,v0,1
    467c:	82030000 	lb	v1,0(s0)
    4680:	5060000d 	beqzl	v1,0x46b8
    4684:	a0400000 	sb	zero,0(v0)
    4688:	24420001 	addiu	v0,v0,1
    468c:	a043ffff 	sb	v1,-1(v0)
    4690:	1444fffa 	bne	v0,a0,0x467c
    4694:	26100001 	addiu	s0,s0,1
    4698:	8fbf000c 	lw	ra,12(sp)
    469c:	8fb20008 	lw	s2,8(sp)
    46a0:	8fb10004 	lw	s1,4(sp)
    46a4:	8fb00000 	lw	s0,0(sp)
    46a8:	2402fffd 	li	v0,-3
    46ac:	03e00008 	jr	ra
    46b0:	27bd0010 	addiu	sp,sp,16
    46b4:	a0400000 	sb	zero,0(v0)
    46b8:	82250000 	lb	a1,0(s1)
    46bc:	10a0000e 	beqz	a1,0x46f8
    46c0:	00002021 	move	a0,zero
    46c4:	30a200ff 	andi	v0,a1,0xff
    46c8:	2443ff9f 	addiu	v1,v0,-97
    46cc:	2c63001a 	sltiu	v1,v1,26
    46d0:	2442ffd0 	addiu	v0,v0,-48
    46d4:	14600003 	bnez	v1,0x46e4
    46d8:	2c42000a 	sltiu	v0,v0,10
    46dc:	1040000e 	beqz	v0,0x4718
    46e0:	2402003a 	li	v0,58
    46e4:	24840001 	addiu	a0,a0,1
    46e8:	02241021 	addu	v0,s1,a0
    46ec:	80450000 	lb	a1,0(v0)
    46f0:	54a0fff5 	bnezl	a1,0x46c8
    46f4:	30a200ff 	andi	v0,a1,0xff
    46f8:	8fbf000c 	lw	ra,12(sp)
    46fc:	8fb00000 	lw	s0,0(sp)
    4700:	02402821 	move	a1,s2
    4704:	02202021 	move	a0,s1
    4708:	8fb20008 	lw	s2,8(sp)
    470c:	8fb10004 	lw	s1,4(sp)
    4710:	0800106b 	j	0x41ac
    4714:	27bd0010 	addiu	sp,sp,16
    4718:	14a2fff7 	bne	a1,v0,0x46f8
    471c:	24840001 	addiu	a0,a0,1
    4720:	02449023 	subu	s2,s2,a0
    4724:	02248821 	addu	s1,s1,a0
    4728:	8fbf000c 	lw	ra,12(sp)
    472c:	8fb00000 	lw	s0,0(sp)
    4730:	02402821 	move	a1,s2
    4734:	02202021 	move	a0,s1
    4738:	8fb20008 	lw	s2,8(sp)
    473c:	8fb10004 	lw	s1,4(sp)
    4740:	0800106b 	j	0x41ac
    4744:	27bd0010 	addiu	sp,sp,16
    4748:	2402fffa 	li	v0,-6
    474c:	8fbf000c 	lw	ra,12(sp)
    4750:	8fb20008 	lw	s2,8(sp)
    4754:	8fb10004 	lw	s1,4(sp)
    4758:	8fb00000 	lw	s0,0(sp)
    475c:	03e00008 	jr	ra
    4760:	27bd0010 	addiu	sp,sp,16
    4764:	14a2ffb6 	bne	a1,v0,0x4640
    4768:	24840001 	addiu	a0,a0,1
    476c:	02242021 	addu	a0,s1,a0
    4770:	a0800000 	sb	zero,0(a0)
    4774:	82220000 	lb	v0,0(s1)
    4778:	5040ffb8 	beqzl	v0,0x465c
    477c:	02402021 	move	a0,s2
    4780:	02201021 	move	v0,s1
    4784:	24420001 	addiu	v0,v0,1
    4788:	80430000 	lb	v1,0(v0)
    478c:	02422023 	subu	a0,s2,v0
    4790:	1060ffb3 	beqz	v1,0x4660
    4794:	02242021 	addu	a0,s1,a0
    4798:	1000fffb 	b	0x4788
    479c:	24420001 	addiu	v0,v0,1
    47a0:	24840001 	addiu	a0,a0,1
    47a4:	80820000 	lb	v0,0(a0)
    47a8:	02442823 	subu	a1,s2,a0
    47ac:	1040ff53 	beqz	v0,0x44fc
    47b0:	02252821 	addu	a1,s1,a1
    47b4:	1000fffb 	b	0x47a4
    47b8:	24840001 	addiu	a0,a0,1
    47bc:	24420001 	addiu	v0,v0,1
    47c0:	80430000 	lb	v1,0(v0)
    47c4:	02422023 	subu	a0,s2,v0
    47c8:	1060ff56 	beqz	v1,0x4524
    47cc:	02242021 	addu	a0,s1,a0
    47d0:	1000fffb 	b	0x47c0
    47d4:	24420001 	addiu	v0,v0,1
    47d8:	1000ffdc 	b	0x474c
    47dc:	2402fffe 	li	v0,-2
    47e0:	27bdfbf0 	addiu	sp,sp,-1040
    47e4:	24060400 	li	a2,1024
    47e8:	afbf040c 	sw	ra,1036(sp)
    47ec:	0c001115 	jal	0x4454
    47f0:	03a02821 	move	a1,sp
    47f4:	04400011 	bltz	v0,0x483c
    47f8:	00000000 	nop
    47fc:	0c002e90 	jal	0xba40
    4800:	03a02021 	move	a0,sp
    4804:	04400013 	bltz	v0,0x4854
    4808:	00000000 	nop
    480c:	0c002e92 	jal	0xba48
    4810:	00402021 	move	a0,v0
    4814:	0c002e94 	jal	0xba50
    4818:	03a02021 	move	a0,sp
    481c:	3c040001 	lui	a0,0x1
    4820:	24842560 	addiu	a0,a0,9568
    4824:	0c001fb3 	jal	0x7ecc
    4828:	03a02821 	move	a1,sp
    482c:	00001021 	move	v0,zero
    4830:	8fbf040c 	lw	ra,1036(sp)
    4834:	03e00008 	jr	ra
    4838:	27bd0410 	addiu	sp,sp,1040
    483c:	0c0005a4 	jal	0x1690
    4840:	00000000 	nop
    4844:	2403005b 	li	v1,91
    4848:	ac430000 	sw	v1,0(v0)
    484c:	1000fff8 	b	0x4830
    4850:	2402ffff 	li	v0,-1
    4854:	0c0005a4 	jal	0x1690
    4858:	00000000 	nop
    485c:	24030014 	li	v1,20
    4860:	ac430000 	sw	v1,0(v0)
    4864:	1000fff2 	b	0x4830
    4868:	2402ffff 	li	v0,-1
    486c:	27bdffe0 	addiu	sp,sp,-32
    4870:	8c820010 	lw	v0,16(a0)
    4874:	afb10004 	sw	s1,4(sp)
    4878:	8cb10010 	lw	s1,16(a1)
    487c:	afbf001c 	sw	ra,28(sp)
    4880:	afb60018 	sw	s6,24(sp)
    4884:	0051102a 	slt	v0,v0,s1
    4888:	afb50014 	sw	s5,20(sp)
    488c:	afb40010 	sw	s4,16(sp)
    4890:	afb3000c 	sw	s3,12(sp)
    4894:	afb20008 	sw	s2,8(sp)
    4898:	1440007f 	bnez	v0,0x4a98
    489c:	afb00000 	sw	s0,0(sp)
    48a0:	2631ffff 	addiu	s1,s1,-1
    48a4:	00115880 	sll	t3,s1,0x2
    48a8:	24b00014 	addiu	s0,a1,20
    48ac:	020b9021 	addu	s2,s0,t3
    48b0:	24930014 	addiu	s3,a0,20
    48b4:	026b5821 	addu	t3,s3,t3
    48b8:	8e430000 	lw	v1,0(s2)
    48bc:	8d620000 	lw	v0,0(t3)
    48c0:	24630001 	addiu	v1,v1,1
    48c4:	14600002 	bnez	v1,0x48d0
    48c8:	0043001b 	divu	zero,v0,v1
    48cc:	000001cd 	break	0x7
    48d0:	0043102b 	sltu	v0,v0,v1
    48d4:	0000a812 	mflo	s5
    48d8:	14400035 	bnez	v0,0x49b0
    48dc:	0000a012 	mflo	s4
    48e0:	02004821 	move	t1,s0
    48e4:	02601021 	move	v0,s3
    48e8:	00001821 	move	v1,zero
    48ec:	00004021 	move	t0,zero
    48f0:	25290004 	addiu	t1,t1,4
    48f4:	8d26fffc 	lw	a2,-4(t1)
    48f8:	8c4c0000 	lw	t4,0(v0)
    48fc:	0249502b 	sltu	t2,s2,t1
    4900:	30c7ffff 	andi	a3,a2,0xffff
    4904:	00f50018 	mult	a3,s5
    4908:	00063402 	srl	a2,a2,0x10
    490c:	318dffff 	andi	t5,t4,0xffff
    4910:	000c6402 	srl	t4,t4,0x10
    4914:	24420004 	addiu	v0,v0,4
    4918:	00003812 	mflo	a3
    491c:	00e33821 	addu	a3,a3,v1
    4920:	00071c02 	srl	v1,a3,0x10
    4924:	00d50018 	mult	a2,s5
    4928:	30e7ffff 	andi	a3,a3,0xffff
    492c:	01073823 	subu	a3,t0,a3
    4930:	00ed3821 	addu	a3,a3,t5
    4934:	00076c03 	sra	t5,a3,0x10
    4938:	30e7ffff 	andi	a3,a3,0xffff
    493c:	00003012 	mflo	a2
    4940:	00c31821 	addu	v1,a2,v1
    4944:	3068ffff 	andi	t0,v1,0xffff
    4948:	01884023 	subu	t0,t4,t0
    494c:	010d4021 	addu	t0,t0,t5
    4950:	00083400 	sll	a2,t0,0x10
    4954:	00c73825 	or	a3,a2,a3
    4958:	00031c02 	srl	v1,v1,0x10
    495c:	00084403 	sra	t0,t0,0x10
    4960:	1140ffe3 	beqz	t2,0x48f0
    4964:	ac47fffc 	sw	a3,-4(v0)
    4968:	8d620000 	lw	v0,0(t3)
    496c:	14400010 	bnez	v0,0x49b0
    4970:	2562fffc 	addiu	v0,t3,-4
    4974:	0262182b 	sltu	v1,s3,v0
    4978:	5060000d 	beqzl	v1,0x49b0
    497c:	ac910010 	sw	s1,16(a0)
    4980:	8d63fffc 	lw	v1,-4(t3)
    4984:	10600006 	beqz	v1,0x49a0
    4988:	2442fffc 	addiu	v0,v0,-4
    498c:	10000008 	b	0x49b0
    4990:	ac910010 	sw	s1,16(a0)
    4994:	8c430000 	lw	v1,0(v0)
    4998:	14600004 	bnez	v1,0x49ac
    499c:	2442fffc 	addiu	v0,v0,-4
    49a0:	0262182b 	sltu	v1,s3,v0
    49a4:	1460fffb 	bnez	v1,0x4994
    49a8:	2631ffff 	addiu	s1,s1,-1
    49ac:	ac910010 	sw	s1,16(a0)
    49b0:	0c001d03 	jal	0x740c
    49b4:	0080b021 	move	s6,a0
    49b8:	0440002c 	bltz	v0,0x4a6c
    49bc:	02603821 	move	a3,s3
    49c0:	26b40001 	addiu	s4,s5,1
    49c4:	00001821 	move	v1,zero
    49c8:	26100004 	addiu	s0,s0,4
    49cc:	8e02fffc 	lw	v0,-4(s0)
    49d0:	8ce50000 	lw	a1,0(a3)
    49d4:	0250202b 	sltu	a0,s2,s0
    49d8:	3046ffff 	andi	a2,v0,0xffff
    49dc:	00661823 	subu	v1,v1,a2
    49e0:	30a6ffff 	andi	a2,a1,0xffff
    49e4:	00663021 	addu	a2,v1,a2
    49e8:	00021402 	srl	v0,v0,0x10
    49ec:	00051c02 	srl	v1,a1,0x10
    49f0:	00621823 	subu	v1,v1,v0
    49f4:	00061403 	sra	v0,a2,0x10
    49f8:	00621821 	addu	v1,v1,v0
    49fc:	00031400 	sll	v0,v1,0x10
    4a00:	30c6ffff 	andi	a2,a2,0xffff
    4a04:	24e70004 	addiu	a3,a3,4
    4a08:	00463025 	or	a2,v0,a2
    4a0c:	00031c03 	sra	v1,v1,0x10
    4a10:	1080ffed 	beqz	a0,0x49c8
    4a14:	ace6fffc 	sw	a2,-4(a3)
    4a18:	00111880 	sll	v1,s1,0x2
    4a1c:	02631821 	addu	v1,s3,v1
    4a20:	8c620000 	lw	v0,0(v1)
    4a24:	14400012 	bnez	v0,0x4a70
    4a28:	8fbf001c 	lw	ra,28(sp)
    4a2c:	2462fffc 	addiu	v0,v1,-4
    4a30:	0262202b 	sltu	a0,s3,v0
    4a34:	5080000d 	beqzl	a0,0x4a6c
    4a38:	aed10010 	sw	s1,16(s6)
    4a3c:	8c63fffc 	lw	v1,-4(v1)
    4a40:	10600006 	beqz	v1,0x4a5c
    4a44:	2442fffc 	addiu	v0,v0,-4
    4a48:	10000008 	b	0x4a6c
    4a4c:	aed10010 	sw	s1,16(s6)
    4a50:	8c430000 	lw	v1,0(v0)
    4a54:	14600004 	bnez	v1,0x4a68
    4a58:	2442fffc 	addiu	v0,v0,-4
    4a5c:	0262182b 	sltu	v1,s3,v0
    4a60:	1460fffb 	bnez	v1,0x4a50
    4a64:	2631ffff 	addiu	s1,s1,-1
    4a68:	aed10010 	sw	s1,16(s6)
    4a6c:	8fbf001c 	lw	ra,28(sp)
    4a70:	02801021 	move	v0,s4
    4a74:	8fb60018 	lw	s6,24(sp)
    4a78:	8fb50014 	lw	s5,20(sp)
    4a7c:	8fb40010 	lw	s4,16(sp)
    4a80:	8fb3000c 	lw	s3,12(sp)
    4a84:	8fb20008 	lw	s2,8(sp)
    4a88:	8fb10004 	lw	s1,4(sp)
    4a8c:	8fb00000 	lw	s0,0(sp)
    4a90:	03e00008 	jr	ra
    4a94:	27bd0020 	addiu	sp,sp,32
    4a98:	8fbf001c 	lw	ra,28(sp)
    4a9c:	8fb60018 	lw	s6,24(sp)
    4aa0:	8fb50014 	lw	s5,20(sp)
    4aa4:	8fb40010 	lw	s4,16(sp)
    4aa8:	8fb3000c 	lw	s3,12(sp)
    4aac:	8fb20008 	lw	s2,8(sp)
    4ab0:	8fb10004 	lw	s1,4(sp)
    4ab4:	8fb00000 	lw	s0,0(sp)
    4ab8:	00001021 	move	v0,zero
    4abc:	03e00008 	jr	ra
    4ac0:	27bd0020 	addiu	sp,sp,32
    4ac4:	8c820040 	lw	v0,64(a0)
    4ac8:	27bdff60 	addiu	sp,sp,-160
    4acc:	afb60090 	sw	s6,144(sp)
    4ad0:	afb5008c 	sw	s5,140(sp)
    4ad4:	afb40088 	sw	s4,136(sp)
    4ad8:	afb30084 	sw	s3,132(sp)
    4adc:	afb1007c 	sw	s1,124(sp)
    4ae0:	afb00078 	sw	s0,120(sp)
    4ae4:	afbf009c 	sw	ra,156(sp)
    4ae8:	afbe0098 	sw	s8,152(sp)
    4aec:	afb70094 	sw	s7,148(sp)
    4af0:	afb20080 	sw	s2,128(sp)
    4af4:	00808021 	move	s0,a0
    4af8:	00c0a021 	move	s4,a2
    4afc:	00e09821 	move	s3,a3
    4b00:	0100b021 	move	s6,t0
    4b04:	afa90024 	sw	t1,36(sp)
    4b08:	afaa0018 	sw	t2,24(sp)
    4b0c:	0160a821 	move	s5,t3
    4b10:	afa60030 	sw	a2,48(sp)
    4b14:	10400009 	beqz	v0,0x4b3c
    4b18:	00e08821 	move	s1,a3
    4b1c:	8c860044 	lw	a2,68(a0)
    4b20:	24030001 	li	v1,1
    4b24:	00402821 	move	a1,v0
    4b28:	00c31804 	sllv	v1,v1,a2
    4b2c:	ac460004 	sw	a2,4(v0)
    4b30:	0c001acb 	jal	0x6b2c
    4b34:	ac430008 	sw	v1,8(v0)
    4b38:	ae000040 	sw	zero,64(s0)
    4b3c:	066001b6 	bltz	s3,0x5218
    4b40:	02609021 	move	s2,s3
    4b44:	3c027ff0 	lui	v0,0x7ff0
    4b48:	02421824 	and	v1,s2,v0
    4b4c:	106201ba 	beq	v1,v0,0x5238
    4b50:	aea00000 	sw	zero,0(s5)
    4b54:	02802021 	move	a0,s4
    4b58:	02202821 	move	a1,s1
    4b5c:	00003021 	move	a2,zero
    4b60:	00003821 	move	a3,zero
    4b64:	afb4002c 	sw	s4,44(sp)
    4b68:	0c002c39 	jal	0xb0e4
    4b6c:	afb10038 	sw	s1,56(sp)
    4b70:	14400019 	bnez	v0,0x4bd8
    4b74:	8fa30018 	lw	v1,24(sp)
    4b78:	24020001 	li	v0,1
    4b7c:	ac620000 	sw	v0,0(v1)
    4b80:	8fa200a0 	lw	v0,160(sp)
    4b84:	104002ea 	beqz	v0,0x5730
    4b88:	8fa300a0 	lw	v1,160(sp)
    4b8c:	3c020001 	lui	v0,0x1
    4b90:	2442bd01 	addiu	v0,v0,-17151
    4b94:	ac620000 	sw	v0,0(v1)
    4b98:	3c020001 	lui	v0,0x1
    4b9c:	2442bd00 	addiu	v0,v0,-17152
    4ba0:	afa20010 	sw	v0,16(sp)
    4ba4:	8fbf009c 	lw	ra,156(sp)
    4ba8:	8fa20010 	lw	v0,16(sp)
    4bac:	8fbe0098 	lw	s8,152(sp)
    4bb0:	8fb70094 	lw	s7,148(sp)
    4bb4:	8fb60090 	lw	s6,144(sp)
    4bb8:	8fb5008c 	lw	s5,140(sp)
    4bbc:	8fb40088 	lw	s4,136(sp)
    4bc0:	8fb30084 	lw	s3,132(sp)
    4bc4:	8fb20080 	lw	s2,128(sp)
    4bc8:	8fb1007c 	lw	s1,124(sp)
    4bcc:	8fb00078 	lw	s0,120(sp)
    4bd0:	03e00008 	jr	ra
    4bd4:	27bd00a0 	addiu	sp,sp,160
    4bd8:	02803021 	move	a2,s4
    4bdc:	02203821 	move	a3,s1
    4be0:	27a90004 	addiu	t1,sp,4
    4be4:	03a04021 	move	t0,sp
    4be8:	0c001dff 	jal	0x77fc
    4bec:	02002021 	move	a0,s0
    4bf0:	0012ad02 	srl	s5,s2,0x14
    4bf4:	16a0019d 	bnez	s5,0x526c
    4bf8:	0040f021 	move	s8,v0
    4bfc:	8fb70004 	lw	s7,4(sp)
    4c00:	8fb50000 	lw	s5,0(sp)
    4c04:	02f5a821 	addu	s5,s7,s5
    4c08:	26a20432 	addiu	v0,s5,1074
    4c0c:	28430021 	slti	v1,v0,33
    4c10:	5460036d 	bnezl	v1,0x59c8
    4c14:	00029023 	negu	s2,v0
    4c18:	00021023 	negu	v0,v0
    4c1c:	26a40412 	addiu	a0,s5,1042
    4c20:	00529004 	sllv	s2,s2,v0
    4c24:	00942006 	srlv	a0,s4,a0
    4c28:	02442025 	or	a0,s2,a0
    4c2c:	0c002d1f 	jal	0xb47c
    4c30:	26b5ffff 	addiu	s5,s5,-1
    4c34:	3c04fe10 	lui	a0,0xfe10
    4c38:	00831821 	addu	v1,a0,v1
    4c3c:	24040001 	li	a0,1
    4c40:	afa40044 	sw	a0,68(sp)
    4c44:	3c060001 	lui	a2,0x1
    4c48:	8cc6be98 	lw	a2,-16744(a2)
    4c4c:	3c070001 	lui	a3,0x1
    4c50:	8ce7be9c 	lw	a3,-16740(a3)
    4c54:	00402021 	move	a0,v0
    4c58:	0c002af8 	jal	0xabe0
    4c5c:	00602821 	move	a1,v1
    4c60:	3c060001 	lui	a2,0x1
    4c64:	8cc6bea0 	lw	a2,-16736(a2)
    4c68:	3c070001 	lui	a3,0x1
    4c6c:	8ce7bea4 	lw	a3,-16732(a3)
    4c70:	00402021 	move	a0,v0
    4c74:	0c002b10 	jal	0xac40
    4c78:	00602821 	move	a1,v1
    4c7c:	3c060001 	lui	a2,0x1
    4c80:	8cc6bea8 	lw	a2,-16728(a2)
    4c84:	3c070001 	lui	a3,0x1
    4c88:	8ce7beac 	lw	a3,-16724(a3)
    4c8c:	00602821 	move	a1,v1
    4c90:	0c002ae3 	jal	0xab8c
    4c94:	00402021 	move	a0,v0
    4c98:	02a02021 	move	a0,s5
    4c9c:	00409021 	move	s2,v0
    4ca0:	0c002cc6 	jal	0xb318
    4ca4:	00609821 	move	s3,v1
    4ca8:	3c060001 	lui	a2,0x1
    4cac:	8cc6beb0 	lw	a2,-16720(a2)
    4cb0:	3c070001 	lui	a3,0x1
    4cb4:	8ce7beb4 	lw	a3,-16716(a3)
    4cb8:	00402021 	move	a0,v0
    4cbc:	0c002b10 	jal	0xac40
    4cc0:	00602821 	move	a1,v1
    4cc4:	00403021 	move	a2,v0
    4cc8:	00603821 	move	a3,v1
    4ccc:	02402021 	move	a0,s2
    4cd0:	0c002ae3 	jal	0xab8c
    4cd4:	02602821 	move	a1,s3
    4cd8:	00409021 	move	s2,v0
    4cdc:	00609821 	move	s3,v1
    4ce0:	00402021 	move	a0,v0
    4ce4:	0c002cec 	jal	0xb3b0
    4ce8:	00602821 	move	a1,v1
    4cec:	00003021 	move	a2,zero
    4cf0:	00003821 	move	a3,zero
    4cf4:	02402021 	move	a0,s2
    4cf8:	02602821 	move	a1,s3
    4cfc:	0c002ca9 	jal	0xb2a4
    4d00:	afa20008 	sw	v0,8(sp)
    4d04:	0443000d 	bgezl	v0,0x4d3c
    4d08:	8fb20008 	lw	s2,8(sp)
    4d0c:	0c002cc6 	jal	0xb318
    4d10:	8fa40008 	lw	a0,8(sp)
    4d14:	00602821 	move	a1,v1
    4d18:	02403021 	move	a2,s2
    4d1c:	02603821 	move	a3,s3
    4d20:	0c002c56 	jal	0xb158
    4d24:	00402021 	move	a0,v0
    4d28:	8fa30008 	lw	v1,8(sp)
    4d2c:	0002102b 	sltu	v0,zero,v0
    4d30:	00621023 	subu	v0,v1,v0
    4d34:	afa20008 	sw	v0,8(sp)
    4d38:	8fb20008 	lw	s2,8(sp)
    4d3c:	02f5a823 	subu	s5,s7,s5
    4d40:	2e420017 	sltiu	v0,s2,23
    4d44:	10400255 	beqz	v0,0x569c
    4d48:	26b7ffff 	addiu	s7,s5,-1
    4d4c:	001218c0 	sll	v1,s2,0x3
    4d50:	3c020001 	lui	v0,0x1
    4d54:	2442bf88 	addiu	v0,v0,-16504
    4d58:	00431021 	addu	v0,v0,v1
    4d5c:	8c460000 	lw	a2,0(v0)
    4d60:	8c470004 	lw	a3,4(v0)
    4d64:	8fa4002c 	lw	a0,44(sp)
    4d68:	0c002ca9 	jal	0xb2a4
    4d6c:	8fa50038 	lw	a1,56(sp)
    4d70:	04410233 	bgez	v0,0x5640
    4d74:	2642ffff 	addiu	v0,s2,-1
    4d78:	afa20008 	sw	v0,8(sp)
    4d7c:	afa00040 	sw	zero,64(sp)
    4d80:	06e0024a 	bltz	s7,0x56ac
    4d84:	afa0001c 	sw	zero,28(sp)
    4d88:	8fa20008 	lw	v0,8(sp)
    4d8c:	04430231 	bgezl	v0,0x5654
    4d90:	afa0003c 	sw	zero,60(sp)
    4d94:	8fa20008 	lw	v0,8(sp)
    4d98:	8fa3001c 	lw	v1,28(sp)
    4d9c:	afa00008 	sw	zero,8(sp)
    4da0:	afa20014 	sw	v0,20(sp)
    4da4:	00621823 	subu	v1,v1,v0
    4da8:	afa3001c 	sw	v1,28(sp)
    4dac:	00021823 	negu	v1,v0
    4db0:	2ec2000a 	sltiu	v0,s6,10
    4db4:	1040022c 	beqz	v0,0x5668
    4db8:	afa3003c 	sw	v1,60(sp)
    4dbc:	2ac20006 	slti	v0,s6,6
    4dc0:	14400003 	bnez	v0,0x4dd0
    4dc4:	24120001 	li	s2,1
    4dc8:	26d6fffc 	addiu	s6,s6,-4
    4dcc:	00009021 	move	s2,zero
    4dd0:	24020003 	li	v0,3
    4dd4:	12c203ff 	beq	s6,v0,0x5dd4
    4dd8:	2ac20004 	slti	v0,s6,4
    4ddc:	14400244 	bnez	v0,0x56f0
    4de0:	24020004 	li	v0,4
    4de4:	56c20236 	bnel	s6,v0,0x56c0
    4de8:	24030001 	li	v1,1
    4dec:	24020001 	li	v0,1
    4df0:	afa20028 	sw	v0,40(sp)
    4df4:	8fa60024 	lw	a2,36(sp)
    4df8:	18c003b6 	blez	a2,0x5cd4
    4dfc:	24020001 	li	v0,1
    4e00:	afa60048 	sw	a2,72(sp)
    4e04:	afa60020 	sw	a2,32(sp)
    4e08:	28c20018 	slti	v0,a2,24
    4e0c:	ae000044 	sw	zero,68(s0)
    4e10:	1440053a 	bnez	v0,0x62fc
    4e14:	8fb30020 	lw	s3,32(sp)
    4e18:	24040001 	li	a0,1
    4e1c:	24030004 	li	v1,4
    4e20:	00031840 	sll	v1,v1,0x1
    4e24:	24620014 	addiu	v0,v1,20
    4e28:	00c2102b 	sltu	v0,a2,v0
    4e2c:	00802821 	move	a1,a0
    4e30:	1040fffb 	beqz	v0,0x4e20
    4e34:	24840001 	addiu	a0,a0,1
    4e38:	ae050044 	sw	a1,68(s0)
    4e3c:	0c001aa1 	jal	0x6a84
    4e40:	02002021 	move	a0,s0
    4e44:	2e73000f 	sltiu	s3,s3,15
    4e48:	afa20010 	sw	v0,16(sp)
    4e4c:	1260012c 	beqz	s3,0x5300
    4e50:	ae020040 	sw	v0,64(s0)
    4e54:	1240012b 	beqz	s2,0x5304
    4e58:	8fa20000 	lw	v0,0(sp)
    4e5c:	8fa40014 	lw	a0,20(sp)
    4e60:	1880041b 	blez	a0,0x5ed0
    4e64:	3082000f 	andi	v0,a0,0xf
    4e68:	000218c0 	sll	v1,v0,0x3
    4e6c:	00049903 	sra	s3,a0,0x4
    4e70:	3c020001 	lui	v0,0x1
    4e74:	2442bf88 	addiu	v0,v0,-16504
    4e78:	00431021 	addu	v0,v0,v1
    4e7c:	32630010 	andi	v1,s3,0x10
    4e80:	8c480000 	lw	t0,0(v0)
    4e84:	146003c3 	bnez	v1,0x5d94
    4e88:	8c490004 	lw	t1,4(v0)
    4e8c:	0220a821 	move	s5,s1
    4e90:	24120002 	li	s2,2
    4e94:	3c110001 	lui	s1,0x1
    4e98:	2631bf60 	addiu	s1,s1,-16544
    4e9c:	1260000f 	beqz	s3,0x4edc
    4ea0:	02802021 	move	a0,s4
    4ea4:	32620001 	andi	v0,s3,0x1
    4ea8:	01002021 	move	a0,t0
    4eac:	00139843 	sra	s3,s3,0x1
    4eb0:	10400007 	beqz	v0,0x4ed0
    4eb4:	01202821 	move	a1,t1
    4eb8:	8e260000 	lw	a2,0(s1)
    4ebc:	8e270004 	lw	a3,4(s1)
    4ec0:	0c002b10 	jal	0xac40
    4ec4:	26520001 	addiu	s2,s2,1
    4ec8:	00404021 	move	t0,v0
    4ecc:	00604821 	move	t1,v1
    4ed0:	1660fff4 	bnez	s3,0x4ea4
    4ed4:	26310008 	addiu	s1,s1,8
    4ed8:	02802021 	move	a0,s4
    4edc:	01003021 	move	a2,t0
    4ee0:	01203821 	move	a3,t1
    4ee4:	0c002bc0 	jal	0xaf00
    4ee8:	02a02821 	move	a1,s5
    4eec:	0040a021 	move	s4,v0
    4ef0:	00608821 	move	s1,v1
    4ef4:	8fa20040 	lw	v0,64(sp)
    4ef8:	10400009 	beqz	v0,0x4f20
    4efc:	02802021 	move	a0,s4
    4f00:	3c060001 	lui	a2,0x1
    4f04:	8cc6beb8 	lw	a2,-16712(a2)
    4f08:	3c070001 	lui	a3,0x1
    4f0c:	8ce7bebc 	lw	a3,-16708(a3)
    4f10:	0c002ca9 	jal	0xb2a4
    4f14:	02202821 	move	a1,s1
    4f18:	044004a9 	bltz	v0,0x61c0
    4f1c:	8fa20020 	lw	v0,32(sp)
    4f20:	0c002cc6 	jal	0xb318
    4f24:	02402021 	move	a0,s2
    4f28:	00402021 	move	a0,v0
    4f2c:	02803021 	move	a2,s4
    4f30:	02203821 	move	a3,s1
    4f34:	0c002b10 	jal	0xac40
    4f38:	00602821 	move	a1,v1
    4f3c:	3c060001 	lui	a2,0x1
    4f40:	8cc6bec8 	lw	a2,-16696(a2)
    4f44:	3c070001 	lui	a3,0x1
    4f48:	8ce7becc 	lw	a3,-16692(a3)
    4f4c:	00402021 	move	a0,v0
    4f50:	0c002ae3 	jal	0xab8c
    4f54:	00602821 	move	a1,v1
    4f58:	00409021 	move	s2,v0
    4f5c:	8fa20020 	lw	v0,32(sp)
    4f60:	3c13fcc0 	lui	s3,0xfcc0
    4f64:	104003b9 	beqz	v0,0x5e4c
    4f68:	02639821 	addu	s3,s3,v1
    4f6c:	8fa20014 	lw	v0,20(sp)
    4f70:	afa20060 	sw	v0,96(sp)
    4f74:	8fa20020 	lw	v0,32(sp)
    4f78:	afa20030 	sw	v0,48(sp)
    4f7c:	02202821 	move	a1,s1
    4f80:	0c002cec 	jal	0xb3b0
    4f84:	02802021 	move	a0,s4
    4f88:	00402021 	move	a0,v0
    4f8c:	0c002cc6 	jal	0xb318
    4f90:	0040a821 	move	s5,v0
    4f94:	00403021 	move	a2,v0
    4f98:	00603821 	move	a3,v1
    4f9c:	02802021 	move	a0,s4
    4fa0:	0c002af8 	jal	0xabe0
    4fa4:	02202821 	move	a1,s1
    4fa8:	afa3005c 	sw	v1,92(sp)
    4fac:	8fa30030 	lw	v1,48(sp)
    4fb0:	afa20058 	sw	v0,88(sp)
    4fb4:	8fb10010 	lw	s1,16(sp)
    4fb8:	2462ffff 	addiu	v0,v1,-1
    4fbc:	000218c0 	sll	v1,v0,0x3
    4fc0:	3c020001 	lui	v0,0x1
    4fc4:	2442bf88 	addiu	v0,v0,-16504
    4fc8:	00431021 	addu	v0,v0,v1
    4fcc:	8fa30028 	lw	v1,40(sp)
    4fd0:	26a80030 	addiu	t0,s5,48
    4fd4:	7c08a420 	seb	s4,t0
    4fd8:	26350001 	addiu	s5,s1,1
    4fdc:	8c460000 	lw	a2,0(v0)
    4fe0:	1060040f 	beqz	v1,0x6020
    4fe4:	8c470004 	lw	a3,4(v0)
    4fe8:	3c040001 	lui	a0,0x1
    4fec:	8c84bed8 	lw	a0,-16680(a0)
    4ff0:	3c050001 	lui	a1,0x1
    4ff4:	0c002bc0 	jal	0xaf00
    4ff8:	8ca5bedc 	lw	a1,-16676(a1)
    4ffc:	00402021 	move	a0,v0
    5000:	02403021 	move	a2,s2
    5004:	02603821 	move	a3,s3
    5008:	0c002af8 	jal	0xabe0
    500c:	00602821 	move	a1,v1
    5010:	8fa60058 	lw	a2,88(sp)
    5014:	8fa7005c 	lw	a3,92(sp)
    5018:	a2340000 	sb	s4,0(s1)
    501c:	00402021 	move	a0,v0
    5020:	00602821 	move	a1,v1
    5024:	00409021 	move	s2,v0
    5028:	0c002c73 	jal	0xb1cc
    502c:	00609821 	move	s3,v1
    5030:	1c40044b 	bgtz	v0,0x6160
    5034:	8fa60058 	lw	a2,88(sp)
    5038:	3c040001 	lui	a0,0x1
    503c:	8c84beb8 	lw	a0,-16712(a0)
    5040:	3c050001 	lui	a1,0x1
    5044:	8ca5bebc 	lw	a1,-16708(a1)
    5048:	0c002af8 	jal	0xabe0
    504c:	8fa7005c 	lw	a3,92(sp)
    5050:	00403021 	move	a2,v0
    5054:	00603821 	move	a3,v1
    5058:	02402021 	move	a0,s2
    505c:	0c002c73 	jal	0xb1cc
    5060:	02602821 	move	a1,s3
    5064:	1c40049d 	bgtz	v0,0x62dc
    5068:	8fa20060 	lw	v0,96(sp)
    506c:	8fa30030 	lw	v1,48(sp)
    5070:	24020001 	li	v0,1
    5074:	1062009f 	beq	v1,v0,0x52f4
    5078:	8fa20010 	lw	v0,16(sp)
    507c:	3c040001 	lui	a0,0x1
    5080:	8c84bec4 	lw	a0,-16700(a0)
    5084:	3c110001 	lui	s1,0x1
    5088:	8e31bec0 	lw	s1,-16704(s1)
    508c:	00431021 	addu	v0,v0,v1
    5090:	afa2004c 	sw	v0,76(sp)
    5094:	3c030001 	lui	v1,0x1
    5098:	8c63bebc 	lw	v1,-16708(v1)
    509c:	3c020001 	lui	v0,0x1
    50a0:	8c42beb8 	lw	v0,-16712(v0)
    50a4:	afb7006c 	sw	s7,108(sp)
    50a8:	afbe0064 	sw	s8,100(sp)
    50ac:	afb00068 	sw	s0,104(sp)
    50b0:	afb60070 	sw	s6,112(sp)
    50b4:	afa40050 	sw	a0,80(sp)
    50b8:	afa20030 	sw	v0,48(sp)
    50bc:	afa30034 	sw	v1,52(sp)
    50c0:	8fb60058 	lw	s6,88(sp)
    50c4:	8fb7005c 	lw	s7,92(sp)
    50c8:	02208021 	move	s0,s1
    50cc:	1000000d 	b	0x5104
    50d0:	0080f021 	move	s8,a0
    50d4:	0c002af8 	jal	0xabe0
    50d8:	00000000 	nop
    50dc:	00402021 	move	a0,v0
    50e0:	02403021 	move	a2,s2
    50e4:	02603821 	move	a3,s3
    50e8:	0c002ca9 	jal	0xb2a4
    50ec:	00602821 	move	a1,v1
    50f0:	0440046f 	bltz	v0,0x62b0
    50f4:	8fa20060 	lw	v0,96(sp)
    50f8:	8fa2004c 	lw	v0,76(sp)
    50fc:	52a2007a 	beql	s5,v0,0x52e8
    5100:	8fb7006c 	lw	s7,108(sp)
    5104:	8fa70050 	lw	a3,80(sp)
    5108:	02402021 	move	a0,s2
    510c:	02602821 	move	a1,s3
    5110:	0c002b10 	jal	0xac40
    5114:	02203021 	move	a2,s1
    5118:	02003021 	move	a2,s0
    511c:	03c03821 	move	a3,s8
    5120:	02c02021 	move	a0,s6
    5124:	02e02821 	move	a1,s7
    5128:	00409021 	move	s2,v0
    512c:	0c002b10 	jal	0xac40
    5130:	00609821 	move	s3,v1
    5134:	00602821 	move	a1,v1
    5138:	00402021 	move	a0,v0
    513c:	0060b821 	move	s7,v1
    5140:	0c002cec 	jal	0xb3b0
    5144:	0040b021 	move	s6,v0
    5148:	00402021 	move	a0,v0
    514c:	0c002cc6 	jal	0xb318
    5150:	0040a021 	move	s4,v0
    5154:	00403021 	move	a2,v0
    5158:	02c02021 	move	a0,s6
    515c:	02e02821 	move	a1,s7
    5160:	00603821 	move	a3,v1
    5164:	0c002af8 	jal	0xabe0
    5168:	26940030 	addiu	s4,s4,48
    516c:	26b50001 	addiu	s5,s5,1
    5170:	7c14a420 	seb	s4,s4
    5174:	02403021 	move	a2,s2
    5178:	02603821 	move	a3,s3
    517c:	00402021 	move	a0,v0
    5180:	00602821 	move	a1,v1
    5184:	a2b4ffff 	sb	s4,-1(s5)
    5188:	0040b021 	move	s6,v0
    518c:	0c002ca9 	jal	0xb2a4
    5190:	0060b821 	move	s7,v1
    5194:	02c03021 	move	a2,s6
    5198:	02e03821 	move	a3,s7
    519c:	8fa40030 	lw	a0,48(sp)
    51a0:	0441ffcc 	bgez	v0,0x50d4
    51a4:	8fa50034 	lw	a1,52(sp)
    51a8:	8fa20060 	lw	v0,96(sp)
    51ac:	8fbe0064 	lw	s8,100(sp)
    51b0:	8fb00068 	lw	s0,104(sp)
    51b4:	24420001 	addiu	v0,v0,1
    51b8:	afa20014 	sw	v0,20(sp)
    51bc:	03c02821 	move	a1,s8
    51c0:	0c001acb 	jal	0x6b2c
    51c4:	02002021 	move	a0,s0
    51c8:	8fa20018 	lw	v0,24(sp)
    51cc:	8fa30014 	lw	v1,20(sp)
    51d0:	a2a00000 	sb	zero,0(s5)
    51d4:	ac430000 	sw	v1,0(v0)
    51d8:	8fa200a0 	lw	v0,160(sp)
    51dc:	1040fe71 	beqz	v0,0x4ba4
    51e0:	8fbf009c 	lw	ra,156(sp)
    51e4:	ac550000 	sw	s5,0(v0)
    51e8:	8fbe0098 	lw	s8,152(sp)
    51ec:	8fa20010 	lw	v0,16(sp)
    51f0:	8fb70094 	lw	s7,148(sp)
    51f4:	8fb60090 	lw	s6,144(sp)
    51f8:	8fb5008c 	lw	s5,140(sp)
    51fc:	8fb40088 	lw	s4,136(sp)
    5200:	8fb30084 	lw	s3,132(sp)
    5204:	8fb20080 	lw	s2,128(sp)
    5208:	8fb1007c 	lw	s1,124(sp)
    520c:	8fb00078 	lw	s0,120(sp)
    5210:	03e00008 	jr	ra
    5214:	27bd00a0 	addiu	sp,sp,160
    5218:	24020001 	li	v0,1
    521c:	7e71f000 	ext	s1,s3,0x0,0x1f
    5220:	aea20000 	sw	v0,0(s5)
    5224:	02209021 	move	s2,s1
    5228:	3c027ff0 	lui	v0,0x7ff0
    522c:	02421824 	and	v1,s2,v0
    5230:	1462fe49 	bne	v1,v0,0x4b58
    5234:	02802021 	move	a0,s4
    5238:	8fa30018 	lw	v1,24(sp)
    523c:	7e529800 	ext	s2,s2,0x0,0x14
    5240:	2402270f 	li	v0,9999
    5244:	0254a025 	or	s4,s2,s4
    5248:	12800011 	beqz	s4,0x5290
    524c:	ac620000 	sw	v0,0(v1)
    5250:	8fa200a0 	lw	v0,160(sp)
    5254:	54400290 	bnezl	v0,0x5c98
    5258:	8fa300a0 	lw	v1,160(sp)
    525c:	3c020001 	lui	v0,0x1
    5260:	2442be88 	addiu	v0,v0,-16760
    5264:	1000fe4f 	b	0x4ba4
    5268:	afa20010 	sw	v0,16(sp)
    526c:	8fa20038 	lw	v0,56(sp)
    5270:	3c043ff0 	lui	a0,0x3ff0
    5274:	26b5fc01 	addiu	s5,s5,-1023
    5278:	7c439800 	ext	v1,v0,0x0,0x14
    527c:	00641825 	or	v1,v1,a0
    5280:	8fa2002c 	lw	v0,44(sp)
    5284:	8fb70004 	lw	s7,4(sp)
    5288:	1000fe6e 	b	0x4c44
    528c:	afa00044 	sw	zero,68(sp)
    5290:	8fa300a0 	lw	v1,160(sp)
    5294:	3c020001 	lui	v0,0x1
    5298:	2442be8c 	addiu	v0,v0,-16756
    529c:	afa20010 	sw	v0,16(sp)
    52a0:	3c020001 	lui	v0,0x1
    52a4:	2442be94 	addiu	v0,v0,-16748
    52a8:	1060fe3e 	beqz	v1,0x4ba4
    52ac:	8fa300a0 	lw	v1,160(sp)
    52b0:	ac620000 	sw	v0,0(v1)
    52b4:	8fbf009c 	lw	ra,156(sp)
    52b8:	8fa20010 	lw	v0,16(sp)
    52bc:	8fbe0098 	lw	s8,152(sp)
    52c0:	8fb70094 	lw	s7,148(sp)
    52c4:	8fb60090 	lw	s6,144(sp)
    52c8:	8fb5008c 	lw	s5,140(sp)
    52cc:	8fb40088 	lw	s4,136(sp)
    52d0:	8fb30084 	lw	s3,132(sp)
    52d4:	8fb20080 	lw	s2,128(sp)
    52d8:	8fb1007c 	lw	s1,124(sp)
    52dc:	8fb00078 	lw	s0,120(sp)
    52e0:	03e00008 	jr	ra
    52e4:	27bd00a0 	addiu	sp,sp,160
    52e8:	8fbe0064 	lw	s8,100(sp)
    52ec:	8fb00068 	lw	s0,104(sp)
    52f0:	8fb60070 	lw	s6,112(sp)
    52f4:	8fa2002c 	lw	v0,44(sp)
    52f8:	8fb10038 	lw	s1,56(sp)
    52fc:	afa20030 	sw	v0,48(sp)
    5300:	8fa20000 	lw	v0,0(sp)
    5304:	044000af 	bltz	v0,0x55c4
    5308:	8fa40014 	lw	a0,20(sp)
    530c:	2883000f 	slti	v1,a0,15
    5310:	106000ad 	beqz	v1,0x55c8
    5314:	8fa30028 	lw	v1,40(sp)
    5318:	000418c0 	sll	v1,a0,0x3
    531c:	3c020001 	lui	v0,0x1
    5320:	2442bf88 	addiu	v0,v0,-16504
    5324:	00431021 	addu	v0,v0,v1
    5328:	8c520000 	lw	s2,0(v0)
    532c:	8c530004 	lw	s3,4(v0)
    5330:	8fa20024 	lw	v0,36(sp)
    5334:	04410018 	bgez	v0,0x5398
    5338:	8fa20020 	lw	v0,32(sp)
    533c:	5c400017 	bgtzl	v0,0x539c
    5340:	8fb60030 	lw	s6,48(sp)
    5344:	144002d9 	bnez	v0,0x5eac
    5348:	02402021 	move	a0,s2
    534c:	3c060001 	lui	a2,0x1
    5350:	8cc6bed0 	lw	a2,-16688(a2)
    5354:	3c070001 	lui	a3,0x1
    5358:	8ce7bed4 	lw	a3,-16684(a3)
    535c:	0c002b10 	jal	0xac40
    5360:	02602821 	move	a1,s3
    5364:	8fb60030 	lw	s6,48(sp)
    5368:	02203821 	move	a3,s1
    536c:	00402021 	move	a0,v0
    5370:	02c03021 	move	a2,s6
    5374:	0c002c8e 	jal	0xb238
    5378:	00602821 	move	a1,v1
    537c:	00009821 	move	s3,zero
    5380:	0440021f 	bltz	v0,0x5c00
    5384:	00009021 	move	s2,zero
    5388:	8fa20024 	lw	v0,36(sp)
    538c:	8fb50010 	lw	s5,16(sp)
    5390:	10000221 	b	0x5c18
    5394:	00028827 	nor	s1,zero,v0
    5398:	8fb60030 	lw	s6,48(sp)
    539c:	02403021 	move	a2,s2
    53a0:	02603821 	move	a3,s3
    53a4:	02202821 	move	a1,s1
    53a8:	0c002bc0 	jal	0xaf00
    53ac:	02c02021 	move	a0,s6
    53b0:	00602821 	move	a1,v1
    53b4:	0c002cec 	jal	0xb3b0
    53b8:	00402021 	move	a0,v0
    53bc:	00402021 	move	a0,v0
    53c0:	0c002cc6 	jal	0xb318
    53c4:	0040a021 	move	s4,v0
    53c8:	00402021 	move	a0,v0
    53cc:	02403021 	move	a2,s2
    53d0:	02603821 	move	a3,s3
    53d4:	0c002b10 	jal	0xac40
    53d8:	00602821 	move	a1,v1
    53dc:	00403021 	move	a2,v0
    53e0:	02202821 	move	a1,s1
    53e4:	02c02021 	move	a0,s6
    53e8:	0c002af8 	jal	0xabe0
    53ec:	00603821 	move	a3,v1
    53f0:	8fb10010 	lw	s1,16(sp)
    53f4:	26850030 	addiu	a1,s4,48
    53f8:	24040001 	li	a0,1
    53fc:	a2250000 	sb	a1,0(s1)
    5400:	8fa50014 	lw	a1,20(sp)
    5404:	24a50001 	addiu	a1,a1,1
    5408:	afa50014 	sw	a1,20(sp)
    540c:	8fa50020 	lw	a1,32(sp)
    5410:	10a40046 	beq	a1,a0,0x552c
    5414:	26350001 	addiu	s5,s1,1
    5418:	3c060001 	lui	a2,0x1
    541c:	8cc6bec0 	lw	a2,-16704(a2)
    5420:	3c070001 	lui	a3,0x1
    5424:	8ce7bec4 	lw	a3,-16700(a3)
    5428:	00402021 	move	a0,v0
    542c:	0c002b10 	jal	0xac40
    5430:	00602821 	move	a1,v1
    5434:	00402021 	move	a0,v0
    5438:	00003021 	move	a2,zero
    543c:	00003821 	move	a3,zero
    5440:	00602821 	move	a1,v1
    5444:	0040b021 	move	s6,v0
    5448:	0c002c39 	jal	0xb0e4
    544c:	0060b821 	move	s7,v1
    5450:	1040ff5a 	beqz	v0,0x51bc
    5454:	8fa50020 	lw	a1,32(sp)
    5458:	02201021 	move	v0,s1
    545c:	3c030001 	lui	v1,0x1
    5460:	8c63bec4 	lw	v1,-16700(v1)
    5464:	0045a021 	addu	s4,v0,a1
    5468:	3c020001 	lui	v0,0x1
    546c:	8c42bec0 	lw	v0,-16704(v0)
    5470:	26310002 	addiu	s1,s1,2
    5474:	afa3000c 	sw	v1,12(sp)
    5478:	afa20008 	sw	v0,8(sp)
    547c:	1000000c 	b	0x54b0
    5480:	afb0001c 	sw	s0,28(sp)
    5484:	0c002b10 	jal	0xac40
    5488:	26310001 	addiu	s1,s1,1
    548c:	00402021 	move	a0,v0
    5490:	00003021 	move	a2,zero
    5494:	00003821 	move	a3,zero
    5498:	00602821 	move	a1,v1
    549c:	0040b021 	move	s6,v0
    54a0:	0c002c39 	jal	0xb0e4
    54a4:	0060b821 	move	s7,v1
    54a8:	5040ff44 	beqzl	v0,0x51bc
    54ac:	8fb0001c 	lw	s0,28(sp)
    54b0:	02403021 	move	a2,s2
    54b4:	02603821 	move	a3,s3
    54b8:	02c02021 	move	a0,s6
    54bc:	0c002bc0 	jal	0xaf00
    54c0:	02e02821 	move	a1,s7
    54c4:	00602821 	move	a1,v1
    54c8:	0c002cec 	jal	0xb3b0
    54cc:	00402021 	move	a0,v0
    54d0:	00402021 	move	a0,v0
    54d4:	0c002cc6 	jal	0xb318
    54d8:	00408021 	move	s0,v0
    54dc:	00402021 	move	a0,v0
    54e0:	02403021 	move	a2,s2
    54e4:	02603821 	move	a3,s3
    54e8:	0c002b10 	jal	0xac40
    54ec:	00602821 	move	a1,v1
    54f0:	00403021 	move	a2,v0
    54f4:	00603821 	move	a3,v1
    54f8:	02c02021 	move	a0,s6
    54fc:	0c002af8 	jal	0xabe0
    5500:	02e02821 	move	a1,s7
    5504:	26090030 	addiu	t1,s0,48
    5508:	00402021 	move	a0,v0
    550c:	00602821 	move	a1,v1
    5510:	8fa60008 	lw	a2,8(sp)
    5514:	8fa7000c 	lw	a3,12(sp)
    5518:	0220a821 	move	s5,s1
    551c:	1691ffd9 	bne	s4,s1,0x5484
    5520:	a229ffff 	sb	t1,-1(s1)
    5524:	0200a021 	move	s4,s0
    5528:	8fb0001c 	lw	s0,28(sp)
    552c:	00403021 	move	a2,v0
    5530:	00402021 	move	a0,v0
    5534:	00603821 	move	a3,v1
    5538:	0c002ae3 	jal	0xab8c
    553c:	00602821 	move	a1,v1
    5540:	00402021 	move	a0,v0
    5544:	02403021 	move	a2,s2
    5548:	02603821 	move	a3,s3
    554c:	00602821 	move	a1,v1
    5550:	0040b021 	move	s6,v0
    5554:	0c002c73 	jal	0xb1cc
    5558:	0060b821 	move	s7,v1
    555c:	5c40000c 	bgtzl	v0,0x5590
    5560:	82b4ffff 	lb	s4,-1(s5)
    5564:	02403021 	move	a2,s2
    5568:	02603821 	move	a3,s3
    556c:	02c02021 	move	a0,s6
    5570:	0c002c39 	jal	0xb0e4
    5574:	02e02821 	move	a1,s7
    5578:	5440ff11 	bnezl	v0,0x51c0
    557c:	03c02821 	move	a1,s8
    5580:	32880001 	andi	t0,s4,0x1
    5584:	5100ff0e 	beqzl	t0,0x51c0
    5588:	03c02821 	move	a1,s8
    558c:	82b4ffff 	lb	s4,-1(s5)
    5590:	24030039 	li	v1,57
    5594:	10000005 	b	0x55ac
    5598:	8fa40010 	lw	a0,16(sp)
    559c:	5082032a 	beql	a0,v0,0x6248
    55a0:	8fa30014 	lw	v1,20(sp)
    55a4:	8054ffff 	lb	s4,-1(v0)
    55a8:	0040a821 	move	s5,v0
    55ac:	1283fffb 	beq	s4,v1,0x559c
    55b0:	26a2ffff 	addiu	v0,s5,-1
    55b4:	26830001 	addiu	v1,s4,1
    55b8:	7c031c20 	seb	v1,v1
    55bc:	1000feff 	b	0x51bc
    55c0:	a0430000 	sb	v1,0(v0)
    55c4:	8fa30028 	lw	v1,40(sp)
    55c8:	10600069 	beqz	v1,0x5770
    55cc:	8fb3003c 	lw	s3,60(sp)
    55d0:	2ad50002 	slti	s5,s6,2
    55d4:	16a00201 	bnez	s5,0x5ddc
    55d8:	8fa3003c 	lw	v1,60(sp)
    55dc:	8fa20020 	lw	v0,32(sp)
    55e0:	2453ffff 	addiu	s3,v0,-1
    55e4:	0073102a 	slt	v0,v1,s3
    55e8:	50400008 	beqzl	v0,0x560c
    55ec:	00739823 	subu	s3,v1,s3
    55f0:	8fa2003c 	lw	v0,60(sp)
    55f4:	8fa30008 	lw	v1,8(sp)
    55f8:	afb3003c 	sw	s3,60(sp)
    55fc:	02621023 	subu	v0,s3,v0
    5600:	00621021 	addu	v0,v1,v0
    5604:	afa20008 	sw	v0,8(sp)
    5608:	00009821 	move	s3,zero
    560c:	8fa3001c 	lw	v1,28(sp)
    5610:	8fa20020 	lw	v0,32(sp)
    5614:	04400005 	bltz	v0,0x562c
    5618:	0062a023 	subu	s4,v1,v0
    561c:	02e2b821 	addu	s7,s7,v0
    5620:	00621021 	addu	v0,v1,v0
    5624:	0060a021 	move	s4,v1
    5628:	afa2001c 	sw	v0,28(sp)
    562c:	24050001 	li	a1,1
    5630:	0c001bbf 	jal	0x6efc
    5634:	02002021 	move	a0,s0
    5638:	10000050 	b	0x577c
    563c:	00409021 	move	s2,v0
    5640:	06e0001a 	bltz	s7,0x56ac
    5644:	afa00040 	sw	zero,64(sp)
    5648:	afa0001c 	sw	zero,28(sp)
    564c:	8fa20008 	lw	v0,8(sp)
    5650:	afa0003c 	sw	zero,60(sp)
    5654:	02e2b821 	addu	s7,s7,v0
    5658:	afa20014 	sw	v0,20(sp)
    565c:	2ec2000a 	sltiu	v0,s6,10
    5660:	1440fdd7 	bnez	v0,0x4dc0
    5664:	2ac20006 	slti	v0,s6,6
    5668:	24020001 	li	v0,1
    566c:	afa20028 	sw	v0,40(sp)
    5670:	2402ffff 	li	v0,-1
    5674:	2413ffff 	li	s3,-1
    5678:	24120001 	li	s2,1
    567c:	0000b021 	move	s6,zero
    5680:	afa20020 	sw	v0,32(sp)
    5684:	afa00024 	sw	zero,36(sp)
    5688:	8fa20020 	lw	v0,32(sp)
    568c:	ae000044 	sw	zero,68(s0)
    5690:	00002821 	move	a1,zero
    5694:	1000fde9 	b	0x4e3c
    5698:	afa20048 	sw	v0,72(sp)
    569c:	24020001 	li	v0,1
    56a0:	afa20040 	sw	v0,64(sp)
    56a4:	06e1fdb8 	bgez	s7,0x4d88
    56a8:	afa0001c 	sw	zero,28(sp)
    56ac:	24020001 	li	v0,1
    56b0:	00551023 	subu	v0,v0,s5
    56b4:	afa2001c 	sw	v0,28(sp)
    56b8:	1000fdb3 	b	0x4d88
    56bc:	0000b821 	move	s7,zero
    56c0:	24020005 	li	v0,5
    56c4:	16c2000d 	bne	s6,v0,0x56fc
    56c8:	afa30028 	sw	v1,40(sp)
    56cc:	8fa20024 	lw	v0,36(sp)
    56d0:	8fa30014 	lw	v1,20(sp)
    56d4:	24060001 	li	a2,1
    56d8:	00431021 	addu	v0,v0,v1
    56dc:	afa20048 	sw	v0,72(sp)
    56e0:	24420001 	addiu	v0,v0,1
    56e4:	afa20020 	sw	v0,32(sp)
    56e8:	1000fdc7 	b	0x4e08
    56ec:	0046302c 	max	a2,v0,a2
    56f0:	24020002 	li	v0,2
    56f4:	12c2fdbf 	beq	s6,v0,0x4df4
    56f8:	afa00028 	sw	zero,40(sp)
    56fc:	ae000044 	sw	zero,68(s0)
    5700:	00002821 	move	a1,zero
    5704:	0c001aa1 	jal	0x6a84
    5708:	02002021 	move	a0,s0
    570c:	afa20010 	sw	v0,16(sp)
    5710:	ae020040 	sw	v0,64(s0)
    5714:	24020001 	li	v0,1
    5718:	afa20028 	sw	v0,40(sp)
    571c:	2402ffff 	li	v0,-1
    5720:	afa20020 	sw	v0,32(sp)
    5724:	afa00024 	sw	zero,36(sp)
    5728:	1000fef5 	b	0x5300
    572c:	afa20048 	sw	v0,72(sp)
    5730:	8fbf009c 	lw	ra,156(sp)
    5734:	3c020001 	lui	v0,0x1
    5738:	2442bd00 	addiu	v0,v0,-17152
    573c:	afa20010 	sw	v0,16(sp)
    5740:	8fa20010 	lw	v0,16(sp)
    5744:	8fbe0098 	lw	s8,152(sp)
    5748:	8fb70094 	lw	s7,148(sp)
    574c:	8fb60090 	lw	s6,144(sp)
    5750:	8fb5008c 	lw	s5,140(sp)
    5754:	8fb40088 	lw	s4,136(sp)
    5758:	8fb30084 	lw	s3,132(sp)
    575c:	8fb20080 	lw	s2,128(sp)
    5760:	8fb1007c 	lw	s1,124(sp)
    5764:	8fb00078 	lw	s0,120(sp)
    5768:	03e00008 	jr	ra
    576c:	27bd00a0 	addiu	sp,sp,160
    5770:	8fb4001c 	lw	s4,28(sp)
    5774:	00009021 	move	s2,zero
    5778:	2ad50002 	slti	s5,s6,2
    577c:	1a800009 	blez	s4,0x57a4
    5780:	8fa2003c 	lw	v0,60(sp)
    5784:	1ae00007 	blez	s7,0x57a4
    5788:	8fa3001c 	lw	v1,28(sp)
    578c:	0297102d 	min	v0,s4,s7
    5790:	0282a023 	subu	s4,s4,v0
    5794:	00621823 	subu	v1,v1,v0
    5798:	afa3001c 	sw	v1,28(sp)
    579c:	02e2b823 	subu	s7,s7,v0
    57a0:	8fa2003c 	lw	v0,60(sp)
    57a4:	10400018 	beqz	v0,0x5808
    57a8:	8fa20028 	lw	v0,40(sp)
    57ac:	10400135 	beqz	v0,0x5c84
    57b0:	8fa6003c 	lw	a2,60(sp)
    57b4:	1a600011 	blez	s3,0x57fc
    57b8:	8fa2003c 	lw	v0,60(sp)
    57bc:	02402821 	move	a1,s2
    57c0:	02603021 	move	a2,s3
    57c4:	0c001c5a 	jal	0x7168
    57c8:	02002021 	move	a0,s0
    57cc:	00402821 	move	a1,v0
    57d0:	03c03021 	move	a2,s8
    57d4:	02002021 	move	a0,s0
    57d8:	0c001bcc 	jal	0x6f30
    57dc:	00409021 	move	s2,v0
    57e0:	03c02821 	move	a1,s8
    57e4:	02002021 	move	a0,s0
    57e8:	0c001acb 	jal	0x6b2c
    57ec:	afa2002c 	sw	v0,44(sp)
    57f0:	8fa2002c 	lw	v0,44(sp)
    57f4:	0040f021 	move	s8,v0
    57f8:	8fa2003c 	lw	v0,60(sp)
    57fc:	00533023 	subu	a2,v0,s3
    5800:	14c00121 	bnez	a2,0x5c88
    5804:	03c02821 	move	a1,s8
    5808:	24050001 	li	a1,1
    580c:	0c001bbf 	jal	0x6efc
    5810:	02002021 	move	a0,s0
    5814:	8fa60008 	lw	a2,8(sp)
    5818:	1cc0006d 	bgtz	a2,0x59d0
    581c:	00409821 	move	s3,v0
    5820:	16a00124 	bnez	s5,0x5cb4
    5824:	afa0002c 	sw	zero,44(sp)
    5828:	8fa30008 	lw	v1,8(sp)
    582c:	1460006e 	bnez	v1,0x59e8
    5830:	24020001 	li	v0,1
    5834:	00571021 	addu	v0,v0,s7
    5838:	3042001f 	andi	v0,v0,0x1f
    583c:	50400008 	beqzl	v0,0x5860
    5840:	2402001c 	li	v0,28
    5844:	24030020 	li	v1,32
    5848:	00621823 	subu	v1,v1,v0
    584c:	28640005 	slti	a0,v1,5
    5850:	148002a5 	bnez	a0,0x62e8
    5854:	24040004 	li	a0,4
    5858:	2403001c 	li	v1,28
    585c:	00621023 	subu	v0,v1,v0
    5860:	8fa3001c 	lw	v1,28(sp)
    5864:	0282a021 	addu	s4,s4,v0
    5868:	02e2b821 	addu	s7,s7,v0
    586c:	00621821 	addu	v1,v1,v0
    5870:	afa3001c 	sw	v1,28(sp)
    5874:	8fa2001c 	lw	v0,28(sp)
    5878:	18400005 	blez	v0,0x5890
    587c:	03c02821 	move	a1,s8
    5880:	00403021 	move	a2,v0
    5884:	0c001cab 	jal	0x72ac
    5888:	02002021 	move	a0,s0
    588c:	0040f021 	move	s8,v0
    5890:	1ae00007 	blez	s7,0x58b0
    5894:	8fa20040 	lw	v0,64(sp)
    5898:	02602821 	move	a1,s3
    589c:	02e03021 	move	a2,s7
    58a0:	0c001cab 	jal	0x72ac
    58a4:	02002021 	move	a0,s0
    58a8:	00409821 	move	s3,v0
    58ac:	8fa20040 	lw	v0,64(sp)
    58b0:	144000e1 	bnez	v0,0x5c38
    58b4:	02602821 	move	a1,s3
    58b8:	8fa20020 	lw	v0,32(sp)
    58bc:	184000c0 	blez	v0,0x5bc0
    58c0:	8fa20014 	lw	v0,20(sp)
    58c4:	24420001 	addiu	v0,v0,1
    58c8:	afa20014 	sw	v0,20(sp)
    58cc:	8fa20028 	lw	v0,40(sp)
    58d0:	1440005b 	bnez	v0,0x5a40
    58d4:	00000000 	nop
    58d8:	8fb50010 	lw	s5,16(sp)
    58dc:	24110001 	li	s1,1
    58e0:	10000004 	b	0x58f4
    58e4:	8fb40020 	lw	s4,32(sp)
    58e8:	0c001ad6 	jal	0x6b58
    58ec:	26310001 	addiu	s1,s1,1
    58f0:	0040f021 	move	s8,v0
    58f4:	02602821 	move	a1,s3
    58f8:	0c00121b 	jal	0x486c
    58fc:	03c02021 	move	a0,s8
    5900:	24420030 	addiu	v0,v0,48
    5904:	26b50001 	addiu	s5,s5,1
    5908:	0234402a 	slt	t0,s1,s4
    590c:	00003821 	move	a3,zero
    5910:	2406000a 	li	a2,10
    5914:	03c02821 	move	a1,s8
    5918:	02002021 	move	a0,s0
    591c:	1500fff2 	bnez	t0,0x58e8
    5920:	a2a2ffff 	sb	v0,-1(s5)
    5924:	00401821 	move	v1,v0
    5928:	00008821 	move	s1,zero
    592c:	03c02821 	move	a1,s8
    5930:	24060001 	li	a2,1
    5934:	02002021 	move	a0,s0
    5938:	0c001cab 	jal	0x72ac
    593c:	afa30008 	sw	v1,8(sp)
    5940:	00402021 	move	a0,v0
    5944:	02602821 	move	a1,s3
    5948:	0c001d03 	jal	0x740c
    594c:	0040f021 	move	s8,v0
    5950:	184000e4 	blez	v0,0x5ce4
    5954:	82a4ffff 	lb	a0,-1(s5)
    5958:	24030039 	li	v1,57
    595c:	10000005 	b	0x5974
    5960:	8fa50010 	lw	a1,16(sp)
    5964:	50a20154 	beql	a1,v0,0x5eb8
    5968:	8fa30010 	lw	v1,16(sp)
    596c:	8044ffff 	lb	a0,-1(v0)
    5970:	0040a821 	move	s5,v0
    5974:	1083fffb 	beq	a0,v1,0x5964
    5978:	26a2ffff 	addiu	v0,s5,-1
    597c:	24840001 	addiu	a0,a0,1
    5980:	a0440000 	sb	a0,0(v0)
    5984:	02602821 	move	a1,s3
    5988:	0c001acb 	jal	0x6b2c
    598c:	02002021 	move	a0,s0
    5990:	1240fe0b 	beqz	s2,0x51c0
    5994:	03c02821 	move	a1,s8
    5998:	12200007 	beqz	s1,0x59b8
    599c:	02402821 	move	a1,s2
    59a0:	12320005 	beq	s1,s2,0x59b8
    59a4:	00000000 	nop
    59a8:	02202821 	move	a1,s1
    59ac:	0c001acb 	jal	0x6b2c
    59b0:	02002021 	move	a0,s0
    59b4:	02402821 	move	a1,s2
    59b8:	0c001acb 	jal	0x6b2c
    59bc:	02002021 	move	a0,s0
    59c0:	1000fdff 	b	0x51c0
    59c4:	03c02821 	move	a1,s8
    59c8:	1000fc98 	b	0x4c2c
    59cc:	02542004 	sllv	a0,s4,s2
    59d0:	00402821 	move	a1,v0
    59d4:	0c001c5a 	jal	0x7168
    59d8:	02002021 	move	a0,s0
    59dc:	16a000dc 	bnez	s5,0x5d50
    59e0:	00409821 	move	s3,v0
    59e4:	afa0002c 	sw	zero,44(sp)
    59e8:	8e620010 	lw	v0,16(s3)
    59ec:	24420003 	addiu	v0,v0,3
    59f0:	00021080 	sll	v0,v0,0x2
    59f4:	02621021 	addu	v0,s3,v0
    59f8:	0c001b71 	jal	0x6dc4
    59fc:	8c440004 	lw	a0,4(v0)
    5a00:	24030020 	li	v1,32
    5a04:	1000ff8b 	b	0x5834
    5a08:	00621023 	subu	v0,v1,v0
    5a0c:	02402821 	move	a1,s2
    5a10:	00003821 	move	a3,zero
    5a14:	2406000a 	li	a2,10
    5a18:	0c001ad6 	jal	0x6b58
    5a1c:	02002021 	move	a0,s0
    5a20:	00409021 	move	s2,v0
    5a24:	8fa20048 	lw	v0,72(sp)
    5a28:	5c400005 	bgtzl	v0,0x5a40
    5a2c:	afa20020 	sw	v0,32(sp)
    5a30:	2ac20003 	slti	v0,s6,3
    5a34:	10400226 	beqz	v0,0x62d0
    5a38:	8fa20048 	lw	v0,72(sp)
    5a3c:	afa20020 	sw	v0,32(sp)
    5a40:	1a800007 	blez	s4,0x5a60
    5a44:	8fa2002c 	lw	v0,44(sp)
    5a48:	02402821 	move	a1,s2
    5a4c:	02803021 	move	a2,s4
    5a50:	0c001cab 	jal	0x72ac
    5a54:	02002021 	move	a0,s0
    5a58:	00409021 	move	s2,v0
    5a5c:	8fa2002c 	lw	v0,44(sp)
    5a60:	1440015f 	bnez	v0,0x5fe0
    5a64:	0240b821 	move	s7,s2
    5a68:	8fb40010 	lw	s4,16(sp)
    5a6c:	8fa30020 	lw	v1,32(sp)
    5a70:	afb6001c 	sw	s6,28(sp)
    5a74:	2682ffff 	addiu	v0,s4,-1
    5a78:	00431021 	addu	v0,v0,v1
    5a7c:	afa20024 	sw	v0,36(sp)
    5a80:	8fa20030 	lw	v0,48(sp)
    5a84:	30420001 	andi	v0,v0,0x1
    5a88:	afa20008 	sw	v0,8(sp)
    5a8c:	02602821 	move	a1,s3
    5a90:	0c00121b 	jal	0x486c
    5a94:	03c02021 	move	a0,s8
    5a98:	02402821 	move	a1,s2
    5a9c:	03c02021 	move	a0,s8
    5aa0:	0040b021 	move	s6,v0
    5aa4:	0c001d03 	jal	0x740c
    5aa8:	afa20028 	sw	v0,40(sp)
    5aac:	02602821 	move	a1,s3
    5ab0:	02e03021 	move	a2,s7
    5ab4:	02002021 	move	a0,s0
    5ab8:	0c001d1c 	jal	0x7470
    5abc:	00408821 	move	s1,v0
    5ac0:	0040a821 	move	s5,v0
    5ac4:	8c42000c 	lw	v0,12(v0)
    5ac8:	26d60030 	addiu	s6,s6,48
    5acc:	1440002f 	bnez	v0,0x5b8c
    5ad0:	02a02821 	move	a1,s5
    5ad4:	0c001d03 	jal	0x740c
    5ad8:	03c02021 	move	a0,s8
    5adc:	02002021 	move	a0,s0
    5ae0:	02a02821 	move	a1,s5
    5ae4:	0c001acb 	jal	0x6b2c
    5ae8:	afa20020 	sw	v0,32(sp)
    5aec:	8fa3001c 	lw	v1,28(sp)
    5af0:	8fa20020 	lw	v0,32(sp)
    5af4:	00432025 	or	a0,v0,v1
    5af8:	8fa30008 	lw	v1,8(sp)
    5afc:	00642025 	or	a0,v1,a0
    5b00:	508001d9 	beqzl	a0,0x6268
    5b04:	24020039 	li	v0,57
    5b08:	06200119 	bltz	s1,0x5f70
    5b0c:	26950001 	addiu	s5,s4,1
    5b10:	8fa3001c 	lw	v1,28(sp)
    5b14:	02238825 	or	s1,s1,v1
    5b18:	8fa30008 	lw	v1,8(sp)
    5b1c:	00718825 	or	s1,v1,s1
    5b20:	12200113 	beqz	s1,0x5f70
    5b24:	00000000 	nop
    5b28:	1c40019a 	bgtz	v0,0x6194
    5b2c:	8fa20024 	lw	v0,36(sp)
    5b30:	1054019f 	beq	v0,s4,0x61b0
    5b34:	a2960000 	sb	s6,0(s4)
    5b38:	03c02821 	move	a1,s8
    5b3c:	00003821 	move	a3,zero
    5b40:	2406000a 	li	a2,10
    5b44:	0c001ad6 	jal	0x6b58
    5b48:	02002021 	move	a0,s0
    5b4c:	12570013 	beq	s2,s7,0x5b9c
    5b50:	0040f021 	move	s8,v0
    5b54:	02402821 	move	a1,s2
    5b58:	02002021 	move	a0,s0
    5b5c:	00003821 	move	a3,zero
    5b60:	0c001ad6 	jal	0x6b58
    5b64:	2406000a 	li	a2,10
    5b68:	02e02821 	move	a1,s7
    5b6c:	00003821 	move	a3,zero
    5b70:	2406000a 	li	a2,10
    5b74:	02002021 	move	a0,s0
    5b78:	0c001ad6 	jal	0x6b58
    5b7c:	00409021 	move	s2,v0
    5b80:	0040b821 	move	s7,v0
    5b84:	1000ffc1 	b	0x5a8c
    5b88:	02a0a021 	move	s4,s5
    5b8c:	0c001acb 	jal	0x6b2c
    5b90:	02002021 	move	a0,s0
    5b94:	1000ffdc 	b	0x5b08
    5b98:	24020001 	li	v0,1
    5b9c:	02402821 	move	a1,s2
    5ba0:	00003821 	move	a3,zero
    5ba4:	2406000a 	li	a2,10
    5ba8:	0c001ad6 	jal	0x6b58
    5bac:	02002021 	move	a0,s0
    5bb0:	00409021 	move	s2,v0
    5bb4:	0040b821 	move	s7,v0
    5bb8:	1000ffb4 	b	0x5a8c
    5bbc:	02a0a021 	move	s4,s5
    5bc0:	2ac20003 	slti	v0,s6,3
    5bc4:	14400055 	bnez	v0,0x5d1c
    5bc8:	8fa20014 	lw	v0,20(sp)
    5bcc:	8fa20020 	lw	v0,32(sp)
    5bd0:	1440fded 	bnez	v0,0x5388
    5bd4:	02602821 	move	a1,s3
    5bd8:	02002021 	move	a0,s0
    5bdc:	00003821 	move	a3,zero
    5be0:	0c001ad6 	jal	0x6b58
    5be4:	24060005 	li	a2,5
    5be8:	00402821 	move	a1,v0
    5bec:	03c02021 	move	a0,s8
    5bf0:	0c001d03 	jal	0x740c
    5bf4:	00409821 	move	s3,v0
    5bf8:	1840fde4 	blez	v0,0x538c
    5bfc:	8fa20024 	lw	v0,36(sp)
    5c00:	8fa30010 	lw	v1,16(sp)
    5c04:	24020031 	li	v0,49
    5c08:	a0620000 	sb	v0,0(v1)
    5c0c:	8fa20014 	lw	v0,20(sp)
    5c10:	24750001 	addiu	s5,v1,1
    5c14:	24510001 	addiu	s1,v0,1
    5c18:	02602821 	move	a1,s3
    5c1c:	0c001acb 	jal	0x6b2c
    5c20:	02002021 	move	a0,s0
    5c24:	26220001 	addiu	v0,s1,1
    5c28:	1640ff62 	bnez	s2,0x59b4
    5c2c:	afa20014 	sw	v0,20(sp)
    5c30:	1000fd63 	b	0x51c0
    5c34:	03c02821 	move	a1,s8
    5c38:	0c001d03 	jal	0x740c
    5c3c:	03c02021 	move	a0,s8
    5c40:	0441ff1e 	bgez	v0,0x58bc
    5c44:	8fa20020 	lw	v0,32(sp)
    5c48:	03c02821 	move	a1,s8
    5c4c:	00003821 	move	a3,zero
    5c50:	2406000a 	li	a2,10
    5c54:	0c001ad6 	jal	0x6b58
    5c58:	02002021 	move	a0,s0
    5c5c:	0040f021 	move	s8,v0
    5c60:	8fa20014 	lw	v0,20(sp)
    5c64:	2451ffff 	addiu	s1,v0,-1
    5c68:	8fa20028 	lw	v0,40(sp)
    5c6c:	1440ff67 	bnez	v0,0x5a0c
    5c70:	8fa20048 	lw	v0,72(sp)
    5c74:	58400193 	blezl	v0,0x62c4
    5c78:	2ac20003 	slti	v0,s6,3
    5c7c:	1000ff16 	b	0x58d8
    5c80:	afa20020 	sw	v0,32(sp)
    5c84:	03c02821 	move	a1,s8
    5c88:	0c001c5a 	jal	0x7168
    5c8c:	02002021 	move	a0,s0
    5c90:	1000fedd 	b	0x5808
    5c94:	0040f021 	move	s8,v0
    5c98:	3c020001 	lui	v0,0x1
    5c9c:	2442be88 	addiu	v0,v0,-16760
    5ca0:	afa20010 	sw	v0,16(sp)
    5ca4:	3c020001 	lui	v0,0x1
    5ca8:	2442be8b 	addiu	v0,v0,-16757
    5cac:	1000fd81 	b	0x52b4
    5cb0:	ac620000 	sw	v0,0(v1)
    5cb4:	8fa30030 	lw	v1,48(sp)
    5cb8:	5460fedc 	bnezl	v1,0x582c
    5cbc:	8fa30008 	lw	v1,8(sp)
    5cc0:	7e229800 	ext	v0,s1,0x0,0x14
    5cc4:	1440fed8 	bnez	v0,0x5828
    5cc8:	afa3002c 	sw	v1,44(sp)
    5ccc:	10000027 	b	0x5d6c
    5cd0:	3c027ff0 	lui	v0,0x7ff0
    5cd4:	24130001 	li	s3,1
    5cd8:	afa20020 	sw	v0,32(sp)
    5cdc:	1000fe6a 	b	0x5688
    5ce0:	afa20024 	sw	v0,36(sp)
    5ce4:	14400009 	bnez	v0,0x5d0c
    5ce8:	24030030 	li	v1,48
    5cec:	8fa30008 	lw	v1,8(sp)
    5cf0:	30630001 	andi	v1,v1,0x1
    5cf4:	5460ff19 	bnezl	v1,0x595c
    5cf8:	24030039 	li	v1,57
    5cfc:	10000003 	b	0x5d0c
    5d00:	24030030 	li	v1,48
    5d04:	82a4fffe 	lb	a0,-2(s5)
    5d08:	0040a821 	move	s5,v0
    5d0c:	1083fffd 	beq	a0,v1,0x5d04
    5d10:	26a2ffff 	addiu	v0,s5,-1
    5d14:	1000ff1c 	b	0x5988
    5d18:	02602821 	move	a1,s3
    5d1c:	24420001 	addiu	v0,v0,1
    5d20:	afa20014 	sw	v0,20(sp)
    5d24:	8fa20028 	lw	v0,40(sp)
    5d28:	1440ff45 	bnez	v0,0x5a40
    5d2c:	02602821 	move	a1,s3
    5d30:	0c00121b 	jal	0x486c
    5d34:	03c02021 	move	a0,s8
    5d38:	24430030 	addiu	v1,v0,48
    5d3c:	8fa20010 	lw	v0,16(sp)
    5d40:	00008821 	move	s1,zero
    5d44:	24550001 	addiu	s5,v0,1
    5d48:	1000fef8 	b	0x592c
    5d4c:	a0430000 	sb	v1,0(v0)
    5d50:	8fa20030 	lw	v0,48(sp)
    5d54:	5440ff24 	bnezl	v0,0x59e8
    5d58:	afa0002c 	sw	zero,44(sp)
    5d5c:	7e229800 	ext	v0,s1,0x0,0x14
    5d60:	5440ff21 	bnezl	v0,0x59e8
    5d64:	afa0002c 	sw	zero,44(sp)
    5d68:	3c027ff0 	lui	v0,0x7ff0
    5d6c:	02228824 	and	s1,s1,v0
    5d70:	1220fead 	beqz	s1,0x5828
    5d74:	afa0002c 	sw	zero,44(sp)
    5d78:	8fa2001c 	lw	v0,28(sp)
    5d7c:	26f70001 	addiu	s7,s7,1
    5d80:	24420001 	addiu	v0,v0,1
    5d84:	afa2001c 	sw	v0,28(sp)
    5d88:	24020001 	li	v0,1
    5d8c:	1000fea6 	b	0x5828
    5d90:	afa2002c 	sw	v0,44(sp)
    5d94:	3c060001 	lui	a2,0x1
    5d98:	8cc6bf80 	lw	a2,-16512(a2)
    5d9c:	3c070001 	lui	a3,0x1
    5da0:	8ce7bf84 	lw	a3,-16508(a3)
    5da4:	8fa4002c 	lw	a0,44(sp)
    5da8:	8fa50038 	lw	a1,56(sp)
    5dac:	afa80030 	sw	t0,48(sp)
    5db0:	0c002bc0 	jal	0xaf00
    5db4:	afa90034 	sw	t1,52(sp)
    5db8:	0040a021 	move	s4,v0
    5dbc:	0060a821 	move	s5,v1
    5dc0:	3273000f 	andi	s3,s3,0xf
    5dc4:	24120003 	li	s2,3
    5dc8:	8fa80030 	lw	t0,48(sp)
    5dcc:	1000fc31 	b	0x4e94
    5dd0:	8fa90034 	lw	t1,52(sp)
    5dd4:	1000fe3d 	b	0x56cc
    5dd8:	afa00028 	sw	zero,40(sp)
    5ddc:	8fa30044 	lw	v1,68(sp)
    5de0:	106000e3 	beqz	v1,0x6170
    5de4:	8fa30004 	lw	v1,4(sp)
    5de8:	8fa3001c 	lw	v1,28(sp)
    5dec:	24420433 	addiu	v0,v0,1075
    5df0:	02e2b821 	addu	s7,s7,v0
    5df4:	00621021 	addu	v0,v1,v0
    5df8:	0060a021 	move	s4,v1
    5dfc:	8fb3003c 	lw	s3,60(sp)
    5e00:	1000fe0a 	b	0x562c
    5e04:	afa2001c 	sw	v0,28(sp)
    5e08:	0c002cc6 	jal	0xb318
    5e0c:	02402021 	move	a0,s2
    5e10:	00402021 	move	a0,v0
    5e14:	02803021 	move	a2,s4
    5e18:	02203821 	move	a3,s1
    5e1c:	0c002b10 	jal	0xac40
    5e20:	00602821 	move	a1,v1
    5e24:	3c060001 	lui	a2,0x1
    5e28:	8cc6bec8 	lw	a2,-16696(a2)
    5e2c:	3c070001 	lui	a3,0x1
    5e30:	8ce7becc 	lw	a3,-16692(a3)
    5e34:	00402021 	move	a0,v0
    5e38:	0c002ae3 	jal	0xab8c
    5e3c:	00602821 	move	a1,v1
    5e40:	3c13fcc0 	lui	s3,0xfcc0
    5e44:	00409021 	move	s2,v0
    5e48:	02639821 	addu	s3,s3,v1
    5e4c:	3c060001 	lui	a2,0x1
    5e50:	8cc6bed0 	lw	a2,-16688(a2)
    5e54:	3c070001 	lui	a3,0x1
    5e58:	8ce7bed4 	lw	a3,-16684(a3)
    5e5c:	02802021 	move	a0,s4
    5e60:	0c002af8 	jal	0xabe0
    5e64:	02202821 	move	a1,s1
    5e68:	0040a021 	move	s4,v0
    5e6c:	0060a821 	move	s5,v1
    5e70:	02403021 	move	a2,s2
    5e74:	02603821 	move	a3,s3
    5e78:	02802021 	move	a0,s4
    5e7c:	0c002c73 	jal	0xb1cc
    5e80:	02a02821 	move	a1,s5
    5e84:	1c4000f5 	bgtz	v0,0x625c
    5e88:	3c038000 	lui	v1,0x8000
    5e8c:	02639826 	xor	s3,s3,v1
    5e90:	02403021 	move	a2,s2
    5e94:	02603821 	move	a3,s3
    5e98:	02802021 	move	a0,s4
    5e9c:	0c002ca9 	jal	0xb2a4
    5ea0:	02a02821 	move	a1,s5
    5ea4:	0441fd14 	bgez	v0,0x52f8
    5ea8:	8fa2002c 	lw	v0,44(sp)
    5eac:	00009821 	move	s3,zero
    5eb0:	1000fd35 	b	0x5388
    5eb4:	00009021 	move	s2,zero
    5eb8:	24020031 	li	v0,49
    5ebc:	a0620000 	sb	v0,0(v1)
    5ec0:	8fa20014 	lw	v0,20(sp)
    5ec4:	24420001 	addiu	v0,v0,1
    5ec8:	1000feae 	b	0x5984
    5ecc:	afa20014 	sw	v0,20(sp)
    5ed0:	8fa20014 	lw	v0,20(sp)
    5ed4:	1040fc07 	beqz	v0,0x4ef4
    5ed8:	24120002 	li	s2,2
    5edc:	8fa20014 	lw	v0,20(sp)
    5ee0:	8fa4002c 	lw	a0,44(sp)
    5ee4:	8fa50038 	lw	a1,56(sp)
    5ee8:	00029823 	negu	s3,v0
    5eec:	3262000f 	andi	v0,s3,0xf
    5ef0:	000218c0 	sll	v1,v0,0x3
    5ef4:	3c020001 	lui	v0,0x1
    5ef8:	2442bf88 	addiu	v0,v0,-16504
    5efc:	00431021 	addu	v0,v0,v1
    5f00:	8c460000 	lw	a2,0(v0)
    5f04:	8c470004 	lw	a3,4(v0)
    5f08:	0c002b10 	jal	0xac40
    5f0c:	00139903 	sra	s3,s3,0x4
    5f10:	0040a021 	move	s4,v0
    5f14:	126000a4 	beqz	s3,0x61a8
    5f18:	00608821 	move	s1,v1
    5f1c:	3c150001 	lui	s5,0x1
    5f20:	26b5bf60 	addiu	s5,s5,-16544
    5f24:	00003821 	move	a3,zero
    5f28:	24120002 	li	s2,2
    5f2c:	32660001 	andi	a2,s3,0x1
    5f30:	00402021 	move	a0,v0
    5f34:	00602821 	move	a1,v1
    5f38:	10c00006 	beqz	a2,0x5f54
    5f3c:	00139843 	sra	s3,s3,0x1
    5f40:	8ea70004 	lw	a3,4(s5)
    5f44:	8ea60000 	lw	a2,0(s5)
    5f48:	0c002b10 	jal	0xac40
    5f4c:	26520001 	addiu	s2,s2,1
    5f50:	24070001 	li	a3,1
    5f54:	1660fff5 	bnez	s3,0x5f2c
    5f58:	26b50008 	addiu	s5,s5,8
    5f5c:	50e0fbe6 	beqzl	a3,0x4ef8
    5f60:	8fa20040 	lw	v0,64(sp)
    5f64:	0040a021 	move	s4,v0
    5f68:	1000fbe2 	b	0x4ef4
    5f6c:	00608821 	move	s1,v1
    5f70:	18400011 	blez	v0,0x5fb8
    5f74:	02c01821 	move	v1,s6
    5f78:	03c02821 	move	a1,s8
    5f7c:	24060001 	li	a2,1
    5f80:	02002021 	move	a0,s0
    5f84:	0c001cab 	jal	0x72ac
    5f88:	afb60008 	sw	s6,8(sp)
    5f8c:	00402021 	move	a0,v0
    5f90:	02602821 	move	a1,s3
    5f94:	0c001d03 	jal	0x740c
    5f98:	0040f021 	move	s8,v0
    5f9c:	184000b9 	blez	v0,0x6284
    5fa0:	8fa30008 	lw	v1,8(sp)
    5fa4:	24020039 	li	v0,57
    5fa8:	10620008 	beq	v1,v0,0x5fcc
    5fac:	24020039 	li	v0,57
    5fb0:	8fa20028 	lw	v0,40(sp)
    5fb4:	24430031 	addiu	v1,v0,49
    5fb8:	02408821 	move	s1,s2
    5fbc:	a2830000 	sb	v1,0(s4)
    5fc0:	1000fe70 	b	0x5984
    5fc4:	02e09021 	move	s2,s7
    5fc8:	24020039 	li	v0,57
    5fcc:	02408821 	move	s1,s2
    5fd0:	a2820000 	sb	v0,0(s4)
    5fd4:	02e09021 	move	s2,s7
    5fd8:	1000fe5f 	b	0x5958
    5fdc:	24040039 	li	a0,57
    5fe0:	8e450004 	lw	a1,4(s2)
    5fe4:	0c001aa1 	jal	0x6a84
    5fe8:	02002021 	move	a0,s0
    5fec:	8e460010 	lw	a2,16(s2)
    5ff0:	00408821 	move	s1,v0
    5ff4:	2645000c 	addiu	a1,s2,12
    5ff8:	24c60002 	addiu	a2,a2,2
    5ffc:	2444000c 	addiu	a0,v0,12
    6000:	0c001a4d 	jal	0x6934
    6004:	00063080 	sll	a2,a2,0x2
    6008:	24060001 	li	a2,1
    600c:	02202821 	move	a1,s1
    6010:	0c001cab 	jal	0x72ac
    6014:	02002021 	move	a0,s0
    6018:	1000fe93 	b	0x5a68
    601c:	0040b821 	move	s7,v0
    6020:	02402021 	move	a0,s2
    6024:	0c002b10 	jal	0xac40
    6028:	02602821 	move	a1,s3
    602c:	afa30054 	sw	v1,84(sp)
    6030:	8fa40030 	lw	a0,48(sp)
    6034:	8fa30010 	lw	v1,16(sp)
    6038:	afa20050 	sw	v0,80(sp)
    603c:	24020001 	li	v0,1
    6040:	a0740000 	sb	s4,0(v1)
    6044:	10820025 	beq	a0,v0,0x60dc
    6048:	00648821 	addu	s1,v1,a0
    604c:	3c020001 	lui	v0,0x1
    6050:	8c42bec0 	lw	v0,-16704(v0)
    6054:	3c030001 	lui	v1,0x1
    6058:	8c63bec4 	lw	v1,-16700(v1)
    605c:	02e09821 	move	s3,s7
    6060:	afa20030 	sw	v0,48(sp)
    6064:	afa30034 	sw	v1,52(sp)
    6068:	8fa20058 	lw	v0,88(sp)
    606c:	8fa3005c 	lw	v1,92(sp)
    6070:	02c0a021 	move	s4,s6
    6074:	8fa60030 	lw	a2,48(sp)
    6078:	8fa70034 	lw	a3,52(sp)
    607c:	00402021 	move	a0,v0
    6080:	0c002b10 	jal	0xac40
    6084:	00602821 	move	a1,v1
    6088:	00602821 	move	a1,v1
    608c:	00402021 	move	a0,v0
    6090:	0060b821 	move	s7,v1
    6094:	0c002cec 	jal	0xb3b0
    6098:	0040b021 	move	s6,v0
    609c:	00402021 	move	a0,v0
    60a0:	0c002cc6 	jal	0xb318
    60a4:	00409021 	move	s2,v0
    60a8:	00403021 	move	a2,v0
    60ac:	00603821 	move	a3,v1
    60b0:	02c02021 	move	a0,s6
    60b4:	02e02821 	move	a1,s7
    60b8:	26b50001 	addiu	s5,s5,1
    60bc:	0c002af8 	jal	0xabe0
    60c0:	26520030 	addiu	s2,s2,48
    60c4:	16b1ffeb 	bne	s5,s1,0x6074
    60c8:	a2b2ffff 	sb	s2,-1(s5)
    60cc:	afa20058 	sw	v0,88(sp)
    60d0:	afa3005c 	sw	v1,92(sp)
    60d4:	0260b821 	move	s7,s3
    60d8:	0280b021 	move	s6,s4
    60dc:	3c060001 	lui	a2,0x1
    60e0:	8cc6bed8 	lw	a2,-16680(a2)
    60e4:	3c070001 	lui	a3,0x1
    60e8:	8ce7bedc 	lw	a3,-16676(a3)
    60ec:	8fa40050 	lw	a0,80(sp)
    60f0:	0c002ae3 	jal	0xab8c
    60f4:	8fa50054 	lw	a1,84(sp)
    60f8:	8fa60058 	lw	a2,88(sp)
    60fc:	8fa7005c 	lw	a3,92(sp)
    6100:	00402021 	move	a0,v0
    6104:	0c002ca9 	jal	0xb2a4
    6108:	00602821 	move	a1,v1
    610c:	04400063 	bltz	v0,0x629c
    6110:	8fa60050 	lw	a2,80(sp)
    6114:	3c040001 	lui	a0,0x1
    6118:	8c84bed8 	lw	a0,-16680(a0)
    611c:	3c050001 	lui	a1,0x1
    6120:	8ca5bedc 	lw	a1,-16676(a1)
    6124:	0c002af8 	jal	0xabe0
    6128:	8fa70054 	lw	a3,84(sp)
    612c:	8fa60058 	lw	a2,88(sp)
    6130:	8fa7005c 	lw	a3,92(sp)
    6134:	00402021 	move	a0,v0
    6138:	0c002c73 	jal	0xb1cc
    613c:	00602821 	move	a1,v1
    6140:	1840fc6c 	blez	v0,0x52f4
    6144:	24040030 	li	a0,48
    6148:	10000003 	b	0x6158
    614c:	82a2ffff 	lb	v0,-1(s5)
    6150:	0060a821 	move	s5,v1
    6154:	82a2ffff 	lb	v0,-1(s5)
    6158:	1044fffd 	beq	v0,a0,0x6150
    615c:	26a3ffff 	addiu	v1,s5,-1
    6160:	8fa20060 	lw	v0,96(sp)
    6164:	24420001 	addiu	v0,v0,1
    6168:	1000fc14 	b	0x51bc
    616c:	afa20014 	sw	v0,20(sp)
    6170:	8fa4001c 	lw	a0,28(sp)
    6174:	24020036 	li	v0,54
    6178:	00431023 	subu	v0,v0,v1
    617c:	02e2b821 	addu	s7,s7,v0
    6180:	00821021 	addu	v0,a0,v0
    6184:	0080a021 	move	s4,a0
    6188:	8fb3003c 	lw	s3,60(sp)
    618c:	1000fd27 	b	0x562c
    6190:	afa2001c 	sw	v0,28(sp)
    6194:	24020039 	li	v0,57
    6198:	12c2ff8c 	beq	s6,v0,0x5fcc
    619c:	24020039 	li	v0,57
    61a0:	1000ff85 	b	0x5fb8
    61a4:	26c30001 	addiu	v1,s6,1
    61a8:	1000fb52 	b	0x4ef4
    61ac:	24120002 	li	s2,2
    61b0:	02408821 	move	s1,s2
    61b4:	02c01821 	move	v1,s6
    61b8:	1000fddc 	b	0x592c
    61bc:	02e09021 	move	s2,s7
    61c0:	1040ff11 	beqz	v0,0x5e08
    61c4:	8fb50048 	lw	s5,72(sp)
    61c8:	1aa0fc4a 	blez	s5,0x52f4
    61cc:	02202821 	move	a1,s1
    61d0:	3c060001 	lui	a2,0x1
    61d4:	8cc6bec0 	lw	a2,-16704(a2)
    61d8:	3c070001 	lui	a3,0x1
    61dc:	8ce7bec4 	lw	a3,-16700(a3)
    61e0:	0c002b10 	jal	0xac40
    61e4:	02802021 	move	a0,s4
    61e8:	26440001 	addiu	a0,s2,1
    61ec:	0040a021 	move	s4,v0
    61f0:	0c002cc6 	jal	0xb318
    61f4:	00608821 	move	s1,v1
    61f8:	00402021 	move	a0,v0
    61fc:	02803021 	move	a2,s4
    6200:	02203821 	move	a3,s1
    6204:	0c002b10 	jal	0xac40
    6208:	00602821 	move	a1,v1
    620c:	00402021 	move	a0,v0
    6210:	8fa20014 	lw	v0,20(sp)
    6214:	3c060001 	lui	a2,0x1
    6218:	8cc6bec8 	lw	a2,-16696(a2)
    621c:	3c070001 	lui	a3,0x1
    6220:	8ce7becc 	lw	a3,-16692(a3)
    6224:	2442ffff 	addiu	v0,v0,-1
    6228:	00602821 	move	a1,v1
    622c:	afa20060 	sw	v0,96(sp)
    6230:	0c002ae3 	jal	0xab8c
    6234:	3c13fcc0 	lui	s3,0xfcc0
    6238:	00409021 	move	s2,v0
    623c:	02639821 	addu	s3,s3,v1
    6240:	1000fb4e 	b	0x4f7c
    6244:	afb50030 	sw	s5,48(sp)
    6248:	24630001 	addiu	v1,v1,1
    624c:	afa30014 	sw	v1,20(sp)
    6250:	24030031 	li	v1,49
    6254:	1000fbd9 	b	0x51bc
    6258:	a0430000 	sb	v1,0(v0)
    625c:	00009821 	move	s3,zero
    6260:	1000fe67 	b	0x5c00
    6264:	00009021 	move	s2,zero
    6268:	02c01821 	move	v1,s6
    626c:	12c2ff56 	beq	s6,v0,0x5fc8
    6270:	26950001 	addiu	s5,s4,1
    6274:	1e20ff4f 	bgtz	s1,0x5fb4
    6278:	8fa20028 	lw	v0,40(sp)
    627c:	1000ff4f 	b	0x5fbc
    6280:	02408821 	move	s1,s2
    6284:	1440ff4c 	bnez	v0,0x5fb8
    6288:	30620001 	andi	v0,v1,0x1
    628c:	1440ff46 	bnez	v0,0x5fa8
    6290:	24020039 	li	v0,57
    6294:	1000ff49 	b	0x5fbc
    6298:	02408821 	move	s1,s2
    629c:	8fa20060 	lw	v0,96(sp)
    62a0:	82b4ffff 	lb	s4,-1(s5)
    62a4:	24420001 	addiu	v0,v0,1
    62a8:	1000fcb9 	b	0x5590
    62ac:	afa20014 	sw	v0,20(sp)
    62b0:	8fbe0064 	lw	s8,100(sp)
    62b4:	8fb00068 	lw	s0,104(sp)
    62b8:	24420001 	addiu	v0,v0,1
    62bc:	1000fcb4 	b	0x5590
    62c0:	afa20014 	sw	v0,20(sp)
    62c4:	1440fe9a 	bnez	v0,0x5d30
    62c8:	02602821 	move	a1,s3
    62cc:	8fa20048 	lw	v0,72(sp)
    62d0:	afb10014 	sw	s1,20(sp)
    62d4:	1000fe3d 	b	0x5bcc
    62d8:	afa20020 	sw	v0,32(sp)
    62dc:	24420001 	addiu	v0,v0,1
    62e0:	1000fcab 	b	0x5590
    62e4:	afa20014 	sw	v0,20(sp)
    62e8:	5064fd63 	beql	v1,a0,0x5878
    62ec:	8fa2001c 	lw	v0,28(sp)
    62f0:	2403003c 	li	v1,60
    62f4:	1000fd5a 	b	0x5860
    62f8:	00621023 	subu	v0,v1,v0
    62fc:	1000facf 	b	0x4e3c
    6300:	00002821 	move	a1,zero
    6304:	27bdffe8 	addiu	sp,sp,-24
    6308:	afb30010 	sw	s3,16(sp)
    630c:	3c130001 	lui	s3,0x1
    6310:	2673d090 	addiu	s3,s3,-12144
    6314:	afb2000c 	sw	s2,12(sp)
    6318:	afb10008 	sw	s1,8(sp)
    631c:	afb00004 	sw	s0,4(sp)
    6320:	afbf0014 	sw	ra,20(sp)
    6324:	00a08021 	move	s0,a1
    6328:	0c000824 	jal	0x2090
    632c:	00809021 	move	s2,a0
    6330:	8e620008 	lw	v0,8(s3)
    6334:	8c510004 	lw	s1,4(v0)
    6338:	2402fffc 	li	v0,-4
    633c:	02228824 	and	s1,s1,v0
    6340:	02308023 	subu	s0,s1,s0
    6344:	26100fef 	addiu	s0,s0,4079
    6348:	00108302 	srl	s0,s0,0xc
    634c:	2610ffff 	addiu	s0,s0,-1
    6350:	00108300 	sll	s0,s0,0xc
    6354:	2a021000 	slti	v0,s0,4096
    6358:	14400007 	bnez	v0,0x6378
    635c:	00002821 	move	a1,zero
    6360:	0c000828 	jal	0x20a0
    6364:	02402021 	move	a0,s2
    6368:	8e630008 	lw	v1,8(s3)
    636c:	00711821 	addu	v1,v1,s1
    6370:	1043000b 	beq	v0,v1,0x63a0
    6374:	00102823 	negu	a1,s0
    6378:	0c000826 	jal	0x2098
    637c:	02402021 	move	a0,s2
    6380:	8fbf0014 	lw	ra,20(sp)
    6384:	8fb30010 	lw	s3,16(sp)
    6388:	8fb2000c 	lw	s2,12(sp)
    638c:	8fb10008 	lw	s1,8(sp)
    6390:	8fb00004 	lw	s0,4(sp)
    6394:	00001021 	move	v0,zero
    6398:	03e00008 	jr	ra
    639c:	27bd0018 	addiu	sp,sp,24
    63a0:	0c000828 	jal	0x20a0
    63a4:	02402021 	move	a0,s2
    63a8:	2403ffff 	li	v1,-1
    63ac:	10430013 	beq	v0,v1,0x63fc
    63b0:	02308823 	subu	s1,s1,s0
    63b4:	3c030001 	lui	v1,0x1
    63b8:	2463252c 	addiu	v1,v1,9516
    63bc:	8c620000 	lw	v0,0(v1)
    63c0:	8e640008 	lw	a0,8(s3)
    63c4:	36310001 	ori	s1,s1,0x1
    63c8:	00508023 	subu	s0,v0,s0
    63cc:	ac910004 	sw	s1,4(a0)
    63d0:	02402021 	move	a0,s2
    63d4:	0c000826 	jal	0x2098
    63d8:	ac700000 	sw	s0,0(v1)
    63dc:	8fbf0014 	lw	ra,20(sp)
    63e0:	8fb30010 	lw	s3,16(sp)
    63e4:	8fb2000c 	lw	s2,12(sp)
    63e8:	8fb10008 	lw	s1,8(sp)
    63ec:	8fb00004 	lw	s0,4(sp)
    63f0:	24020001 	li	v0,1
    63f4:	03e00008 	jr	ra
    63f8:	27bd0018 	addiu	sp,sp,24
    63fc:	00002821 	move	a1,zero
    6400:	0c000828 	jal	0x20a0
    6404:	02402021 	move	a0,s2
    6408:	8e640008 	lw	a0,8(s3)
    640c:	00441823 	subu	v1,v0,a0
    6410:	28650010 	slti	a1,v1,16
    6414:	14a0ffd8 	bnez	a1,0x6378
    6418:	34630001 	ori	v1,v1,0x1
    641c:	ac830004 	sw	v1,4(a0)
    6420:	3c030001 	lui	v1,0x1
    6424:	8c63d088 	lw	v1,-12152(v1)
    6428:	00431023 	subu	v0,v0,v1
    642c:	3c010001 	lui	at,0x1
    6430:	1000ffd1 	b	0x6378
    6434:	ac22252c 	sw	v0,9516(at)
    6438:	10a00052 	beqz	a1,0x6584
    643c:	00000000 	nop
    6440:	27bdfff0 	addiu	sp,sp,-16
    6444:	afb00004 	sw	s0,4(sp)
    6448:	00a08021 	move	s0,a1
    644c:	afb10008 	sw	s1,8(sp)
    6450:	afbf000c 	sw	ra,12(sp)
    6454:	0c000824 	jal	0x2090
    6458:	00808821 	move	s1,a0
    645c:	8e06fffc 	lw	a2,-4(s0)
    6460:	2402fffe 	li	v0,-2
    6464:	2605fff8 	addiu	a1,s0,-8
    6468:	00c21024 	and	v0,a2,v0
    646c:	00a22021 	addu	a0,a1,v0
    6470:	3c070001 	lui	a3,0x1
    6474:	24e7d090 	addiu	a3,a3,-12144
    6478:	8c830004 	lw	v1,4(a0)
    647c:	8ce80008 	lw	t0,8(a3)
    6480:	2409fffc 	li	t1,-4
    6484:	00691824 	and	v1,v1,t1
    6488:	11040070 	beq	t0,a0,0x664c
    648c:	30c60001 	andi	a2,a2,0x1
    6490:	ac830004 	sw	v1,4(a0)
    6494:	14c0002a 	bnez	a2,0x6540
    6498:	00834021 	addu	t0,a0,v1
    649c:	8e0afff8 	lw	t2,-8(s0)
    64a0:	8d060004 	lw	a2,4(t0)
    64a4:	3c090001 	lui	t1,0x1
    64a8:	2529d098 	addiu	t1,t1,-12136
    64ac:	00aa2823 	subu	a1,a1,t2
    64b0:	8ca80008 	lw	t0,8(a1)
    64b4:	004a1021 	addu	v0,v0,t2
    64b8:	11090058 	beq	t0,t1,0x661c
    64bc:	30c60001 	andi	a2,a2,0x1
    64c0:	8caa000c 	lw	t2,12(a1)
    64c4:	ad0a000c 	sw	t2,12(t0)
    64c8:	10c00080 	beqz	a2,0x66cc
    64cc:	ad480008 	sw	t0,8(t2)
    64d0:	34430001 	ori	v1,v0,0x1
    64d4:	aca30004 	sw	v1,4(a1)
    64d8:	ac820000 	sw	v0,0(a0)
    64dc:	2c430200 	sltiu	v1,v0,512
    64e0:	1060002f 	beqz	v1,0x65a0
    64e4:	00021a42 	srl	v1,v0,0x9
    64e8:	000210c2 	srl	v0,v0,0x3
    64ec:	24430001 	addiu	v1,v0,1
    64f0:	000318c0 	sll	v1,v1,0x3
    64f4:	8ce80004 	lw	t0,4(a3)
    64f8:	00e31821 	addu	v1,a3,v1
    64fc:	8c660000 	lw	a2,0(v1)
    6500:	00022083 	sra	a0,v0,0x2
    6504:	24020001 	li	v0,1
    6508:	00821004 	sllv	v0,v0,a0
    650c:	00481025 	or	v0,v0,t0
    6510:	2464fff8 	addiu	a0,v1,-8
    6514:	aca4000c 	sw	a0,12(a1)
    6518:	aca60008 	sw	a2,8(a1)
    651c:	ace20004 	sw	v0,4(a3)
    6520:	ac650000 	sw	a1,0(v1)
    6524:	acc5000c 	sw	a1,12(a2)
    6528:	8fbf000c 	lw	ra,12(sp)
    652c:	8fb00004 	lw	s0,4(sp)
    6530:	02202021 	move	a0,s1
    6534:	8fb10008 	lw	s1,8(sp)
    6538:	08000826 	j	0x2098
    653c:	27bd0010 	addiu	sp,sp,16
    6540:	8d060004 	lw	a2,4(t0)
    6544:	30c60001 	andi	a2,a2,0x1
    6548:	54c00010 	bnezl	a2,0x658c
    654c:	34430001 	ori	v1,v0,0x1
    6550:	00431021 	addu	v0,v0,v1
    6554:	3c090001 	lui	t1,0x1
    6558:	2529d098 	addiu	t1,t1,-12136
    655c:	8c830008 	lw	v1,8(a0)
    6560:	34480001 	ori	t0,v0,0x1
    6564:	1069005e 	beq	v1,t1,0x66e0
    6568:	00a23021 	addu	a2,a1,v0
    656c:	8c84000c 	lw	a0,12(a0)
    6570:	ac64000c 	sw	a0,12(v1)
    6574:	ac830008 	sw	v1,8(a0)
    6578:	aca80004 	sw	t0,4(a1)
    657c:	1000ffd7 	b	0x64dc
    6580:	acc20000 	sw	v0,0(a2)
    6584:	03e00008 	jr	ra
    6588:	00000000 	nop
    658c:	ae03fffc 	sw	v1,-4(s0)
    6590:	2c430200 	sltiu	v1,v0,512
    6594:	1460ffd4 	bnez	v1,0x64e8
    6598:	ac820000 	sw	v0,0(a0)
    659c:	00021a42 	srl	v1,v0,0x9
    65a0:	2c640005 	sltiu	a0,v1,5
    65a4:	1080003f 	beqz	a0,0x66a4
    65a8:	2c640015 	sltiu	a0,v1,21
    65ac:	00021982 	srl	v1,v0,0x6
    65b0:	24660039 	addiu	a2,v1,57
    65b4:	000630c0 	sll	a2,a2,0x3
    65b8:	24630038 	addiu	v1,v1,56
    65bc:	00e63021 	addu	a2,a3,a2
    65c0:	8cc40000 	lw	a0,0(a2)
    65c4:	24c6fff8 	addiu	a2,a2,-8
    65c8:	10c4004c 	beq	a2,a0,0x66fc
    65cc:	2408fffc 	li	t0,-4
    65d0:	8c830004 	lw	v1,4(a0)
    65d4:	00681824 	and	v1,v1,t0
    65d8:	0043182b 	sltu	v1,v0,v1
    65dc:	50600005 	beqzl	v1,0x65f4
    65e0:	8c86000c 	lw	a2,12(a0)
    65e4:	8c840008 	lw	a0,8(a0)
    65e8:	54c4fffa 	bnel	a2,a0,0x65d4
    65ec:	8c830004 	lw	v1,4(a0)
    65f0:	8c86000c 	lw	a2,12(a0)
    65f4:	aca40008 	sw	a0,8(a1)
    65f8:	aca6000c 	sw	a2,12(a1)
    65fc:	8fbf000c 	lw	ra,12(sp)
    6600:	acc50008 	sw	a1,8(a2)
    6604:	8fb00004 	lw	s0,4(sp)
    6608:	ac85000c 	sw	a1,12(a0)
    660c:	02202021 	move	a0,s1
    6610:	8fb10008 	lw	s1,8(sp)
    6614:	08000826 	j	0x2098
    6618:	27bd0010 	addiu	sp,sp,16
    661c:	54c0004e 	bnezl	a2,0x6758
    6620:	34430001 	ori	v1,v0,0x1
    6624:	8c860008 	lw	a2,8(a0)
    6628:	8c84000c 	lw	a0,12(a0)
    662c:	00621021 	addu	v0,v1,v0
    6630:	34470001 	ori	a3,v0,0x1
    6634:	00a21821 	addu	v1,a1,v0
    6638:	acc4000c 	sw	a0,12(a2)
    663c:	ac860008 	sw	a2,8(a0)
    6640:	aca70004 	sw	a3,4(a1)
    6644:	1000ffb8 	b	0x6528
    6648:	ac620000 	sw	v0,0(v1)
    664c:	14c00008 	bnez	a2,0x6670
    6650:	00431021 	addu	v0,v0,v1
    6654:	8e06fff8 	lw	a2,-8(s0)
    6658:	00a62823 	subu	a1,a1,a2
    665c:	8ca3000c 	lw	v1,12(a1)
    6660:	8ca40008 	lw	a0,8(a1)
    6664:	00461021 	addu	v0,v0,a2
    6668:	ac83000c 	sw	v1,12(a0)
    666c:	ac640008 	sw	a0,8(v1)
    6670:	34430001 	ori	v1,v0,0x1
    6674:	aca30004 	sw	v1,4(a1)
    6678:	3c030001 	lui	v1,0x1
    667c:	8c63d08c 	lw	v1,-12148(v1)
    6680:	0043102b 	sltu	v0,v0,v1
    6684:	1440ffa8 	bnez	v0,0x6528
    6688:	ace50008 	sw	a1,8(a3)
    668c:	3c050001 	lui	a1,0x1
    6690:	8ca5255c 	lw	a1,9564(a1)
    6694:	0c0018c1 	jal	0x6304
    6698:	02202021 	move	a0,s1
    669c:	1000ffa3 	b	0x652c
    66a0:	8fbf000c 	lw	ra,12(sp)
    66a4:	1480000b 	bnez	a0,0x66d4
    66a8:	2466005c 	addiu	a2,v1,92
    66ac:	2c640055 	sltiu	a0,v1,85
    66b0:	10800019 	beqz	a0,0x6718
    66b4:	2c640155 	sltiu	a0,v1,341
    66b8:	00021b02 	srl	v1,v0,0xc
    66bc:	2466006f 	addiu	a2,v1,111
    66c0:	000630c0 	sll	a2,a2,0x3
    66c4:	1000ffbd 	b	0x65bc
    66c8:	2463006e 	addiu	v1,v1,110
    66cc:	1000ffa3 	b	0x655c
    66d0:	00431021 	addu	v0,v0,v1
    66d4:	000630c0 	sll	a2,a2,0x3
    66d8:	1000ffb8 	b	0x65bc
    66dc:	2463005b 	addiu	v1,v1,91
    66e0:	ace50014 	sw	a1,20(a3)
    66e4:	ace50010 	sw	a1,16(a3)
    66e8:	aca9000c 	sw	t1,12(a1)
    66ec:	aca90008 	sw	t1,8(a1)
    66f0:	aca80004 	sw	t0,4(a1)
    66f4:	1000ff8c 	b	0x6528
    66f8:	acc20000 	sw	v0,0(a2)
    66fc:	8ce80004 	lw	t0,4(a3)
    6700:	00031883 	sra	v1,v1,0x2
    6704:	24020001 	li	v0,1
    6708:	00621804 	sllv	v1,v0,v1
    670c:	00681825 	or	v1,v1,t0
    6710:	1000ffb8 	b	0x65f4
    6714:	ace30004 	sw	v1,4(a3)
    6718:	50800006 	beqzl	a0,0x6734
    671c:	2c630555 	sltiu	v1,v1,1365
    6720:	00021bc2 	srl	v1,v0,0xf
    6724:	24660078 	addiu	a2,v1,120
    6728:	000630c0 	sll	a2,a2,0x3
    672c:	1000ffa3 	b	0x65bc
    6730:	24630077 	addiu	v1,v1,119
    6734:	50600006 	beqzl	v1,0x6750
    6738:	240603f8 	li	a2,1016
    673c:	00021c82 	srl	v1,v0,0x12
    6740:	2466007d 	addiu	a2,v1,125
    6744:	000630c0 	sll	a2,a2,0x3
    6748:	1000ff9c 	b	0x65bc
    674c:	2463007c 	addiu	v1,v1,124
    6750:	1000ff9a 	b	0x65bc
    6754:	2403007e 	li	v1,126
    6758:	aca30004 	sw	v1,4(a1)
    675c:	1000ff72 	b	0x6528
    6760:	ac820000 	sw	v0,0(a0)
    6764:	10c00010 	beqz	a2,0x67a8
    6768:	00c02021 	move	a0,a2
    676c:	27bdfff8 	addiu	sp,sp,-8
    6770:	3c050001 	lui	a1,0x1
    6774:	24a5bee0 	addiu	a1,a1,-16672
    6778:	afb00000 	sw	s0,0(sp)
    677c:	afbf0004 	sw	ra,4(sp)
    6780:	0c001f95 	jal	0x7e54
    6784:	00c08021 	move	s0,a2
    6788:	1440000a 	bnez	v0,0x67b4
    678c:	00000000 	nop
    6790:	3c020001 	lui	v0,0x1
    6794:	2442bcb4 	addiu	v0,v0,-17228
    6798:	8fbf0004 	lw	ra,4(sp)
    679c:	8fb00000 	lw	s0,0(sp)
    67a0:	03e00008 	jr	ra
    67a4:	27bd0008 	addiu	sp,sp,8
    67a8:	3c020001 	lui	v0,0x1
    67ac:	03e00008 	jr	ra
    67b0:	2442bcb4 	addiu	v0,v0,-17228
    67b4:	3c050001 	lui	a1,0x1
    67b8:	24a5bcb4 	addiu	a1,a1,-17228
    67bc:	0c001f95 	jal	0x7e54
    67c0:	02002021 	move	a0,s0
    67c4:	1040fff2 	beqz	v0,0x6790
    67c8:	00000000 	nop
    67cc:	3c050001 	lui	a1,0x1
    67d0:	24a5bce0 	addiu	a1,a1,-17184
    67d4:	0c001f95 	jal	0x7e54
    67d8:	02002021 	move	a0,s0
    67dc:	1040ffec 	beqz	v0,0x6790
    67e0:	00001021 	move	v0,zero
    67e4:	1000ffed 	b	0x679c
    67e8:	8fbf0004 	lw	ra,4(sp)
    67ec:	3c020001 	lui	v0,0x1
    67f0:	03e00008 	jr	ra
    67f4:	2442d4b8 	addiu	v0,v0,-11080
    67f8:	3c020001 	lui	v0,0x1
    67fc:	03e00008 	jr	ra
    6800:	2442d498 	addiu	v0,v0,-11112
    6804:	03e00008 	jr	ra
    6808:	00001021 	move	v0,zero
    680c:	3c020001 	lui	v0,0x1
    6810:	03e00008 	jr	ra
    6814:	2442beec 	addiu	v0,v0,-16660
    6818:	00a03021 	move	a2,a1
    681c:	00802821 	move	a1,a0
    6820:	3c040001 	lui	a0,0x1
    6824:	080019d9 	j	0x6764
    6828:	8c84d4e4 	lw	a0,-11036(a0)
    682c:	3c020001 	lui	v0,0x1
    6830:	03e00008 	jr	ra
    6834:	2442beec 	addiu	v0,v0,-16660
    6838:	30820003 	andi	v0,a0,0x3
    683c:	1040003b 	beqz	v0,0x692c
    6840:	30a700ff 	andi	a3,a1,0xff
    6844:	10c0001e 	beqz	a2,0x68c0
    6848:	24c2ffff 	addiu	v0,a2,-1
    684c:	90830000 	lbu	v1,0(a0)
    6850:	1067001d 	beq	v1,a3,0x68c8
    6854:	2406ffff 	li	a2,-1
    6858:	10000007 	b	0x6878
    685c:	24840001 	addiu	a0,a0,1
    6860:	10460017 	beq	v0,a2,0x68c0
    6864:	00000000 	nop
    6868:	90830000 	lbu	v1,0(a0)
    686c:	10670016 	beq	v1,a3,0x68c8
    6870:	00000000 	nop
    6874:	24840001 	addiu	a0,a0,1
    6878:	30830003 	andi	v1,a0,0x3
    687c:	5460fff8 	bnezl	v1,0x6860
    6880:	2442ffff 	addiu	v0,v0,-1
    6884:	2c430004 	sltiu	v1,v0,4
    6888:	10600011 	beqz	v1,0x68d0
    688c:	00054a00 	sll	t1,a1,0x8
    6890:	1040000b 	beqz	v0,0x68c0
    6894:	00000000 	nop
    6898:	90830000 	lbu	v1,0(a0)
    689c:	1067000a 	beq	v1,a3,0x68c8
    68a0:	00000000 	nop
    68a4:	10000003 	b	0x68b4
    68a8:	00821021 	addu	v0,a0,v0
    68ac:	10670006 	beq	v1,a3,0x68c8
    68b0:	00000000 	nop
    68b4:	24840001 	addiu	a0,a0,1
    68b8:	5444fffc 	bnel	v0,a0,0x68ac
    68bc:	90830000 	lbu	v1,0(a0)
    68c0:	03e00008 	jr	ra
    68c4:	00001021 	move	v0,zero
    68c8:	03e00008 	jr	ra
    68cc:	00801021 	move	v0,a0
    68d0:	3129ffff 	andi	t1,t1,0xffff
    68d4:	30a500ff 	andi	a1,a1,0xff
    68d8:	01252825 	or	a1,t1,a1
    68dc:	00054c00 	sll	t1,a1,0x10
    68e0:	3c08fefe 	lui	t0,0xfefe
    68e4:	3c068080 	lui	a2,0x8080
    68e8:	01254825 	or	t1,t1,a1
    68ec:	3508feff 	ori	t0,t0,0xfeff
    68f0:	34c68080 	ori	a2,a2,0x8080
    68f4:	8c830000 	lw	v1,0(a0)
    68f8:	01231826 	xor	v1,t1,v1
    68fc:	00682821 	addu	a1,v1,t0
    6900:	00031827 	nor	v1,zero,v1
    6904:	00a31824 	and	v1,a1,v1
    6908:	00661824 	and	v1,v1,a2
    690c:	5460ffe3 	bnezl	v1,0x689c
    6910:	90830000 	lbu	v1,0(a0)
    6914:	2442fffc 	addiu	v0,v0,-4
    6918:	2c430004 	sltiu	v1,v0,4
    691c:	1060fff5 	beqz	v1,0x68f4
    6920:	24840004 	addiu	a0,a0,4
    6924:	1000ffda 	b	0x6890
    6928:	00000000 	nop
    692c:	1000ffd5 	b	0x6884
    6930:	00c01021 	move	v0,a2
    6934:	00a41825 	or	v1,a1,a0
    6938:	30630003 	andi	v1,v1,0x3
    693c:	14600028 	bnez	v1,0x69e0
    6940:	00801021 	move	v0,a0
    6944:	00061902 	srl	v1,a2,0x4
    6948:	10600048 	beqz	v1,0x6a6c
    694c:	00036100 	sll	t4,v1,0x4
    6950:	008c4021 	addu	t0,a0,t4
    6954:	00a03821 	move	a3,a1
    6958:	00801821 	move	v1,a0
    695c:	8ceb0000 	lw	t3,0(a3)
    6960:	8cea0004 	lw	t2,4(a3)
    6964:	8ce40008 	lw	a0,8(a3)
    6968:	8ce9000c 	lw	t1,12(a3)
    696c:	24630010 	addiu	v1,v1,16
    6970:	ac6bfff0 	sw	t3,-16(v1)
    6974:	ac6afff4 	sw	t2,-12(v1)
    6978:	ac64fff8 	sw	a0,-8(v1)
    697c:	ac69fffc 	sw	t1,-4(v1)
    6980:	1468fff6 	bne	v1,t0,0x695c
    6984:	24e70010 	addiu	a3,a3,16
    6988:	00ac2821 	addu	a1,a1,t4
    698c:	7cc30880 	ext	v1,a2,0x2,0x2
    6990:	1060003a 	beqz	v1,0x6a7c
    6994:	30c60003 	andi	a2,a2,0x3
    6998:	00034880 	sll	t1,v1,0x2
    699c:	01091821 	addu	v1,t0,t1
    69a0:	00a02021 	move	a0,a1
    69a4:	24840004 	addiu	a0,a0,4
    69a8:	8c87fffc 	lw	a3,-4(a0)
    69ac:	25080004 	addiu	t0,t0,4
    69b0:	1503fffc 	bne	t0,v1,0x69a4
    69b4:	ad07fffc 	sw	a3,-4(t0)
    69b8:	00a92821 	addu	a1,a1,t1
    69bc:	10c00006 	beqz	a2,0x69d8
    69c0:	00663021 	addu	a2,v1,a2
    69c4:	24a50001 	addiu	a1,a1,1
    69c8:	80a4ffff 	lb	a0,-1(a1)
    69cc:	24630001 	addiu	v1,v1,1
    69d0:	14c3fffc 	bne	a2,v1,0x69c4
    69d4:	a064ffff 	sb	a0,-1(v1)
    69d8:	03e00008 	jr	ra
    69dc:	00000000 	nop
    69e0:	00061fc3 	sra	v1,a2,0x1f
    69e4:	00032782 	srl	a0,v1,0x1e
    69e8:	28c90000 	slti	t1,a2,0
    69ec:	24c30003 	addiu	v1,a2,3
    69f0:	00c9180a 	movz	v1,a2,t1
    69f4:	00604821 	move	t1,v1
    69f8:	00c41821 	addu	v1,a2,a0
    69fc:	30630003 	andi	v1,v1,0x3
    6a00:	00094883 	sra	t1,t1,0x2
    6a04:	1120001b 	beqz	t1,0x6a74
    6a08:	00641823 	subu	v1,v1,a0
    6a0c:	00404021 	move	t0,v0
    6a10:	00a03821 	move	a3,a1
    6a14:	01203021 	move	a2,t1
    6a18:	24c6ffff 	addiu	a2,a2,-1
    6a1c:	88ea0003 	lwl	t2,3(a3)
    6a20:	98ea0000 	lwr	t2,0(a3)
    6a24:	25080004 	addiu	t0,t0,4
    6a28:	24e70004 	addiu	a3,a3,4
    6a2c:	a90affff 	swl	t2,-1(t0)
    6a30:	b90afffc 	swr	t2,-4(t0)
    6a34:	14c0fff9 	bnez	a2,0x6a1c
    6a38:	24c6ffff 	addiu	a2,a2,-1
    6a3c:	00093080 	sll	a2,t1,0x2
    6a40:	00a62821 	addu	a1,a1,a2
    6a44:	00463021 	addu	a2,v0,a2
    6a48:	1860ffe3 	blez	v1,0x69d8
    6a4c:	00c31821 	addu	v1,a2,v1
    6a50:	24a50001 	addiu	a1,a1,1
    6a54:	80a4ffff 	lb	a0,-1(a1)
    6a58:	24c60001 	addiu	a2,a2,1
    6a5c:	1466fffc 	bne	v1,a2,0x6a50
    6a60:	a0c4ffff 	sb	a0,-1(a2)
    6a64:	03e00008 	jr	ra
    6a68:	00000000 	nop
    6a6c:	1000ffc7 	b	0x698c
    6a70:	00804021 	move	t0,a0
    6a74:	1000fff4 	b	0x6a48
    6a78:	00403021 	move	a2,v0
    6a7c:	1000ffcf 	b	0x69bc
    6a80:	01001821 	move	v1,t0
    6a84:	8c82004c 	lw	v0,76(a0)
    6a88:	27bdfff0 	addiu	sp,sp,-16
    6a8c:	afb10004 	sw	s1,4(sp)
    6a90:	afb00000 	sw	s0,0(sp)
    6a94:	afbf000c 	sw	ra,12(sp)
    6a98:	afb20008 	sw	s2,8(sp)
    6a9c:	00808021 	move	s0,a0
    6aa0:	10400010 	beqz	v0,0x6ae4
    6aa4:	00a08821 	move	s1,a1
    6aa8:	00111880 	sll	v1,s1,0x2
    6aac:	00431821 	addu	v1,v0,v1
    6ab0:	8c620000 	lw	v0,0(v1)
    6ab4:	10400012 	beqz	v0,0x6b00
    6ab8:	24120001 	li	s2,1
    6abc:	8c440000 	lw	a0,0(v0)
    6ac0:	ac640000 	sw	a0,0(v1)
    6ac4:	ac400010 	sw	zero,16(v0)
    6ac8:	ac40000c 	sw	zero,12(v0)
    6acc:	8fbf000c 	lw	ra,12(sp)
    6ad0:	8fb20008 	lw	s2,8(sp)
    6ad4:	8fb10004 	lw	s1,4(sp)
    6ad8:	8fb00000 	lw	s0,0(sp)
    6adc:	03e00008 	jr	ra
    6ae0:	27bd0010 	addiu	sp,sp,16
    6ae4:	24060021 	li	a2,33
    6ae8:	0c0024f5 	jal	0x93d4
    6aec:	24050004 	li	a1,4
    6af0:	1440ffed 	bnez	v0,0x6aa8
    6af4:	ae02004c 	sw	v0,76(s0)
    6af8:	1000fff4 	b	0x6acc
    6afc:	00001021 	move	v0,zero
    6b00:	02329004 	sllv	s2,s2,s1
    6b04:	26460005 	addiu	a2,s2,5
    6b08:	00063080 	sll	a2,a2,0x2
    6b0c:	24050001 	li	a1,1
    6b10:	0c0024f5 	jal	0x93d4
    6b14:	02002021 	move	a0,s0
    6b18:	5040ffec 	beqzl	v0,0x6acc
    6b1c:	00001021 	move	v0,zero
    6b20:	ac510004 	sw	s1,4(v0)
    6b24:	1000ffe7 	b	0x6ac4
    6b28:	ac520008 	sw	s2,8(v0)
    6b2c:	10a00008 	beqz	a1,0x6b50
    6b30:	00000000 	nop
    6b34:	8ca30004 	lw	v1,4(a1)
    6b38:	8c82004c 	lw	v0,76(a0)
    6b3c:	00031880 	sll	v1,v1,0x2
    6b40:	00431021 	addu	v0,v0,v1
    6b44:	8c430000 	lw	v1,0(v0)
    6b48:	aca30000 	sw	v1,0(a1)
    6b4c:	ac450000 	sw	a1,0(v0)
    6b50:	03e00008 	jr	ra
    6b54:	00000000 	nop
    6b58:	27bdffe8 	addiu	sp,sp,-24
    6b5c:	afb3000c 	sw	s3,12(sp)
    6b60:	afb20008 	sw	s2,8(sp)
    6b64:	afb10004 	sw	s1,4(sp)
    6b68:	afb00000 	sw	s0,0(sp)
    6b6c:	00a09021 	move	s2,a1
    6b70:	8cb10010 	lw	s1,16(a1)
    6b74:	00809821 	move	s3,a0
    6b78:	afbf0014 	sw	ra,20(sp)
    6b7c:	24a40014 	addiu	a0,a1,20
    6b80:	afb40010 	sw	s4,16(sp)
    6b84:	00e08021 	move	s0,a3
    6b88:	00002821 	move	a1,zero
    6b8c:	8c820000 	lw	v0,0(a0)
    6b90:	24a50001 	addiu	a1,a1,1
    6b94:	24840004 	addiu	a0,a0,4
    6b98:	3047ffff 	andi	a3,v0,0xffff
    6b9c:	00e60018 	mult	a3,a2
    6ba0:	00021402 	srl	v0,v0,0x10
    6ba4:	00b1402a 	slt	t0,a1,s1
    6ba8:	00003812 	mflo	a3
    6bac:	00f03821 	addu	a3,a3,s0
    6bb0:	00074c02 	srl	t1,a3,0x10
    6bb4:	00460018 	mult	v0,a2
    6bb8:	30e3ffff 	andi	v1,a3,0xffff
    6bbc:	00001012 	mflo	v0
    6bc0:	00493821 	addu	a3,v0,t1
    6bc4:	00071400 	sll	v0,a3,0x10
    6bc8:	00431821 	addu	v1,v0,v1
    6bcc:	00078402 	srl	s0,a3,0x10
    6bd0:	1500ffee 	bnez	t0,0x6b8c
    6bd4:	ac83fffc 	sw	v1,-4(a0)
    6bd8:	1200000b 	beqz	s0,0x6c08
    6bdc:	8fbf0014 	lw	ra,20(sp)
    6be0:	8e420008 	lw	v0,8(s2)
    6be4:	0222102a 	slt	v0,s1,v0
    6be8:	1040000f 	beqz	v0,0x6c28
    6bec:	26220004 	addiu	v0,s1,4
    6bf0:	00021080 	sll	v0,v0,0x2
    6bf4:	02421021 	addu	v0,s2,v0
    6bf8:	26310001 	addiu	s1,s1,1
    6bfc:	ac500004 	sw	s0,4(v0)
    6c00:	ae510010 	sw	s1,16(s2)
    6c04:	8fbf0014 	lw	ra,20(sp)
    6c08:	02401021 	move	v0,s2
    6c0c:	8fb40010 	lw	s4,16(sp)
    6c10:	8fb3000c 	lw	s3,12(sp)
    6c14:	8fb20008 	lw	s2,8(sp)
    6c18:	8fb10004 	lw	s1,4(sp)
    6c1c:	8fb00000 	lw	s0,0(sp)
    6c20:	03e00008 	jr	ra
    6c24:	27bd0018 	addiu	sp,sp,24
    6c28:	8e450004 	lw	a1,4(s2)
    6c2c:	02602021 	move	a0,s3
    6c30:	0c001aa1 	jal	0x6a84
    6c34:	24a50001 	addiu	a1,a1,1
    6c38:	8e460010 	lw	a2,16(s2)
    6c3c:	2645000c 	addiu	a1,s2,12
    6c40:	2444000c 	addiu	a0,v0,12
    6c44:	24c60002 	addiu	a2,a2,2
    6c48:	00063080 	sll	a2,a2,0x2
    6c4c:	0c001a4d 	jal	0x6934
    6c50:	0040a021 	move	s4,v0
    6c54:	8e430004 	lw	v1,4(s2)
    6c58:	8e62004c 	lw	v0,76(s3)
    6c5c:	00031880 	sll	v1,v1,0x2
    6c60:	00431021 	addu	v0,v0,v1
    6c64:	8c430000 	lw	v1,0(v0)
    6c68:	ae430000 	sw	v1,0(s2)
    6c6c:	ac520000 	sw	s2,0(v0)
    6c70:	26220004 	addiu	v0,s1,4
    6c74:	02809021 	move	s2,s4
    6c78:	00021080 	sll	v0,v0,0x2
    6c7c:	02421021 	addu	v0,s2,v0
    6c80:	26310001 	addiu	s1,s1,1
    6c84:	ac500004 	sw	s0,4(v0)
    6c88:	1000ffde 	b	0x6c04
    6c8c:	ae510010 	sw	s1,16(s2)
    6c90:	3c0238e3 	lui	v0,0x38e3
    6c94:	24e30008 	addiu	v1,a3,8
    6c98:	34428e39 	ori	v0,v0,0x8e39
    6c9c:	00620018 	mult	v1,v0
    6ca0:	27bdffe0 	addiu	sp,sp,-32
    6ca4:	00031fc3 	sra	v1,v1,0x1f
    6ca8:	afb10008 	sw	s1,8(sp)
    6cac:	00e08821 	move	s1,a3
    6cb0:	28e7000a 	slti	a3,a3,10
    6cb4:	afb40014 	sw	s4,20(sp)
    6cb8:	afb30010 	sw	s3,16(sp)
    6cbc:	afb2000c 	sw	s2,12(sp)
    6cc0:	afb00004 	sw	s0,4(sp)
    6cc4:	afbf001c 	sw	ra,28(sp)
    6cc8:	afb50018 	sw	s5,24(sp)
    6ccc:	00809021 	move	s2,a0
    6cd0:	00a08021 	move	s0,a1
    6cd4:	00c09821 	move	s3,a2
    6cd8:	0100a021 	move	s4,t0
    6cdc:	00001010 	mfhi	v0
    6ce0:	00021043 	sra	v0,v0,0x1
    6ce4:	14e00035 	bnez	a3,0x6dbc
    6ce8:	00431823 	subu	v1,v0,v1
    6cec:	24020001 	li	v0,1
    6cf0:	00002821 	move	a1,zero
    6cf4:	00021040 	sll	v0,v0,0x1
    6cf8:	0043202a 	slt	a0,v0,v1
    6cfc:	1480fffd 	bnez	a0,0x6cf4
    6d00:	24a50001 	addiu	a1,a1,1
    6d04:	0c001aa1 	jal	0x6a84
    6d08:	02402021 	move	a0,s2
    6d0c:	24040001 	li	a0,1
    6d10:	2a63000a 	slti	v1,s3,10
    6d14:	ac540014 	sw	s4,20(v0)
    6d18:	14600025 	bnez	v1,0x6db0
    6d1c:	ac440010 	sw	a0,16(v0)
    6d20:	26150009 	addiu	s5,s0,9
    6d24:	02a0a021 	move	s4,s5
    6d28:	02138021 	addu	s0,s0,s3
    6d2c:	26940001 	addiu	s4,s4,1
    6d30:	8287ffff 	lb	a3,-1(s4)
    6d34:	2406000a 	li	a2,10
    6d38:	00402821 	move	a1,v0
    6d3c:	24e7ffd0 	addiu	a3,a3,-48
    6d40:	0c001ad6 	jal	0x6b58
    6d44:	02402021 	move	a0,s2
    6d48:	5614fff9 	bnel	s0,s4,0x6d30
    6d4c:	26940001 	addiu	s4,s4,1
    6d50:	2670fff8 	addiu	s0,s3,-8
    6d54:	02b08021 	addu	s0,s5,s0
    6d58:	0271182a 	slt	v1,s3,s1
    6d5c:	1060000b 	beqz	v1,0x6d8c
    6d60:	02338823 	subu	s1,s1,s3
    6d64:	02118821 	addu	s1,s0,s1
    6d68:	26100001 	addiu	s0,s0,1
    6d6c:	8207ffff 	lb	a3,-1(s0)
    6d70:	2406000a 	li	a2,10
    6d74:	00402821 	move	a1,v0
    6d78:	24e7ffd0 	addiu	a3,a3,-48
    6d7c:	0c001ad6 	jal	0x6b58
    6d80:	02402021 	move	a0,s2
    6d84:	1630fff9 	bne	s1,s0,0x6d6c
    6d88:	26100001 	addiu	s0,s0,1
    6d8c:	8fbf001c 	lw	ra,28(sp)
    6d90:	8fb50018 	lw	s5,24(sp)
    6d94:	8fb40014 	lw	s4,20(sp)
    6d98:	8fb30010 	lw	s3,16(sp)
    6d9c:	8fb2000c 	lw	s2,12(sp)
    6da0:	8fb10008 	lw	s1,8(sp)
    6da4:	8fb00004 	lw	s0,4(sp)
    6da8:	03e00008 	jr	ra
    6dac:	27bd0020 	addiu	sp,sp,32
    6db0:	2610000a 	addiu	s0,s0,10
    6db4:	1000ffe8 	b	0x6d58
    6db8:	24130009 	li	s3,9
    6dbc:	1000ffd1 	b	0x6d04
    6dc0:	00002821 	move	a1,zero
    6dc4:	3c03ffff 	lui	v1,0xffff
    6dc8:	00831824 	and	v1,a0,v1
    6dcc:	14600003 	bnez	v1,0x6ddc
    6dd0:	00001021 	move	v0,zero
    6dd4:	00042400 	sll	a0,a0,0x10
    6dd8:	24020010 	li	v0,16
    6ddc:	3c03ff00 	lui	v1,0xff00
    6de0:	00831824 	and	v1,a0,v1
    6de4:	14600003 	bnez	v1,0x6df4
    6de8:	3c03f000 	lui	v1,0xf000
    6dec:	24420008 	addiu	v0,v0,8
    6df0:	00042200 	sll	a0,a0,0x8
    6df4:	00831824 	and	v1,a0,v1
    6df8:	14600003 	bnez	v1,0x6e08
    6dfc:	3c03c000 	lui	v1,0xc000
    6e00:	24420004 	addiu	v0,v0,4
    6e04:	00042100 	sll	a0,a0,0x4
    6e08:	00831824 	and	v1,a0,v1
    6e0c:	14600003 	bnez	v1,0x6e1c
    6e10:	00000000 	nop
    6e14:	24420002 	addiu	v0,v0,2
    6e18:	00042080 	sll	a0,a0,0x2
    6e1c:	04800005 	bltz	a0,0x6e34
    6e20:	3c034000 	lui	v1,0x4000
    6e24:	00832024 	and	a0,a0,v1
    6e28:	24420001 	addiu	v0,v0,1
    6e2c:	24030020 	li	v1,32
    6e30:	0064100a 	movz	v0,v1,a0
    6e34:	03e00008 	jr	ra
    6e38:	00000000 	nop
    6e3c:	8c830000 	lw	v1,0(a0)
    6e40:	30620007 	andi	v0,v1,0x7
    6e44:	1040000b 	beqz	v0,0x6e74
    6e48:	3065ffff 	andi	a1,v1,0xffff
    6e4c:	30620001 	andi	v0,v1,0x1
    6e50:	14400023 	bnez	v0,0x6ee0
    6e54:	00000000 	nop
    6e58:	30620002 	andi	v0,v1,0x2
    6e5c:	50400024 	beqzl	v0,0x6ef0
    6e60:	00031882 	srl	v1,v1,0x2
    6e64:	00031842 	srl	v1,v1,0x1
    6e68:	ac830000 	sw	v1,0(a0)
    6e6c:	03e00008 	jr	ra
    6e70:	24020001 	li	v0,1
    6e74:	14a00003 	bnez	a1,0x6e84
    6e78:	00001021 	move	v0,zero
    6e7c:	00031c02 	srl	v1,v1,0x10
    6e80:	24020010 	li	v0,16
    6e84:	306500ff 	andi	a1,v1,0xff
    6e88:	14a00004 	bnez	a1,0x6e9c
    6e8c:	3065000f 	andi	a1,v1,0xf
    6e90:	24420008 	addiu	v0,v0,8
    6e94:	00031a02 	srl	v1,v1,0x8
    6e98:	3065000f 	andi	a1,v1,0xf
    6e9c:	14a00004 	bnez	a1,0x6eb0
    6ea0:	30650003 	andi	a1,v1,0x3
    6ea4:	24420004 	addiu	v0,v0,4
    6ea8:	00031902 	srl	v1,v1,0x4
    6eac:	30650003 	andi	a1,v1,0x3
    6eb0:	14a00004 	bnez	a1,0x6ec4
    6eb4:	30650001 	andi	a1,v1,0x1
    6eb8:	24420002 	addiu	v0,v0,2
    6ebc:	00031882 	srl	v1,v1,0x2
    6ec0:	30650001 	andi	a1,v1,0x1
    6ec4:	14a00004 	bnez	a1,0x6ed8
    6ec8:	00000000 	nop
    6ecc:	00031842 	srl	v1,v1,0x1
    6ed0:	10600005 	beqz	v1,0x6ee8
    6ed4:	24420001 	addiu	v0,v0,1
    6ed8:	03e00008 	jr	ra
    6edc:	ac830000 	sw	v1,0(a0)
    6ee0:	03e00008 	jr	ra
    6ee4:	00001021 	move	v0,zero
    6ee8:	03e00008 	jr	ra
    6eec:	24020020 	li	v0,32
    6ef0:	ac830000 	sw	v1,0(a0)
    6ef4:	03e00008 	jr	ra
    6ef8:	24020002 	li	v0,2
    6efc:	27bdfff8 	addiu	sp,sp,-8
    6f00:	afb00000 	sw	s0,0(sp)
    6f04:	00a08021 	move	s0,a1
    6f08:	afbf0004 	sw	ra,4(sp)
    6f0c:	0c001aa1 	jal	0x6a84
    6f10:	24050001 	li	a1,1
    6f14:	8fbf0004 	lw	ra,4(sp)
    6f18:	24040001 	li	a0,1
    6f1c:	ac500014 	sw	s0,20(v0)
    6f20:	ac440010 	sw	a0,16(v0)
    6f24:	8fb00000 	lw	s0,0(sp)
    6f28:	03e00008 	jr	ra
    6f2c:	27bd0008 	addiu	sp,sp,8
    6f30:	27bdffe8 	addiu	sp,sp,-24
    6f34:	afb40010 	sw	s4,16(sp)
    6f38:	afb3000c 	sw	s3,12(sp)
    6f3c:	8cd40010 	lw	s4,16(a2)
    6f40:	8cb30010 	lw	s3,16(a1)
    6f44:	afb20008 	sw	s2,8(sp)
    6f48:	afb10004 	sw	s1,4(sp)
    6f4c:	0274102a 	slt	v0,s3,s4
    6f50:	afbf0014 	sw	ra,20(sp)
    6f54:	afb00000 	sw	s0,0(sp)
    6f58:	00a08821 	move	s1,a1
    6f5c:	14400006 	bnez	v0,0x6f78
    6f60:	00c09021 	move	s2,a2
    6f64:	02801821 	move	v1,s4
    6f68:	00a09021 	move	s2,a1
    6f6c:	0260a021 	move	s4,s3
    6f70:	00c08821 	move	s1,a2
    6f74:	00609821 	move	s3,v1
    6f78:	8e420008 	lw	v0,8(s2)
    6f7c:	8e450004 	lw	a1,4(s2)
    6f80:	02938021 	addu	s0,s4,s3
    6f84:	0050102a 	slt	v0,v0,s0
    6f88:	0c001aa1 	jal	0x6a84
    6f8c:	00a22821 	addu	a1,a1,v0
    6f90:	244a0014 	addiu	t2,v0,20
    6f94:	00104880 	sll	t1,s0,0x2
    6f98:	01494821 	addu	t1,t2,t1
    6f9c:	0149202b 	sltu	a0,t2,t1
    6fa0:	10800006 	beqz	a0,0x6fbc
    6fa4:	01401821 	move	v1,t2
    6fa8:	ac600000 	sw	zero,0(v1)
    6fac:	24630004 	addiu	v1,v1,4
    6fb0:	0069202b 	sltu	a0,v1,t1
    6fb4:	5480fffd 	bnezl	a0,0x6fac
    6fb8:	ac600000 	sw	zero,0(v1)
    6fbc:	26250014 	addiu	a1,s1,20
    6fc0:	00135880 	sll	t3,s3,0x2
    6fc4:	00ab5821 	addu	t3,a1,t3
    6fc8:	26460014 	addiu	a2,s2,20
    6fcc:	00144080 	sll	t0,s4,0x2
    6fd0:	00ab182b 	sltu	v1,a1,t3
    6fd4:	14600009 	bnez	v1,0x6ffc
    6fd8:	00c84021 	addu	t0,a2,t0
    6fdc:	1000004c 	b	0x7110
    6fe0:	00000000 	nop
    6fe4:	55c0002a 	bnezl	t6,0x7090
    6fe8:	8d430000 	lw	v1,0(t2)
    6fec:	24a50004 	addiu	a1,a1,4
    6ff0:	00ab182b 	sltu	v1,a1,t3
    6ff4:	10600046 	beqz	v1,0x7110
    6ff8:	254a0004 	addiu	t2,t2,4
    6ffc:	8cae0000 	lw	t6,0(a1)
    7000:	31cfffff 	andi	t7,t6,0xffff
    7004:	11e0fff7 	beqz	t7,0x6fe4
    7008:	000e7402 	srl	t6,t6,0x10
    700c:	01406821 	move	t5,t2
    7010:	00c07021 	move	t6,a2
    7014:	0000c021 	move	t8,zero
    7018:	8dc40000 	lw	a0,0(t6)
    701c:	8dac0000 	lw	t4,0(t5)
    7020:	25ce0004 	addiu	t6,t6,4
    7024:	3087ffff 	andi	a3,a0,0xffff
    7028:	00ef0018 	mult	a3,t7
    702c:	00042402 	srl	a0,a0,0x10
    7030:	3199ffff 	andi	t9,t4,0xffff
    7034:	000c1c02 	srl	v1,t4,0x10
    7038:	25ad0004 	addiu	t5,t5,4
    703c:	01c8602b 	sltu	t4,t6,t0
    7040:	00003812 	mflo	a3
    7044:	00f93821 	addu	a3,a3,t9
    7048:	00f83821 	addu	a3,a3,t8
    704c:	008f0018 	mult	a0,t7
    7050:	0007c402 	srl	t8,a3,0x10
    7054:	30e7ffff 	andi	a3,a3,0xffff
    7058:	00002012 	mflo	a0
    705c:	00831821 	addu	v1,a0,v1
    7060:	00781821 	addu	v1,v1,t8
    7064:	00032400 	sll	a0,v1,0x10
    7068:	00873825 	or	a3,a0,a3
    706c:	0003c402 	srl	t8,v1,0x10
    7070:	1580ffe9 	bnez	t4,0x7018
    7074:	ada7fffc 	sw	a3,-4(t5)
    7078:	adb80000 	sw	t8,0(t5)
    707c:	8cae0000 	lw	t6,0(a1)
    7080:	000e7402 	srl	t6,t6,0x10
    7084:	51c0ffda 	beqzl	t6,0x6ff0
    7088:	24a50004 	addiu	a1,a1,4
    708c:	8d430000 	lw	v1,0(t2)
    7090:	01406821 	move	t5,t2
    7094:	00c06021 	move	t4,a2
    7098:	00607821 	move	t7,v1
    709c:	0000c021 	move	t8,zero
    70a0:	95840000 	lhu	a0,0(t4)
    70a4:	000f9402 	srl	s2,t7,0x10
    70a8:	3063ffff 	andi	v1,v1,0xffff
    70ac:	008e0018 	mult	a0,t6
    70b0:	25ad0004 	addiu	t5,t5,4
    70b4:	258c0004 	addiu	t4,t4,4
    70b8:	8daf0000 	lw	t7,0(t5)
    70bc:	0188c82b 	sltu	t9,t4,t0
    70c0:	31f1ffff 	andi	s1,t7,0xffff
    70c4:	00003812 	mflo	a3
    70c8:	00f23821 	addu	a3,a3,s2
    70cc:	00f83821 	addu	a3,a3,t8
    70d0:	00072400 	sll	a0,a3,0x10
    70d4:	00831825 	or	v1,a0,v1
    70d8:	ada3fffc 	sw	v1,-4(t5)
    70dc:	9584fffe 	lhu	a0,-2(t4)
    70e0:	00073c02 	srl	a3,a3,0x10
    70e4:	008e0018 	mult	a0,t6
    70e8:	00001812 	mflo	v1
    70ec:	00711821 	addu	v1,v1,s1
    70f0:	00671821 	addu	v1,v1,a3
    70f4:	1720ffea 	bnez	t9,0x70a0
    70f8:	0003c402 	srl	t8,v1,0x10
    70fc:	24a50004 	addiu	a1,a1,4
    7100:	ada30000 	sw	v1,0(t5)
    7104:	00ab182b 	sltu	v1,a1,t3
    7108:	1460ffbc 	bnez	v1,0x6ffc
    710c:	254a0004 	addiu	t2,t2,4
    7110:	1a00000d 	blez	s0,0x7148
    7114:	8fbf0014 	lw	ra,20(sp)
    7118:	8d23fffc 	lw	v1,-4(t1)
    711c:	10600006 	beqz	v1,0x7138
    7120:	2529fffc 	addiu	t1,t1,-4
    7124:	10000009 	b	0x714c
    7128:	ac500010 	sw	s0,16(v0)
    712c:	8d230000 	lw	v1,0(t1)
    7130:	14600005 	bnez	v1,0x7148
    7134:	8fbf0014 	lw	ra,20(sp)
    7138:	2610ffff 	addiu	s0,s0,-1
    713c:	1600fffb 	bnez	s0,0x712c
    7140:	2529fffc 	addiu	t1,t1,-4
    7144:	8fbf0014 	lw	ra,20(sp)
    7148:	ac500010 	sw	s0,16(v0)
    714c:	8fb40010 	lw	s4,16(sp)
    7150:	8fb3000c 	lw	s3,12(sp)
    7154:	8fb20008 	lw	s2,8(sp)
    7158:	8fb10004 	lw	s1,4(sp)
    715c:	8fb00000 	lw	s0,0(sp)
    7160:	03e00008 	jr	ra
    7164:	27bd0018 	addiu	sp,sp,24
    7168:	27bdffe8 	addiu	sp,sp,-24
    716c:	30c20003 	andi	v0,a2,0x3
    7170:	afb30010 	sw	s3,16(sp)
    7174:	afb2000c 	sw	s2,12(sp)
    7178:	afb00004 	sw	s0,4(sp)
    717c:	afbf0014 	sw	ra,20(sp)
    7180:	afb10008 	sw	s1,8(sp)
    7184:	00c08021 	move	s0,a2
    7188:	00809821 	move	s3,a0
    718c:	14400033 	bnez	v0,0x725c
    7190:	00a09021 	move	s2,a1
    7194:	00108083 	sra	s0,s0,0x2
    7198:	12000022 	beqz	s0,0x7224
    719c:	8fbf0014 	lw	ra,20(sp)
    71a0:	8e710048 	lw	s1,72(s3)
    71a4:	52200037 	beqzl	s1,0x7284
    71a8:	24050001 	li	a1,1
    71ac:	32020001 	andi	v0,s0,0x1
    71b0:	5440000c 	bnezl	v0,0x71e4
    71b4:	02402821 	move	a1,s2
    71b8:	00108043 	sra	s0,s0,0x1
    71bc:	12000019 	beqz	s0,0x7224
    71c0:	8fbf0014 	lw	ra,20(sp)
    71c4:	8e220000 	lw	v0,0(s1)
    71c8:	1040001d 	beqz	v0,0x7240
    71cc:	02203021 	move	a2,s1
    71d0:	00408821 	move	s1,v0
    71d4:	32020001 	andi	v0,s0,0x1
    71d8:	5040fff8 	beqzl	v0,0x71bc
    71dc:	00108043 	sra	s0,s0,0x1
    71e0:	02402821 	move	a1,s2
    71e4:	02203021 	move	a2,s1
    71e8:	0c001bcc 	jal	0x6f30
    71ec:	02602021 	move	a0,s3
    71f0:	5240fff1 	beqzl	s2,0x71b8
    71f4:	00409021 	move	s2,v0
    71f8:	8e440004 	lw	a0,4(s2)
    71fc:	8e63004c 	lw	v1,76(s3)
    7200:	00108043 	sra	s0,s0,0x1
    7204:	00042080 	sll	a0,a0,0x2
    7208:	00641821 	addu	v1,v1,a0
    720c:	8c640000 	lw	a0,0(v1)
    7210:	ae440000 	sw	a0,0(s2)
    7214:	ac720000 	sw	s2,0(v1)
    7218:	1600ffea 	bnez	s0,0x71c4
    721c:	00409021 	move	s2,v0
    7220:	8fbf0014 	lw	ra,20(sp)
    7224:	02401021 	move	v0,s2
    7228:	8fb30010 	lw	s3,16(sp)
    722c:	8fb2000c 	lw	s2,12(sp)
    7230:	8fb10008 	lw	s1,8(sp)
    7234:	8fb00004 	lw	s0,4(sp)
    7238:	03e00008 	jr	ra
    723c:	27bd0018 	addiu	sp,sp,24
    7240:	02202821 	move	a1,s1
    7244:	0c001bcc 	jal	0x6f30
    7248:	02602021 	move	a0,s3
    724c:	ae220000 	sw	v0,0(s1)
    7250:	ac400000 	sw	zero,0(v0)
    7254:	1000ffdf 	b	0x71d4
    7258:	00408821 	move	s1,v0
    725c:	2442ffff 	addiu	v0,v0,-1
    7260:	3c030001 	lui	v1,0x1
    7264:	2463bf28 	addiu	v1,v1,-16600
    7268:	00021080 	sll	v0,v0,0x2
    726c:	00621021 	addu	v0,v1,v0
    7270:	8c460000 	lw	a2,0(v0)
    7274:	0c001ad6 	jal	0x6b58
    7278:	00003821 	move	a3,zero
    727c:	1000ffc5 	b	0x7194
    7280:	00409021 	move	s2,v0
    7284:	0c001aa1 	jal	0x6a84
    7288:	02602021 	move	a0,s3
    728c:	00408821 	move	s1,v0
    7290:	24020271 	li	v0,625
    7294:	ae220014 	sw	v0,20(s1)
    7298:	24020001 	li	v0,1
    729c:	ae220010 	sw	v0,16(s1)
    72a0:	ae710048 	sw	s1,72(s3)
    72a4:	1000ffc1 	b	0x71ac
    72a8:	ae200000 	sw	zero,0(s1)
    72ac:	27bdffe0 	addiu	sp,sp,-32
    72b0:	afb30010 	sw	s3,16(sp)
    72b4:	8cb30010 	lw	s3,16(a1)
    72b8:	8ca20008 	lw	v0,8(a1)
    72bc:	afb10008 	sw	s1,8(sp)
    72c0:	00068943 	sra	s1,a2,0x5
    72c4:	02339821 	addu	s3,s1,s3
    72c8:	afb00004 	sw	s0,4(sp)
    72cc:	26700001 	addiu	s0,s3,1
    72d0:	0050182a 	slt	v1,v0,s0
    72d4:	afb50018 	sw	s5,24(sp)
    72d8:	afb40014 	sw	s4,20(sp)
    72dc:	afb2000c 	sw	s2,12(sp)
    72e0:	afbf001c 	sw	ra,28(sp)
    72e4:	00a09021 	move	s2,a1
    72e8:	00c0a821 	move	s5,a2
    72ec:	0080a021 	move	s4,a0
    72f0:	10600005 	beqz	v1,0x7308
    72f4:	8ca50004 	lw	a1,4(a1)
    72f8:	00021040 	sll	v0,v0,0x1
    72fc:	0050182a 	slt	v1,v0,s0
    7300:	1460fffd 	bnez	v1,0x72f8
    7304:	24a50001 	addiu	a1,a1,1
    7308:	0c001aa1 	jal	0x6a84
    730c:	02802021 	move	a0,s4
    7310:	1a20000a 	blez	s1,0x733c
    7314:	24440014 	addiu	a0,v0,20
    7318:	26310005 	addiu	s1,s1,5
    731c:	00118880 	sll	s1,s1,0x2
    7320:	00512821 	addu	a1,v0,s1
    7324:	00801821 	move	v1,a0
    7328:	24630004 	addiu	v1,v1,4
    732c:	14a3fffe 	bne	a1,v1,0x7328
    7330:	ac60fffc 	sw	zero,-4(v1)
    7334:	2631ffec 	addiu	s1,s1,-20
    7338:	00912021 	addu	a0,a0,s1
    733c:	8e480010 	lw	t0,16(s2)
    7340:	26430014 	addiu	v1,s2,20
    7344:	32a6001f 	andi	a2,s5,0x1f
    7348:	00084080 	sll	t0,t0,0x2
    734c:	10c00021 	beqz	a2,0x73d4
    7350:	00684021 	addu	t0,v1,t0
    7354:	240a0020 	li	t2,32
    7358:	01465023 	subu	t2,t2,a2
    735c:	00003821 	move	a3,zero
    7360:	8c650000 	lw	a1,0(v1)
    7364:	24840004 	addiu	a0,a0,4
    7368:	24630004 	addiu	v1,v1,4
    736c:	00c52804 	sllv	a1,a1,a2
    7370:	00a72825 	or	a1,a1,a3
    7374:	ac85fffc 	sw	a1,-4(a0)
    7378:	8c65fffc 	lw	a1,-4(v1)
    737c:	0068482b 	sltu	t1,v1,t0
    7380:	1520fff7 	bnez	t1,0x7360
    7384:	01453806 	srlv	a3,a1,t2
    7388:	ac870000 	sw	a3,0(a0)
    738c:	0207980b 	movn	s3,s0,a3
    7390:	8e440004 	lw	a0,4(s2)
    7394:	8e83004c 	lw	v1,76(s4)
    7398:	8fbf001c 	lw	ra,28(sp)
    739c:	00042080 	sll	a0,a0,0x2
    73a0:	00641821 	addu	v1,v1,a0
    73a4:	8c640000 	lw	a0,0(v1)
    73a8:	ac530010 	sw	s3,16(v0)
    73ac:	8fb50018 	lw	s5,24(sp)
    73b0:	ae440000 	sw	a0,0(s2)
    73b4:	8fb40014 	lw	s4,20(sp)
    73b8:	ac720000 	sw	s2,0(v1)
    73bc:	8fb30010 	lw	s3,16(sp)
    73c0:	8fb2000c 	lw	s2,12(sp)
    73c4:	8fb10008 	lw	s1,8(sp)
    73c8:	8fb00004 	lw	s0,4(sp)
    73cc:	03e00008 	jr	ra
    73d0:	27bd0020 	addiu	sp,sp,32
    73d4:	24630004 	addiu	v1,v1,4
    73d8:	8c66fffc 	lw	a2,-4(v1)
    73dc:	24840004 	addiu	a0,a0,4
    73e0:	0068282b 	sltu	a1,v1,t0
    73e4:	10a0ffea 	beqz	a1,0x7390
    73e8:	ac86fffc 	sw	a2,-4(a0)
    73ec:	24630004 	addiu	v1,v1,4
    73f0:	8c66fffc 	lw	a2,-4(v1)
    73f4:	24840004 	addiu	a0,a0,4
    73f8:	0068282b 	sltu	a1,v1,t0
    73fc:	14a0fff5 	bnez	a1,0x73d4
    7400:	ac86fffc 	sw	a2,-4(a0)
    7404:	1000ffe3 	b	0x7394
    7408:	8e440004 	lw	a0,4(s2)
    740c:	8c860010 	lw	a2,16(a0)
    7410:	8ca30010 	lw	v1,16(a1)
    7414:	00c31023 	subu	v0,a2,v1
    7418:	14400013 	bnez	v0,0x7468
    741c:	00033080 	sll	a2,v1,0x2
    7420:	24840014 	addiu	a0,a0,20
    7424:	24a50014 	addiu	a1,a1,20
    7428:	00861821 	addu	v1,a0,a2
    742c:	10000003 	b	0x743c
    7430:	00a62821 	addu	a1,a1,a2
    7434:	1100000c 	beqz	t0,0x7468
    7438:	00000000 	nop
    743c:	2463fffc 	addiu	v1,v1,-4
    7440:	24a5fffc 	addiu	a1,a1,-4
    7444:	8c660000 	lw	a2,0(v1)
    7448:	8ca70000 	lw	a3,0(a1)
    744c:	10c7fff9 	beq	a2,a3,0x7434
    7450:	0083402b 	sltu	t0,a0,v1
    7454:	00c7302b 	sltu	a2,a2,a3
    7458:	24030001 	li	v1,1
    745c:	2402ffff 	li	v0,-1
    7460:	03e00008 	jr	ra
    7464:	0066100a 	movz	v0,v1,a2
    7468:	03e00008 	jr	ra
    746c:	00000000 	nop
    7470:	27bdffe8 	addiu	sp,sp,-24
    7474:	8cc30010 	lw	v1,16(a2)
    7478:	afb20008 	sw	s2,8(sp)
    747c:	8cb20010 	lw	s2,16(a1)
    7480:	afb40010 	sw	s4,16(sp)
    7484:	afb3000c 	sw	s3,12(sp)
    7488:	02439023 	subu	s2,s2,v1
    748c:	afb10004 	sw	s1,4(sp)
    7490:	afb00000 	sw	s0,0(sp)
    7494:	afbf0014 	sw	ra,20(sp)
    7498:	00a09821 	move	s3,a1
    749c:	00c0a021 	move	s4,a2
    74a0:	24b00014 	addiu	s0,a1,20
    74a4:	16400018 	bnez	s2,0x7508
    74a8:	24d10014 	addiu	s1,a2,20
    74ac:	00031880 	sll	v1,v1,0x2
    74b0:	02031021 	addu	v0,s0,v1
    74b4:	10000003 	b	0x74c4
    74b8:	02231821 	addu	v1,s1,v1
    74bc:	1100005f 	beqz	t0,0x763c
    74c0:	00000000 	nop
    74c4:	2442fffc 	addiu	v0,v0,-4
    74c8:	2463fffc 	addiu	v1,v1,-4
    74cc:	8c450000 	lw	a1,0(v0)
    74d0:	8c670000 	lw	a3,0(v1)
    74d4:	10a7fff9 	beq	a1,a3,0x74bc
    74d8:	0202402b 	sltu	t0,s0,v0
    74dc:	00a7282b 	sltu	a1,a1,a3
    74e0:	10a0000c 	beqz	a1,0x7514
    74e4:	00000000 	nop
    74e8:	02001821 	move	v1,s0
    74ec:	02601021 	move	v0,s3
    74f0:	02208021 	move	s0,s1
    74f4:	02809821 	move	s3,s4
    74f8:	00608821 	move	s1,v1
    74fc:	0040a021 	move	s4,v0
    7500:	10000004 	b	0x7514
    7504:	24120001 	li	s2,1
    7508:	0642fff8 	bltzl	s2,0x74ec
    750c:	02001821 	move	v1,s0
    7510:	00009021 	move	s2,zero
    7514:	0c001aa1 	jal	0x6a84
    7518:	8e650004 	lw	a1,4(s3)
    751c:	8e6a0010 	lw	t2,16(s3)
    7520:	8e860010 	lw	a2,16(s4)
    7524:	24480014 	addiu	t0,v0,20
    7528:	000a4880 	sll	t1,t2,0x2
    752c:	00063080 	sll	a2,a2,0x2
    7530:	ac52000c 	sw	s2,12(v0)
    7534:	02094821 	addu	t1,s0,t1
    7538:	02263021 	addu	a2,s1,a2
    753c:	10000002 	b	0x7548
    7540:	00001821 	move	v1,zero
    7544:	01604021 	move	t0,t3
    7548:	8e040000 	lw	a0,0(s0)
    754c:	8e270000 	lw	a3,0(s1)
    7550:	26310004 	addiu	s1,s1,4
    7554:	3085ffff 	andi	a1,a0,0xffff
    7558:	00a32821 	addu	a1,a1,v1
    755c:	30e3ffff 	andi	v1,a3,0xffff
    7560:	00a32823 	subu	a1,a1,v1
    7564:	00073c02 	srl	a3,a3,0x10
    7568:	00041c02 	srl	v1,a0,0x10
    756c:	00671823 	subu	v1,v1,a3
    7570:	00052403 	sra	a0,a1,0x10
    7574:	00641821 	addu	v1,v1,a0
    7578:	00032400 	sll	a0,v1,0x10
    757c:	30a5ffff 	andi	a1,a1,0xffff
    7580:	00852825 	or	a1,a0,a1
    7584:	250b0004 	addiu	t3,t0,4
    7588:	0226202b 	sltu	a0,s1,a2
    758c:	26100004 	addiu	s0,s0,4
    7590:	00031c03 	sra	v1,v1,0x10
    7594:	1480ffeb 	bnez	a0,0x7544
    7598:	ad65fffc 	sw	a1,-4(t3)
    759c:	0209202b 	sltu	a0,s0,t1
    75a0:	10800017 	beqz	a0,0x7600
    75a4:	00000000 	nop
    75a8:	01604021 	move	t0,t3
    75ac:	02003821 	move	a3,s0
    75b0:	8ce40000 	lw	a0,0(a3)
    75b4:	24e70004 	addiu	a3,a3,4
    75b8:	25080004 	addiu	t0,t0,4
    75bc:	3086ffff 	andi	a2,a0,0xffff
    75c0:	00c33021 	addu	a2,a2,v1
    75c4:	00062c03 	sra	a1,a2,0x10
    75c8:	00041c02 	srl	v1,a0,0x10
    75cc:	00651821 	addu	v1,v1,a1
    75d0:	00032c00 	sll	a1,v1,0x10
    75d4:	30c6ffff 	andi	a2,a2,0xffff
    75d8:	00a62825 	or	a1,a1,a2
    75dc:	00e9202b 	sltu	a0,a3,t1
    75e0:	00031c03 	sra	v1,v1,0x10
    75e4:	1480fff2 	bnez	a0,0x75b0
    75e8:	ad05fffc 	sw	a1,-4(t0)
    75ec:	2528ffff 	addiu	t0,t1,-1
    75f0:	01104023 	subu	t0,t0,s0
    75f4:	00084082 	srl	t0,t0,0x2
    75f8:	00084080 	sll	t0,t0,0x2
    75fc:	01684021 	addu	t0,t3,t0
    7600:	14a00006 	bnez	a1,0x761c
    7604:	8fbf0014 	lw	ra,20(sp)
    7608:	2508fffc 	addiu	t0,t0,-4
    760c:	8d030000 	lw	v1,0(t0)
    7610:	1060fffd 	beqz	v1,0x7608
    7614:	254affff 	addiu	t2,t2,-1
    7618:	8fbf0014 	lw	ra,20(sp)
    761c:	8fb40010 	lw	s4,16(sp)
    7620:	8fb3000c 	lw	s3,12(sp)
    7624:	8fb20008 	lw	s2,8(sp)
    7628:	8fb10004 	lw	s1,4(sp)
    762c:	8fb00000 	lw	s0,0(sp)
    7630:	ac4a0010 	sw	t2,16(v0)
    7634:	03e00008 	jr	ra
    7638:	27bd0018 	addiu	sp,sp,24
    763c:	0c001aa1 	jal	0x6a84
    7640:	00002821 	move	a1,zero
    7644:	8fbf0014 	lw	ra,20(sp)
    7648:	24030001 	li	v1,1
    764c:	8fb40010 	lw	s4,16(sp)
    7650:	8fb3000c 	lw	s3,12(sp)
    7654:	8fb20008 	lw	s2,8(sp)
    7658:	8fb10004 	lw	s1,4(sp)
    765c:	8fb00000 	lw	s0,0(sp)
    7660:	ac430010 	sw	v1,16(v0)
    7664:	ac400014 	sw	zero,20(v0)
    7668:	03e00008 	jr	ra
    766c:	27bd0018 	addiu	sp,sp,24
    7670:	3c027ff0 	lui	v0,0x7ff0
    7674:	00452824 	and	a1,v0,a1
    7678:	3c02fcc0 	lui	v0,0xfcc0
    767c:	00a22821 	addu	a1,a1,v0
    7680:	58a00005 	blezl	a1,0x7698
    7684:	00052823 	negu	a1,a1
    7688:	00001821 	move	v1,zero
    768c:	00601021 	move	v0,v1
    7690:	03e00008 	jr	ra
    7694:	00a01821 	move	v1,a1
    7698:	00052d03 	sra	a1,a1,0x14
    769c:	28a20014 	slti	v0,a1,20
    76a0:	50400004 	beqzl	v0,0x76b4
    76a4:	24a2ffec 	addiu	v0,a1,-20
    76a8:	3c020008 	lui	v0,0x8
    76ac:	1000fff6 	b	0x7688
    76b0:	00a22807 	srav	a1,v0,a1
    76b4:	2844001f 	slti	a0,v0,31
    76b8:	00002821 	move	a1,zero
    76bc:	1080fff3 	beqz	a0,0x768c
    76c0:	24030001 	li	v1,1
    76c4:	3c038000 	lui	v1,0x8000
    76c8:	00431806 	srlv	v1,v1,v0
    76cc:	00601021 	move	v0,v1
    76d0:	03e00008 	jr	ra
    76d4:	00a01821 	move	v1,a1
    76d8:	8c860010 	lw	a2,16(a0)
    76dc:	24870014 	addiu	a3,a0,20
    76e0:	27bdfff8 	addiu	sp,sp,-8
    76e4:	00063080 	sll	a2,a2,0x2
    76e8:	00e63021 	addu	a2,a3,a2
    76ec:	8cc8fffc 	lw	t0,-4(a2)
    76f0:	24c9fffc 	addiu	t1,a2,-4
    76f4:	afbf0004 	sw	ra,4(sp)
    76f8:	0c001b71 	jal	0x6dc4
    76fc:	01002021 	move	a0,t0
    7700:	24040020 	li	a0,32
    7704:	00825023 	subu	t2,a0,v0
    7708:	2843000b 	slti	v1,v0,11
    770c:	14600021 	bnez	v1,0x7794
    7710:	acaa0000 	sw	t2,0(a1)
    7714:	00e9482b 	sltu	t1,a3,t1
    7718:	11200015 	beqz	t1,0x7770
    771c:	2442fff5 	addiu	v0,v0,-11
    7720:	10400015 	beqz	v0,0x7778
    7724:	8cc3fff8 	lw	v1,-8(a2)
    7728:	00822823 	subu	a1,a0,v0
    772c:	00a34806 	srlv	t1,v1,a1
    7730:	24c4fff8 	addiu	a0,a2,-8
    7734:	00484004 	sllv	t0,t0,v0
    7738:	01094025 	or	t0,t0,t1
    773c:	00e4382b 	sltu	a3,a3,a0
    7740:	3c043ff0 	lui	a0,0x3ff0
    7744:	01042025 	or	a0,t0,a0
    7748:	10e0000d 	beqz	a3,0x7780
    774c:	00431804 	sllv	v1,v1,v0
    7750:	8cc2fff4 	lw	v0,-12(a2)
    7754:	8fbf0004 	lw	ra,4(sp)
    7758:	27bd0008 	addiu	sp,sp,8
    775c:	00a22806 	srlv	a1,v0,a1
    7760:	00651825 	or	v1,v1,a1
    7764:	00601021 	move	v0,v1
    7768:	03e00008 	jr	ra
    776c:	00801821 	move	v1,a0
    7770:	1440001a 	bnez	v0,0x77dc
    7774:	00001821 	move	v1,zero
    7778:	3c043ff0 	lui	a0,0x3ff0
    777c:	01042025 	or	a0,t0,a0
    7780:	8fbf0004 	lw	ra,4(sp)
    7784:	00601021 	move	v0,v1
    7788:	00801821 	move	v1,a0
    778c:	03e00008 	jr	ra
    7790:	27bd0008 	addiu	sp,sp,8
    7794:	240a000b 	li	t2,11
    7798:	01425023 	subu	t2,t2,v0
    779c:	01482006 	srlv	a0,t0,t2
    77a0:	3c033ff0 	lui	v1,0x3ff0
    77a4:	00e9382b 	sltu	a3,a3,t1
    77a8:	00832025 	or	a0,a0,v1
    77ac:	10e00003 	beqz	a3,0x77bc
    77b0:	00002821 	move	a1,zero
    77b4:	8cc5fff8 	lw	a1,-8(a2)
    77b8:	01452806 	srlv	a1,a1,t2
    77bc:	8fbf0004 	lw	ra,4(sp)
    77c0:	24420015 	addiu	v0,v0,21
    77c4:	00481004 	sllv	v0,t0,v0
    77c8:	00451825 	or	v1,v0,a1
    77cc:	00601021 	move	v0,v1
    77d0:	00801821 	move	v1,a0
    77d4:	03e00008 	jr	ra
    77d8:	27bd0008 	addiu	sp,sp,8
    77dc:	8fbf0004 	lw	ra,4(sp)
    77e0:	00481004 	sllv	v0,t0,v0
    77e4:	3c043ff0 	lui	a0,0x3ff0
    77e8:	00442025 	or	a0,v0,a0
    77ec:	00601021 	move	v0,v1
    77f0:	00801821 	move	v1,a0
    77f4:	03e00008 	jr	ra
    77f8:	27bd0008 	addiu	sp,sp,8
    77fc:	27bdffe0 	addiu	sp,sp,-32
    7800:	24050001 	li	a1,1
    7804:	afb40018 	sw	s4,24(sp)
    7808:	afb30014 	sw	s3,20(sp)
    780c:	afb20010 	sw	s2,16(sp)
    7810:	afb1000c 	sw	s1,12(sp)
    7814:	afb00008 	sw	s0,8(sp)
    7818:	01009821 	move	s3,t0
    781c:	00e08021 	move	s0,a3
    7820:	afbf001c 	sw	ra,28(sp)
    7824:	7cf15500 	ext	s1,a3,0x14,0xb
    7828:	00c0a021 	move	s4,a2
    782c:	0c001aa1 	jal	0x6a84
    7830:	01209021 	move	s2,t1
    7834:	00404021 	move	t0,v0
    7838:	12200003 	beqz	s1,0x7848
    783c:	7e109800 	ext	s0,s0,0x0,0x14
    7840:	3c070010 	lui	a3,0x10
    7844:	02078025 	or	s0,s0,a3
    7848:	12800024 	beqz	s4,0x78dc
    784c:	afb00000 	sw	s0,0(sp)
    7850:	27a40004 	addiu	a0,sp,4
    7854:	0c001b8f 	jal	0x6e3c
    7858:	afb40004 	sw	s4,4(sp)
    785c:	14400017 	bnez	v0,0x78bc
    7860:	8fa30000 	lw	v1,0(sp)
    7864:	8fa40004 	lw	a0,4(sp)
    7868:	ad040014 	sw	a0,20(t0)
    786c:	0003282b 	sltu	a1,zero,v1
    7870:	24a50001 	addiu	a1,a1,1
    7874:	ad030018 	sw	v1,24(t0)
    7878:	12200021 	beqz	s1,0x7900
    787c:	ad050010 	sw	a1,16(t0)
    7880:	8fbf001c 	lw	ra,28(sp)
    7884:	2631fbcd 	addiu	s1,s1,-1075
    7888:	24030035 	li	v1,53
    788c:	02228821 	addu	s1,s1,v0
    7890:	00621023 	subu	v0,v1,v0
    7894:	ae710000 	sw	s1,0(s3)
    7898:	8fb40018 	lw	s4,24(sp)
    789c:	ae420000 	sw	v0,0(s2)
    78a0:	8fb30014 	lw	s3,20(sp)
    78a4:	8fb20010 	lw	s2,16(sp)
    78a8:	8fb1000c 	lw	s1,12(sp)
    78ac:	8fb00008 	lw	s0,8(sp)
    78b0:	01001021 	move	v0,t0
    78b4:	03e00008 	jr	ra
    78b8:	27bd0020 	addiu	sp,sp,32
    78bc:	8fa50004 	lw	a1,4(sp)
    78c0:	00022023 	negu	a0,v0
    78c4:	00832004 	sllv	a0,v1,a0
    78c8:	00852025 	or	a0,a0,a1
    78cc:	00431806 	srlv	v1,v1,v0
    78d0:	ad040014 	sw	a0,20(t0)
    78d4:	1000ffe5 	b	0x786c
    78d8:	afa30000 	sw	v1,0(sp)
    78dc:	0c001b8f 	jal	0x6e3c
    78e0:	03a02021 	move	a0,sp
    78e4:	24030001 	li	v1,1
    78e8:	ad030010 	sw	v1,16(t0)
    78ec:	8fa30000 	lw	v1,0(sp)
    78f0:	24420020 	addiu	v0,v0,32
    78f4:	24050001 	li	a1,1
    78f8:	1620ffe1 	bnez	s1,0x7880
    78fc:	ad030014 	sw	v1,20(t0)
    7900:	00051880 	sll	v1,a1,0x2
    7904:	01031821 	addu	v1,t0,v1
    7908:	8c640010 	lw	a0,16(v1)
    790c:	2442fbce 	addiu	v0,v0,-1074
    7910:	0c001b71 	jal	0x6dc4
    7914:	ae620000 	sw	v0,0(s3)
    7918:	8fbf001c 	lw	ra,28(sp)
    791c:	00052940 	sll	a1,a1,0x5
    7920:	00a22823 	subu	a1,a1,v0
    7924:	ae450000 	sw	a1,0(s2)
    7928:	8fb40018 	lw	s4,24(sp)
    792c:	8fb30014 	lw	s3,20(sp)
    7930:	8fb20010 	lw	s2,16(sp)
    7934:	8fb1000c 	lw	s1,12(sp)
    7938:	8fb00008 	lw	s0,8(sp)
    793c:	01001021 	move	v0,t0
    7940:	03e00008 	jr	ra
    7944:	27bd0020 	addiu	sp,sp,32
    7948:	27bdfff0 	addiu	sp,sp,-16
    794c:	00a06821 	move	t5,a1
    7950:	27a50004 	addiu	a1,sp,4
    7954:	afbf000c 	sw	ra,12(sp)
    7958:	0c001db6 	jal	0x76d8
    795c:	00807021 	move	t6,a0
    7960:	01a02021 	move	a0,t5
    7964:	03a02821 	move	a1,sp
    7968:	00405821 	move	t3,v0
    796c:	0c001db6 	jal	0x76d8
    7970:	00606021 	move	t4,v1
    7974:	8da50010 	lw	a1,16(t5)
    7978:	8dc40010 	lw	a0,16(t6)
    797c:	8fa60000 	lw	a2,0(sp)
    7980:	00852023 	subu	a0,a0,a1
    7984:	8fa50004 	lw	a1,4(sp)
    7988:	00042140 	sll	a0,a0,0x5
    798c:	00a62823 	subu	a1,a1,a2
    7990:	00852021 	addu	a0,a0,a1
    7994:	1880000b 	blez	a0,0x79c4
    7998:	00403021 	move	a2,v0
    799c:	00042d00 	sll	a1,a0,0x14
    79a0:	00ac2821 	addu	a1,a1,t4
    79a4:	00a06021 	move	t4,a1
    79a8:	01602021 	move	a0,t3
    79ac:	00603821 	move	a3,v1
    79b0:	0c002bc0 	jal	0xaf00
    79b4:	01802821 	move	a1,t4
    79b8:	8fbf000c 	lw	ra,12(sp)
    79bc:	03e00008 	jr	ra
    79c0:	27bd0010 	addiu	sp,sp,16
    79c4:	00042500 	sll	a0,a0,0x14
    79c8:	00641823 	subu	v1,v1,a0
    79cc:	01602021 	move	a0,t3
    79d0:	00603821 	move	a3,v1
    79d4:	0c002bc0 	jal	0xaf00
    79d8:	01802821 	move	a1,t4
    79dc:	8fbf000c 	lw	ra,12(sp)
    79e0:	03e00008 	jr	ra
    79e4:	27bd0010 	addiu	sp,sp,16
    79e8:	27bdfff0 	addiu	sp,sp,-16
    79ec:	28820018 	slti	v0,a0,24
    79f0:	afb00000 	sw	s0,0(sp)
    79f4:	afbf000c 	sw	ra,12(sp)
    79f8:	afb30008 	sw	s3,8(sp)
    79fc:	afb20004 	sw	s2,4(sp)
    7a00:	14400017 	bnez	v0,0x7a60
    7a04:	00808021 	move	s0,a0
    7a08:	3c020001 	lui	v0,0x1
    7a0c:	8c42beb8 	lw	v0,-16712(v0)
    7a10:	3c030001 	lui	v1,0x1
    7a14:	8c63bebc 	lw	v1,-16708(v1)
    7a18:	3c120001 	lui	s2,0x1
    7a1c:	8e52bec0 	lw	s2,-16704(s2)
    7a20:	3c130001 	lui	s3,0x1
    7a24:	8e73bec4 	lw	s3,-16700(s3)
    7a28:	2610ffff 	addiu	s0,s0,-1
    7a2c:	02403021 	move	a2,s2
    7a30:	02603821 	move	a3,s3
    7a34:	00402021 	move	a0,v0
    7a38:	0c002b10 	jal	0xac40
    7a3c:	00602821 	move	a1,v1
    7a40:	1600fffa 	bnez	s0,0x7a2c
    7a44:	2610ffff 	addiu	s0,s0,-1
    7a48:	8fbf000c 	lw	ra,12(sp)
    7a4c:	8fb30008 	lw	s3,8(sp)
    7a50:	8fb20004 	lw	s2,4(sp)
    7a54:	8fb00000 	lw	s0,0(sp)
    7a58:	03e00008 	jr	ra
    7a5c:	27bd0010 	addiu	sp,sp,16
    7a60:	8fbf000c 	lw	ra,12(sp)
    7a64:	3c020001 	lui	v0,0x1
    7a68:	2442bf88 	addiu	v0,v0,-16504
    7a6c:	000480c0 	sll	s0,a0,0x3
    7a70:	00508021 	addu	s0,v0,s0
    7a74:	8e020000 	lw	v0,0(s0)
    7a78:	8e030004 	lw	v1,4(s0)
    7a7c:	8fb30008 	lw	s3,8(sp)
    7a80:	8fb20004 	lw	s2,4(sp)
    7a84:	8fb00000 	lw	s0,0(sp)
    7a88:	03e00008 	jr	ra
    7a8c:	27bd0010 	addiu	sp,sp,16
    7a90:	8cc30010 	lw	v1,16(a2)
    7a94:	24a7ffff 	addiu	a3,a1,-1
    7a98:	24c20014 	addiu	v0,a2,20
    7a9c:	00032880 	sll	a1,v1,0x2
    7aa0:	00073943 	sra	a3,a3,0x5
    7aa4:	24e70001 	addiu	a3,a3,1
    7aa8:	00452821 	addu	a1,v0,a1
    7aac:	00073880 	sll	a3,a3,0x2
    7ab0:	0045182b 	sltu	v1,v0,a1
    7ab4:	1060000e 	beqz	v1,0x7af0
    7ab8:	00873821 	addu	a3,a0,a3
    7abc:	00801821 	move	v1,a0
    7ac0:	24420004 	addiu	v0,v0,4
    7ac4:	8c49fffc 	lw	t1,-4(v0)
    7ac8:	24630004 	addiu	v1,v1,4
    7acc:	0045402b 	sltu	t0,v0,a1
    7ad0:	1500fffb 	bnez	t0,0x7ac0
    7ad4:	ac69fffc 	sw	t1,-4(v1)
    7ad8:	00a61023 	subu	v0,a1,a2
    7adc:	2442ffeb 	addiu	v0,v0,-21
    7ae0:	00021082 	srl	v0,v0,0x2
    7ae4:	24420001 	addiu	v0,v0,1
    7ae8:	00021080 	sll	v0,v0,0x2
    7aec:	00822021 	addu	a0,a0,v0
    7af0:	0087102b 	sltu	v0,a0,a3
    7af4:	10400005 	beqz	v0,0x7b0c
    7af8:	00000000 	nop
    7afc:	24840004 	addiu	a0,a0,4
    7b00:	0087102b 	sltu	v0,a0,a3
    7b04:	1440fffd 	bnez	v0,0x7afc
    7b08:	ac80fffc 	sw	zero,-4(a0)
    7b0c:	03e00008 	jr	ra
    7b10:	00000000 	nop
    7b14:	8c820010 	lw	v0,16(a0)
    7b18:	00053143 	sra	a2,a1,0x5
    7b1c:	0046182a 	slt	v1,v0,a2
    7b20:	10600013 	beqz	v1,0x7b70
    7b24:	24840014 	addiu	a0,a0,20
    7b28:	00021880 	sll	v1,v0,0x2
    7b2c:	00831821 	addu	v1,a0,v1
    7b30:	0083102b 	sltu	v0,a0,v1
    7b34:	1040000c 	beqz	v0,0x7b68
    7b38:	00001021 	move	v0,zero
    7b3c:	8c62fffc 	lw	v0,-4(v1)
    7b40:	10400006 	beqz	v0,0x7b5c
    7b44:	2463fffc 	addiu	v1,v1,-4
    7b48:	03e00008 	jr	ra
    7b4c:	24020001 	li	v0,1
    7b50:	8c650000 	lw	a1,0(v1)
    7b54:	14a00014 	bnez	a1,0x7ba8
    7b58:	00000000 	nop
    7b5c:	0083282b 	sltu	a1,a0,v1
    7b60:	14a0fffb 	bnez	a1,0x7b50
    7b64:	2463fffc 	addiu	v1,v1,-4
    7b68:	03e00008 	jr	ra
    7b6c:	00000000 	nop
    7b70:	00061880 	sll	v1,a2,0x2
    7b74:	00c2102a 	slt	v0,a2,v0
    7b78:	1040ffed 	beqz	v0,0x7b30
    7b7c:	00831821 	addu	v1,a0,v1
    7b80:	30a5001f 	andi	a1,a1,0x1f
    7b84:	50a0ffeb 	beqzl	a1,0x7b34
    7b88:	0083102b 	sltu	v0,a0,v1
    7b8c:	8c670000 	lw	a3,0(v1)
    7b90:	00a73006 	srlv	a2,a3,a1
    7b94:	00a62804 	sllv	a1,a2,a1
    7b98:	10e5ffe5 	beq	a3,a1,0x7b30
    7b9c:	24020001 	li	v0,1
    7ba0:	03e00008 	jr	ra
    7ba4:	00000000 	nop
    7ba8:	03e00008 	jr	ra
    7bac:	24020001 	li	v0,1
    7bb0:	03e00008 	jr	ra
    7bb4:	00000000 	nop
    7bb8:	27bdfff0 	addiu	sp,sp,-16
    7bbc:	afb00004 	sw	s0,4(sp)
    7bc0:	00a08021 	move	s0,a1
    7bc4:	8ca50000 	lw	a1,0(a1)
    7bc8:	afb10008 	sw	s1,8(sp)
    7bcc:	afbf000c 	sw	ra,12(sp)
    7bd0:	10a00003 	beqz	a1,0x7be0
    7bd4:	00808821 	move	s1,a0
    7bd8:	0c001eee 	jal	0x7bb8
    7bdc:	00000000 	nop
    7be0:	8fbf000c 	lw	ra,12(sp)
    7be4:	02002821 	move	a1,s0
    7be8:	02202021 	move	a0,s1
    7bec:	8fb00004 	lw	s0,4(sp)
    7bf0:	8fb10008 	lw	s1,8(sp)
    7bf4:	0800190e 	j	0x6438
    7bf8:	27bd0010 	addiu	sp,sp,16
    7bfc:	3c020001 	lui	v0,0x1
    7c00:	8c42d4e4 	lw	v0,-11036(v0)
    7c04:	10440047 	beq	v0,a0,0x7d24
    7c08:	00000000 	nop
    7c0c:	8c83004c 	lw	v1,76(a0)
    7c10:	27bdffe8 	addiu	sp,sp,-24
    7c14:	afb10008 	sw	s1,8(sp)
    7c18:	afbf0014 	sw	ra,20(sp)
    7c1c:	afb30010 	sw	s3,16(sp)
    7c20:	afb2000c 	sw	s2,12(sp)
    7c24:	afb00004 	sw	s0,4(sp)
    7c28:	10600013 	beqz	v1,0x7c78
    7c2c:	00808821 	move	s1,a0
    7c30:	00009021 	move	s2,zero
    7c34:	24130080 	li	s3,128
    7c38:	00721021 	addu	v0,v1,s2
    7c3c:	8c450000 	lw	a1,0(v0)
    7c40:	50a00008 	beqzl	a1,0x7c64
    7c44:	26520004 	addiu	s2,s2,4
    7c48:	8cb00000 	lw	s0,0(a1)
    7c4c:	0c00190e 	jal	0x6438
    7c50:	02202021 	move	a0,s1
    7c54:	1600fffc 	bnez	s0,0x7c48
    7c58:	02002821 	move	a1,s0
    7c5c:	8e23004c 	lw	v1,76(s1)
    7c60:	26520004 	addiu	s2,s2,4
    7c64:	1653fff5 	bne	s2,s3,0x7c3c
    7c68:	00721021 	addu	v0,v1,s2
    7c6c:	00602821 	move	a1,v1
    7c70:	0c00190e 	jal	0x6438
    7c74:	02202021 	move	a0,s1
    7c78:	8e250040 	lw	a1,64(s1)
    7c7c:	50a00004 	beqzl	a1,0x7c90
    7c80:	8e250148 	lw	a1,328(s1)
    7c84:	0c00190e 	jal	0x6438
    7c88:	02202021 	move	a0,s1
    7c8c:	8e250148 	lw	a1,328(s1)
    7c90:	50a0000a 	beqzl	a1,0x7cbc
    7c94:	8e250054 	lw	a1,84(s1)
    7c98:	2632014c 	addiu	s2,s1,332
    7c9c:	50b20007 	beql	a1,s2,0x7cbc
    7ca0:	8e250054 	lw	a1,84(s1)
    7ca4:	8cb00000 	lw	s0,0(a1)
    7ca8:	0c00190e 	jal	0x6438
    7cac:	02202021 	move	a0,s1
    7cb0:	1650fffc 	bne	s2,s0,0x7ca4
    7cb4:	02002821 	move	a1,s0
    7cb8:	8e250054 	lw	a1,84(s1)
    7cbc:	50a00004 	beqzl	a1,0x7cd0
    7cc0:	8e220038 	lw	v0,56(s1)
    7cc4:	0c00190e 	jal	0x6438
    7cc8:	02202021 	move	a0,s1
    7ccc:	8e220038 	lw	v0,56(s1)
    7cd0:	1040000e 	beqz	v0,0x7d0c
    7cd4:	8fbf0014 	lw	ra,20(sp)
    7cd8:	8e22003c 	lw	v0,60(s1)
    7cdc:	0040f809 	jalr	v0
    7ce0:	02202021 	move	a0,s1
    7ce4:	8e2502e0 	lw	a1,736(s1)
    7ce8:	10a00008 	beqz	a1,0x7d0c
    7cec:	8fbf0014 	lw	ra,20(sp)
    7cf0:	8fb30010 	lw	s3,16(sp)
    7cf4:	8fb2000c 	lw	s2,12(sp)
    7cf8:	8fb00004 	lw	s0,4(sp)
    7cfc:	02202021 	move	a0,s1
    7d00:	8fb10008 	lw	s1,8(sp)
    7d04:	08001eee 	j	0x7bb8
    7d08:	27bd0018 	addiu	sp,sp,24
    7d0c:	8fb30010 	lw	s3,16(sp)
    7d10:	8fb2000c 	lw	s2,12(sp)
    7d14:	8fb10008 	lw	s1,8(sp)
    7d18:	8fb00004 	lw	s0,4(sp)
    7d1c:	03e00008 	jr	ra
    7d20:	27bd0018 	addiu	sp,sp,24
    7d24:	03e00008 	jr	ra
    7d28:	00000000 	nop
    7d2c:	27bdfff0 	addiu	sp,sp,-16
    7d30:	afb20008 	sw	s2,8(sp)
    7d34:	afbf000c 	sw	ra,12(sp)
    7d38:	afb10004 	sw	s1,4(sp)
    7d3c:	afb00000 	sw	s0,0(sp)
    7d40:	1080001a 	beqz	a0,0x7dac
    7d44:	00809021 	move	s2,a0
    7d48:	8e510148 	lw	s1,328(s2)
    7d4c:	5220000f 	beqzl	s1,0x7d8c
    7d50:	8e59003c 	lw	t9,60(s2)
    7d54:	8e300004 	lw	s0,4(s1)
    7d58:	5a000009 	blezl	s0,0x7d80
    7d5c:	8e310000 	lw	s1,0(s1)
    7d60:	00108080 	sll	s0,s0,0x2
    7d64:	02308021 	addu	s0,s1,s0
    7d68:	8e020004 	lw	v0,4(s0)
    7d6c:	0040f809 	jalr	v0
    7d70:	2610fffc 	addiu	s0,s0,-4
    7d74:	5630fffd 	bnel	s1,s0,0x7d6c
    7d78:	8e020004 	lw	v0,4(s0)
    7d7c:	8e310000 	lw	s1,0(s1)
    7d80:	5620fff5 	bnezl	s1,0x7d58
    7d84:	8e300004 	lw	s0,4(s1)
    7d88:	8e59003c 	lw	t9,60(s2)
    7d8c:	1320000b 	beqz	t9,0x7dbc
    7d90:	8fbf000c 	lw	ra,12(sp)
    7d94:	8fb10004 	lw	s1,4(sp)
    7d98:	8fb00000 	lw	s0,0(sp)
    7d9c:	02402021 	move	a0,s2
    7da0:	8fb20008 	lw	s2,8(sp)
    7da4:	03200008 	jr	t9
    7da8:	27bd0010 	addiu	sp,sp,16
    7dac:	3c120001 	lui	s2,0x1
    7db0:	8e52d4e4 	lw	s2,-11036(s2)
    7db4:	1000ffe5 	b	0x7d4c
    7db8:	8e510148 	lw	s1,328(s2)
    7dbc:	8fb20008 	lw	s2,8(sp)
    7dc0:	8fb10004 	lw	s1,4(sp)
    7dc4:	8fb00000 	lw	s0,0(sp)
    7dc8:	03e00008 	jr	ra
    7dcc:	27bd0010 	addiu	sp,sp,16
    7dd0:	00851025 	or	v0,a0,a1
    7dd4:	10400019 	beqz	v0,0x7e3c
    7dd8:	00000000 	nop
    7ddc:	3c028000 	lui	v0,0x8000
    7de0:	10a20014 	beq	a1,v0,0x7e34
    7de4:	3c02fff0 	lui	v0,0xfff0
    7de8:	00451021 	addu	v0,v0,a1
    7dec:	3c037fe0 	lui	v1,0x7fe0
    7df0:	0043102b 	sltu	v0,v0,v1
    7df4:	1440000d 	bnez	v0,0x7e2c
    7df8:	00000000 	nop
    7dfc:	3c027ff0 	lui	v0,0x7ff0
    7e00:	00451021 	addu	v0,v0,a1
    7e04:	0043102b 	sltu	v0,v0,v1
    7e08:	14400008 	bnez	v0,0x7e2c
    7e0c:	3c037ff0 	lui	v1,0x7ff0
    7e10:	00651024 	and	v0,v1,a1
    7e14:	1040000d 	beqz	v0,0x7e4c
    7e18:	7ca5f000 	ext	a1,a1,0x0,0x1f
    7e1c:	10a30009 	beq	a1,v1,0x7e44
    7e20:	00001021 	move	v0,zero
    7e24:	03e00008 	jr	ra
    7e28:	00000000 	nop
    7e2c:	03e00008 	jr	ra
    7e30:	24020004 	li	v0,4
    7e34:	1480fff6 	bnez	a0,0x7e10
    7e38:	3c037ff0 	lui	v1,0x7ff0
    7e3c:	03e00008 	jr	ra
    7e40:	24020002 	li	v0,2
    7e44:	03e00008 	jr	ra
    7e48:	2c820001 	sltiu	v0,a0,1
    7e4c:	03e00008 	jr	ra
    7e50:	24020003 	li	v0,3
    7e54:	00851025 	or	v0,a0,a1
    7e58:	30420001 	andi	v0,v0,0x1
    7e5c:	14400012 	bnez	v0,0x7ea8
    7e60:	90830000 	lbu	v1,0(a0)
    7e64:	10000008 	b	0x7e88
    7e68:	00601021 	move	v0,v1
    7e6c:	14460009 	bne	v0,a2,0x7e94
    7e70:	9083ffff 	lbu	v1,-1(a0)
    7e74:	90a60001 	lbu	a2,1(a1)
    7e78:	10600012 	beqz	v1,0x7ec4
    7e7c:	24a50002 	addiu	a1,a1,2
    7e80:	14660010 	bne	v1,a2,0x7ec4
    7e84:	90820000 	lbu	v0,0(a0)
    7e88:	90a60000 	lbu	a2,0(a1)
    7e8c:	1440fff7 	bnez	v0,0x7e6c
    7e90:	24840002 	addiu	a0,a0,2
    7e94:	03e00008 	jr	ra
    7e98:	00461023 	subu	v0,v0,a2
    7e9c:	1466fffd 	bne	v1,a2,0x7e94
    7ea0:	00000000 	nop
    7ea4:	90830000 	lbu	v1,0(a0)
    7ea8:	24a50001 	addiu	a1,a1,1
    7eac:	24840001 	addiu	a0,a0,1
    7eb0:	00601021 	move	v0,v1
    7eb4:	1460fff9 	bnez	v1,0x7e9c
    7eb8:	90a6ffff 	lbu	a2,-1(a1)
    7ebc:	03e00008 	jr	ra
    7ec0:	00461023 	subu	v0,v0,a2
    7ec4:	03e00008 	jr	ra
    7ec8:	00661023 	subu	v0,v1,a2
    7ecc:	00a41825 	or	v1,a1,a0
    7ed0:	30630003 	andi	v1,v1,0x3
    7ed4:	1460001d 	bnez	v1,0x7f4c
    7ed8:	00801021 	move	v0,a0
    7edc:	8ca70000 	lw	a3,0(a1)
    7ee0:	3c0afefe 	lui	t2,0xfefe
    7ee4:	354afeff 	ori	t2,t2,0xfeff
    7ee8:	00ea1821 	addu	v1,a3,t2
    7eec:	00072027 	nor	a0,zero,a3
    7ef0:	3c098080 	lui	t1,0x8080
    7ef4:	00641824 	and	v1,v1,a0
    7ef8:	35298080 	ori	t1,t1,0x8080
    7efc:	00691824 	and	v1,v1,t1
    7f00:	14600012 	bnez	v1,0x7f4c
    7f04:	00401821 	move	v1,v0
    7f08:	24630004 	addiu	v1,v1,4
    7f0c:	24a50004 	addiu	a1,a1,4
    7f10:	ac67fffc 	sw	a3,-4(v1)
    7f14:	8ca70000 	lw	a3,0(a1)
    7f18:	00ea3021 	addu	a2,a3,t2
    7f1c:	00074027 	nor	t0,zero,a3
    7f20:	00c83024 	and	a2,a2,t0
    7f24:	00c93024 	and	a2,a2,t1
    7f28:	50c0fff8 	beqzl	a2,0x7f0c
    7f2c:	24630004 	addiu	v1,v1,4
    7f30:	24a50001 	addiu	a1,a1,1
    7f34:	80a6ffff 	lb	a2,-1(a1)
    7f38:	24630001 	addiu	v1,v1,1
    7f3c:	14c00004 	bnez	a2,0x7f50
    7f40:	a066ffff 	sb	a2,-1(v1)
    7f44:	03e00008 	jr	ra
    7f48:	00000000 	nop
    7f4c:	00401821 	move	v1,v0
    7f50:	24a50001 	addiu	a1,a1,1
    7f54:	80a6ffff 	lb	a2,-1(a1)
    7f58:	24630001 	addiu	v1,v1,1
    7f5c:	14c0fffc 	bnez	a2,0x7f50
    7f60:	a066ffff 	sb	a2,-1(v1)
    7f64:	03e00008 	jr	ra
    7f68:	00000000 	nop
    7f6c:	00801021 	move	v0,a0
    7f70:	10000009 	b	0x7f98
    7f74:	00801821 	move	v1,a0
    7f78:	10c00056 	beqz	a2,0x80d4
    7f7c:	24a50001 	addiu	a1,a1,1
    7f80:	90a7ffff 	lbu	a3,-1(a1)
    7f84:	24c9ffff 	addiu	t1,a2,-1
    7f88:	10e00054 	beqz	a3,0x80dc
    7f8c:	a107ffff 	sb	a3,-1(t0)
    7f90:	01001821 	move	v1,t0
    7f94:	01203021 	move	a2,t1
    7f98:	30a70003 	andi	a3,a1,0x3
    7f9c:	14e0fff6 	bnez	a3,0x7f78
    7fa0:	24680001 	addiu	t0,v1,1
    7fa4:	2cc40004 	sltiu	a0,a2,4
    7fa8:	14800054 	bnez	a0,0x80fc
    7fac:	30c70003 	andi	a3,a2,0x3
    7fb0:	1000000b 	b	0x7fe0
    7fb4:	00c73023 	subu	a2,a2,a3
    7fb8:	01803021 	move	a2,t4
    7fbc:	11200012 	beqz	t1,0x8008
    7fc0:	a0690001 	sb	t1,1(v1)
    7fc4:	11400012 	beqz	t2,0x8010
    7fc8:	a06a0002 	sb	t2,2(v1)
    7fcc:	a06b0003 	sb	t3,3(v1)
    7fd0:	11600011 	beqz	t3,0x8018
    7fd4:	24630004 	addiu	v1,v1,4
    7fd8:	1180004a 	beqz	t4,0x8104
    7fdc:	00674021 	addu	t0,v1,a3
    7fe0:	90a80000 	lbu	t0,0(a1)
    7fe4:	90a90001 	lbu	t1,1(a1)
    7fe8:	90aa0002 	lbu	t2,2(a1)
    7fec:	90ab0003 	lbu	t3,3(a1)
    7ff0:	24ccfffc 	addiu	t4,a2,-4
    7ff4:	a0680000 	sb	t0,0(v1)
    7ff8:	1500ffef 	bnez	t0,0x7fb8
    7ffc:	24a50004 	addiu	a1,a1,4
    8000:	24ccfffd 	addiu	t4,a2,-3
    8004:	2463ffff 	addiu	v1,v1,-1
    8008:	258c0001 	addiu	t4,t4,1
    800c:	2463ffff 	addiu	v1,v1,-1
    8010:	258c0001 	addiu	t4,t4,1
    8014:	24630003 	addiu	v1,v1,3
    8018:	00ec2821 	addu	a1,a3,t4
    801c:	10a0002d 	beqz	a1,0x80d4
    8020:	30640003 	andi	a0,v1,0x3
    8024:	10000005 	b	0x803c
    8028:	00000000 	nop
    802c:	24a5ffff 	addiu	a1,a1,-1
    8030:	30640003 	andi	a0,v1,0x3
    8034:	10a00027 	beqz	a1,0x80d4
    8038:	a060ffff 	sb	zero,-1(v1)
    803c:	5480fffb 	bnezl	a0,0x802c
    8040:	24630001 	addiu	v1,v1,1
    8044:	2ca40010 	sltiu	a0,a1,16
    8048:	1480000d 	bnez	a0,0x8080
    804c:	00603021 	move	a2,v1
    8050:	24a6fff0 	addiu	a2,a1,-16
    8054:	00063102 	srl	a2,a2,0x4
    8058:	24c60001 	addiu	a2,a2,1
    805c:	00063100 	sll	a2,a2,0x4
    8060:	00663021 	addu	a2,v1,a2
    8064:	24630010 	addiu	v1,v1,16
    8068:	ac60fff0 	sw	zero,-16(v1)
    806c:	ac60fff4 	sw	zero,-12(v1)
    8070:	ac60fff8 	sw	zero,-8(v1)
    8074:	1466fffb 	bne	v1,a2,0x8064
    8078:	ac60fffc 	sw	zero,-4(v1)
    807c:	30a5000f 	andi	a1,a1,0xf
    8080:	2ca30008 	sltiu	v1,a1,8
    8084:	14600006 	bnez	v1,0x80a0
    8088:	2ca30004 	sltiu	v1,a1,4
    808c:	acc00000 	sw	zero,0(a2)
    8090:	acc00004 	sw	zero,4(a2)
    8094:	24a5fff8 	addiu	a1,a1,-8
    8098:	24c60008 	addiu	a2,a2,8
    809c:	2ca30004 	sltiu	v1,a1,4
    80a0:	14600005 	bnez	v1,0x80b8
    80a4:	2ca30002 	sltiu	v1,a1,2
    80a8:	acc00000 	sw	zero,0(a2)
    80ac:	24a5fffc 	addiu	a1,a1,-4
    80b0:	24c60004 	addiu	a2,a2,4
    80b4:	2ca30002 	sltiu	v1,a1,2
    80b8:	14600004 	bnez	v1,0x80cc
    80bc:	00000000 	nop
    80c0:	a4c00000 	sh	zero,0(a2)
    80c4:	24a5fffe 	addiu	a1,a1,-2
    80c8:	24c60002 	addiu	a2,a2,2
    80cc:	54a00001 	bnezl	a1,0x80d4
    80d0:	a0c00000 	sb	zero,0(a2)
    80d4:	03e00008 	jr	ra
    80d8:	00000000 	nop
    80dc:	00661821 	addu	v1,v1,a2
    80e0:	1103001e 	beq	t0,v1,0x815c
    80e4:	00000000 	nop
    80e8:	25080001 	addiu	t0,t0,1
    80ec:	1468fffe 	bne	v1,t0,0x80e8
    80f0:	a100ffff 	sb	zero,-1(t0)
    80f4:	03e00008 	jr	ra
    80f8:	00000000 	nop
    80fc:	00c03821 	move	a3,a2
    8100:	00674021 	addu	t0,v1,a3
    8104:	1068fff3 	beq	v1,t0,0x80d4
    8108:	24a60001 	addiu	a2,a1,1
    810c:	90a90000 	lbu	t1,0(a1)
    8110:	24640001 	addiu	a0,v1,1
    8114:	a0690000 	sb	t1,0(v1)
    8118:	15200007 	bnez	t1,0x8138
    811c:	00a72821 	addu	a1,a1,a3
    8120:	10000009 	b	0x8148
    8124:	00000000 	nop
    8128:	24c60001 	addiu	a2,a2,1
    812c:	90c3ffff 	lbu	v1,-1(a2)
    8130:	10600005 	beqz	v1,0x8148
    8134:	a083ffff 	sb	v1,-1(a0)
    8138:	14a6fffb 	bne	a1,a2,0x8128
    813c:	24840001 	addiu	a0,a0,1
    8140:	03e00008 	jr	ra
    8144:	00000000 	nop
    8148:	10880004 	beq	a0,t0,0x815c
    814c:	00000000 	nop
    8150:	24840001 	addiu	a0,a0,1
    8154:	1504fffe 	bne	t0,a0,0x8150
    8158:	a080ffff 	sb	zero,-1(a0)
    815c:	03e00008 	jr	ra
    8160:	00000000 	nop
    8164:	10a00014 	beqz	a1,0x81b8
    8168:	00801821 	move	v1,a0
    816c:	27bdfff0 	addiu	sp,sp,-16
    8170:	afb10008 	sw	s1,8(sp)
    8174:	afb00004 	sw	s0,4(sp)
    8178:	afbf000c 	sw	ra,12(sp)
    817c:	00a08021 	move	s0,a1
    8180:	10000002 	b	0x818c
    8184:	00008821 	move	s1,zero
    8188:	00408821 	move	s1,v0
    818c:	00602021 	move	a0,v1
    8190:	0c0026f4 	jal	0x9bd0
    8194:	02002821 	move	a1,s0
    8198:	1440fffb 	bnez	v0,0x8188
    819c:	24430001 	addiu	v1,v0,1
    81a0:	8fbf000c 	lw	ra,12(sp)
    81a4:	02201021 	move	v0,s1
    81a8:	8fb00004 	lw	s0,4(sp)
    81ac:	8fb10008 	lw	s1,8(sp)
    81b0:	03e00008 	jr	ra
    81b4:	27bd0010 	addiu	sp,sp,16
    81b8:	080026f4 	j	0x9bd0
    81bc:	00000000 	nop
    81c0:	8cc20008 	lw	v0,8(a2)
    81c4:	27bdffd8 	addiu	sp,sp,-40
    81c8:	afb7001c 	sw	s7,28(sp)
    81cc:	afbf0024 	sw	ra,36(sp)
    81d0:	afbe0020 	sw	s8,32(sp)
    81d4:	afb60018 	sw	s6,24(sp)
    81d8:	afb50014 	sw	s5,20(sp)
    81dc:	afb40010 	sw	s4,16(sp)
    81e0:	afb3000c 	sw	s3,12(sp)
    81e4:	afb20008 	sw	s2,8(sp)
    81e8:	afb10004 	sw	s1,4(sp)
    81ec:	afb00000 	sw	s0,0(sp)
    81f0:	1040002f 	beqz	v0,0x82b0
    81f4:	00c0b821 	move	s7,a2
    81f8:	00809821 	move	s3,a0
    81fc:	00a08821 	move	s1,a1
    8200:	8cd60000 	lw	s6,0(a2)
    8204:	8ca40000 	lw	a0,0(a1)
    8208:	10000013 	b	0x8258
    820c:	8cb20008 	lw	s2,8(a1)
    8210:	30430480 	andi	v1,v0,0x480
    8214:	54600034 	bnezl	v1,0x82e8
    8218:	8e320014 	lw	s2,20(s1)
    821c:	0200a821 	move	s5,s0
    8220:	02408021 	move	s0,s2
    8224:	02003021 	move	a2,s0
    8228:	0c002526 	jal	0x9498
    822c:	03c02821 	move	a1,s8
    8230:	8ee20008 	lw	v0,8(s7)
    8234:	8e230008 	lw	v1,8(s1)
    8238:	8e240000 	lw	a0,0(s1)
    823c:	00551023 	subu	v0,v0,s5
    8240:	00729023 	subu	s2,v1,s2
    8244:	00902021 	addu	a0,a0,s0
    8248:	ae320008 	sw	s2,8(s1)
    824c:	ae240000 	sw	a0,0(s1)
    8250:	10400017 	beqz	v0,0x82b0
    8254:	aee20008 	sw	v0,8(s7)
    8258:	8ed00004 	lw	s0,4(s6)
    825c:	8ede0000 	lw	s8,0(s6)
    8260:	1200fffd 	beqz	s0,0x8258
    8264:	26d60008 	addiu	s6,s6,8
    8268:	0212102b 	sltu	v0,s0,s2
    826c:	5040ffe8 	beqzl	v0,0x8210
    8270:	9622000c 	lhu	v0,12(s1)
    8274:	02003021 	move	a2,s0
    8278:	0c002526 	jal	0x9498
    827c:	03c02821 	move	a1,s8
    8280:	8ee20008 	lw	v0,8(s7)
    8284:	8e230008 	lw	v1,8(s1)
    8288:	8e240000 	lw	a0,0(s1)
    828c:	02009021 	move	s2,s0
    8290:	0200a821 	move	s5,s0
    8294:	00729023 	subu	s2,v1,s2
    8298:	00902021 	addu	a0,a0,s0
    829c:	00551023 	subu	v0,v0,s5
    82a0:	ae320008 	sw	s2,8(s1)
    82a4:	ae240000 	sw	a0,0(s1)
    82a8:	1440ffeb 	bnez	v0,0x8258
    82ac:	aee20008 	sw	v0,8(s7)
    82b0:	8fbf0024 	lw	ra,36(sp)
    82b4:	aee00004 	sw	zero,4(s7)
    82b8:	8fbe0020 	lw	s8,32(sp)
    82bc:	8fb7001c 	lw	s7,28(sp)
    82c0:	8fb60018 	lw	s6,24(sp)
    82c4:	8fb50014 	lw	s5,20(sp)
    82c8:	8fb40010 	lw	s4,16(sp)
    82cc:	8fb3000c 	lw	s3,12(sp)
    82d0:	8fb20008 	lw	s2,8(sp)
    82d4:	8fb10004 	lw	s1,4(sp)
    82d8:	8fb00000 	lw	s0,0(sp)
    82dc:	00001021 	move	v0,zero
    82e0:	03e00008 	jr	ra
    82e4:	27bd0028 	addiu	sp,sp,40
    82e8:	8e250010 	lw	a1,16(s1)
    82ec:	26030001 	addiu	v1,s0,1
    82f0:	00123040 	sll	a2,s2,0x1
    82f4:	00d23021 	addu	a2,a2,s2
    82f8:	000697c2 	srl	s2,a2,0x1f
    82fc:	0085a023 	subu	s4,a0,a1
    8300:	02469021 	addu	s2,s2,a2
    8304:	00129043 	sra	s2,s2,0x1
    8308:	00741821 	addu	v1,v1,s4
    830c:	0243202b 	sltu	a0,s2,v1
    8310:	10800003 	beqz	a0,0x8320
    8314:	02403021 	move	a2,s2
    8318:	00609021 	move	s2,v1
    831c:	00603021 	move	a2,v1
    8320:	30420400 	andi	v0,v0,0x400
    8324:	10400018 	beqz	v0,0x8388
    8328:	00000000 	nop
    832c:	00c02821 	move	a1,a2
    8330:	0c0005af 	jal	0x16bc
    8334:	02602021 	move	a0,s3
    8338:	1040001a 	beqz	v0,0x83a4
    833c:	0040a821 	move	s5,v0
    8340:	8e250010 	lw	a1,16(s1)
    8344:	02803021 	move	a2,s4
    8348:	0c001a4d 	jal	0x6934
    834c:	00402021 	move	a0,v0
    8350:	9622000c 	lhu	v0,12(s1)
    8354:	2403fb7f 	li	v1,-1153
    8358:	00431024 	and	v0,v0,v1
    835c:	34420080 	ori	v0,v0,0x80
    8360:	a622000c 	sh	v0,12(s1)
    8364:	02b42021 	addu	a0,s5,s4
    8368:	02541023 	subu	v0,s2,s4
    836c:	ae350010 	sw	s5,16(s1)
    8370:	ae320014 	sw	s2,20(s1)
    8374:	ae240000 	sw	a0,0(s1)
    8378:	02009021 	move	s2,s0
    837c:	ae220008 	sw	v0,8(s1)
    8380:	1000ffa8 	b	0x8224
    8384:	0200a821 	move	s5,s0
    8388:	0c002574 	jal	0x95d0
    838c:	02602021 	move	a0,s3
    8390:	1440fff4 	bnez	v0,0x8364
    8394:	0040a821 	move	s5,v0
    8398:	8e250010 	lw	a1,16(s1)
    839c:	0c00190e 	jal	0x6438
    83a0:	02602021 	move	a0,s3
    83a4:	9623000c 	lhu	v1,12(s1)
    83a8:	8fbf0024 	lw	ra,36(sp)
    83ac:	2402000c 	li	v0,12
    83b0:	34630040 	ori	v1,v1,0x40
    83b4:	ae620000 	sw	v0,0(s3)
    83b8:	8fbe0020 	lw	s8,32(sp)
    83bc:	a623000c 	sh	v1,12(s1)
    83c0:	8fb60018 	lw	s6,24(sp)
    83c4:	aee00008 	sw	zero,8(s7)
    83c8:	aee00004 	sw	zero,4(s7)
    83cc:	8fb50014 	lw	s5,20(sp)
    83d0:	8fb7001c 	lw	s7,28(sp)
    83d4:	8fb40010 	lw	s4,16(sp)
    83d8:	8fb3000c 	lw	s3,12(sp)
    83dc:	8fb20008 	lw	s2,8(sp)
    83e0:	8fb10004 	lw	s1,4(sp)
    83e4:	8fb00000 	lw	s0,0(sp)
    83e8:	2402ffff 	li	v0,-1
    83ec:	03e00008 	jr	ra
    83f0:	27bd0028 	addiu	sp,sp,40
    83f4:	94a2000c 	lhu	v0,12(a1)
    83f8:	27bdff40 	addiu	sp,sp,-192
    83fc:	afb700b4 	sw	s7,180(sp)
    8400:	30420080 	andi	v0,v0,0x80
    8404:	afb400a8 	sw	s4,168(sp)
    8408:	afb300a4 	sw	s3,164(sp)
    840c:	afbf00bc 	sw	ra,188(sp)
    8410:	afbe00b8 	sw	s8,184(sp)
    8414:	afb600b0 	sw	s6,176(sp)
    8418:	afb500ac 	sw	s5,172(sp)
    841c:	afb200a0 	sw	s2,160(sp)
    8420:	afb1009c 	sw	s1,156(sp)
    8424:	afb00098 	sw	s0,152(sp)
    8428:	00a09821 	move	s3,a1
    842c:	0080a021 	move	s4,a0
    8430:	00c0b821 	move	s7,a2
    8434:	10400004 	beqz	v0,0x8448
    8438:	afa70088 	sw	a3,136(sp)
    843c:	8ca20010 	lw	v0,16(a1)
    8440:	10400384 	beqz	v0,0x9254
    8444:	00000000 	nop
    8448:	3c020001 	lui	v0,0x1
    844c:	2442c1c4 	addiu	v0,v0,-15932
    8450:	afbd0068 	sw	sp,104(sp)
    8454:	afa00070 	sw	zero,112(sp)
    8458:	afa0006c 	sw	zero,108(sp)
    845c:	afa0008c 	sw	zero,140(sp)
    8460:	afa0007c 	sw	zero,124(sp)
    8464:	03a04021 	move	t0,sp
    8468:	27be0068 	addiu	s8,sp,104
    846c:	afa20078 	sw	v0,120(sp)
    8470:	82e20000 	lb	v0,0(s7)
    8474:	10400048 	beqz	v0,0x8598
    8478:	24030025 	li	v1,37
    847c:	10430356 	beq	v0,v1,0x91d8
    8480:	02e08021 	move	s0,s7
    8484:	10000005 	b	0x849c
    8488:	82020001 	lb	v0,1(s0)
    848c:	1043002e 	beq	v0,v1,0x8548
    8490:	02379023 	subu	s2,s1,s7
    8494:	02208021 	move	s0,s1
    8498:	82020001 	lb	v0,1(s0)
    849c:	1440fffb 	bnez	v0,0x848c
    84a0:	26110001 	addiu	s1,s0,1
    84a4:	02379023 	subu	s2,s1,s7
    84a8:	1240003b 	beqz	s2,0x8598
    84ac:	8fa2006c 	lw	v0,108(sp)
    84b0:	8fa30070 	lw	v1,112(sp)
    84b4:	ad170000 	sw	s7,0(t0)
    84b8:	24420001 	addiu	v0,v0,1
    84bc:	00721821 	addu	v1,v1,s2
    84c0:	28440008 	slti	a0,v0,8
    84c4:	ad120004 	sw	s2,4(t0)
    84c8:	afa30070 	sw	v1,112(sp)
    84cc:	1080002a 	beqz	a0,0x8578
    84d0:	afa2006c 	sw	v0,108(sp)
    84d4:	25080008 	addiu	t0,t0,8
    84d8:	8fa3007c 	lw	v1,124(sp)
    84dc:	82020001 	lb	v0,1(s0)
    84e0:	00721821 	addu	v1,v1,s2
    84e4:	1040002c 	beqz	v0,0x8598
    84e8:	afa3007c 	sw	v1,124(sp)
    84ec:	82230001 	lb	v1,1(s1)
    84f0:	26370001 	addiu	s7,s1,1
    84f4:	a3a00076 	sb	zero,118(sp)
    84f8:	00002021 	move	a0,zero
    84fc:	00002821 	move	a1,zero
    8500:	2415ffff 	li	s5,-1
    8504:	00009021 	move	s2,zero
    8508:	00006021 	move	t4,zero
    850c:	2407002a 	li	a3,42
    8510:	2406006c 	li	a2,108
    8514:	240dffff 	li	t5,-1
    8518:	26f70001 	addiu	s7,s7,1
    851c:	2462ffe0 	addiu	v0,v1,-32
    8520:	2c4e0059 	sltiu	t6,v0,89
    8524:	11c00046 	beqz	t6,0x8640
    8528:	00000000 	nop
    852c:	00021080 	sll	v0,v0,0x2
    8530:	3c090001 	lui	t1,0x1
    8534:	2529c050 	addiu	t1,t1,-16304
    8538:	01221021 	addu	v0,t1,v0
    853c:	8c420000 	lw	v0,0(v0)
    8540:	00400008 	jr	v0
    8544:	00000000 	nop
    8548:	5240ffe9 	beqzl	s2,0x84f0
    854c:	82230001 	lb	v1,1(s1)
    8550:	8fa2006c 	lw	v0,108(sp)
    8554:	8fa30070 	lw	v1,112(sp)
    8558:	ad170000 	sw	s7,0(t0)
    855c:	24420001 	addiu	v0,v0,1
    8560:	00721821 	addu	v1,v1,s2
    8564:	28440008 	slti	a0,v0,8
    8568:	ad120004 	sw	s2,4(t0)
    856c:	afa30070 	sw	v1,112(sp)
    8570:	1480ffd8 	bnez	a0,0x84d4
    8574:	afa2006c 	sw	v0,108(sp)
    8578:	03c03021 	move	a2,s8
    857c:	02602821 	move	a1,s3
    8580:	0c002070 	jal	0x81c0
    8584:	02802021 	move	a0,s4
    8588:	1440000a 	bnez	v0,0x85b4
    858c:	03a04021 	move	t0,sp
    8590:	1000ffd2 	b	0x84dc
    8594:	8fa3007c 	lw	v1,124(sp)
    8598:	8fa20070 	lw	v0,112(sp)
    859c:	50400006 	beqzl	v0,0x85b8
    85a0:	9662000c 	lhu	v0,12(s3)
    85a4:	27a60068 	addiu	a2,sp,104
    85a8:	02602821 	move	a1,s3
    85ac:	0c002070 	jal	0x81c0
    85b0:	02802021 	move	a0,s4
    85b4:	9662000c 	lhu	v0,12(s3)
    85b8:	8fa4007c 	lw	a0,124(sp)
    85bc:	2403ffff 	li	v1,-1
    85c0:	30420040 	andi	v0,v0,0x40
    85c4:	0062200b 	movn	a0,v1,v0
    85c8:	afa4007c 	sw	a0,124(sp)
    85cc:	8fbf00bc 	lw	ra,188(sp)
    85d0:	8fa2007c 	lw	v0,124(sp)
    85d4:	8fbe00b8 	lw	s8,184(sp)
    85d8:	8fb700b4 	lw	s7,180(sp)
    85dc:	8fb600b0 	lw	s6,176(sp)
    85e0:	8fb500ac 	lw	s5,172(sp)
    85e4:	8fb400a8 	lw	s4,168(sp)
    85e8:	8fb300a4 	lw	s3,164(sp)
    85ec:	8fb200a0 	lw	s2,160(sp)
    85f0:	8fb1009c 	lw	s1,156(sp)
    85f4:	8fb00098 	lw	s0,152(sp)
    85f8:	03e00008 	jr	ra
    85fc:	27bd00c0 	addiu	sp,sp,192
    8600:	00009021 	move	s2,zero
    8604:	2462ffd0 	addiu	v0,v1,-48
    8608:	26f70001 	addiu	s7,s7,1
    860c:	00128080 	sll	s0,s2,0x2
    8610:	82e3ffff 	lb	v1,-1(s7)
    8614:	02129021 	addu	s2,s0,s2
    8618:	00129040 	sll	s2,s2,0x1
    861c:	00529021 	addu	s2,v0,s2
    8620:	2462ffd0 	addiu	v0,v1,-48
    8624:	2c4e000a 	sltiu	t6,v0,10
    8628:	55c0fff8 	bnezl	t6,0x860c
    862c:	26f70001 	addiu	s7,s7,1
    8630:	2462ffe0 	addiu	v0,v1,-32
    8634:	2c4e0059 	sltiu	t6,v0,89
    8638:	55c0ffbd 	bnezl	t6,0x8530
    863c:	00021080 	sll	v0,v0,0x2
    8640:	54800001 	bnezl	a0,0x8648
    8644:	a3a50076 	sb	a1,118(sp)
    8648:	1060ffd3 	beqz	v1,0x8598
    864c:	24100001 	li	s0,1
    8650:	a3a30040 	sb	v1,64(sp)
    8654:	a3a00076 	sb	zero,118(sp)
    8658:	24160001 	li	s6,1
    865c:	27b10040 	addiu	s1,sp,64
    8660:	afac0080 	sw	t4,128(sp)
    8664:	0000a821 	move	s5,zero
    8668:	8fa20080 	lw	v0,128(sp)
    866c:	8fa5006c 	lw	a1,108(sp)
    8670:	304c0002 	andi	t4,v0,0x2
    8674:	304d0084 	andi	t5,v0,0x84
    8678:	020c8021 	addu	s0,s0,t4
    867c:	15a00004 	bnez	t5,0x8690
    8680:	8fa20070 	lw	v0,112(sp)
    8684:	02501823 	subu	v1,s2,s0
    8688:	5c600245 	bgtzl	v1,0x8fa0
    868c:	28640011 	slti	a0,v1,17
    8690:	83a30076 	lb	v1,118(sp)
    8694:	24a60001 	addiu	a2,a1,1
    8698:	10600010 	beqz	v1,0x86dc
    869c:	25040008 	addiu	a0,t0,8
    86a0:	27ae0076 	addiu	t6,sp,118
    86a4:	24420001 	addiu	v0,v0,1
    86a8:	ad0e0000 	sw	t6,0(t0)
    86ac:	28c30008 	slti	v1,a2,8
    86b0:	240e0001 	li	t6,1
    86b4:	ad0e0004 	sw	t6,4(t0)
    86b8:	afa20070 	sw	v0,112(sp)
    86bc:	10600266 	beqz	v1,0x9058
    86c0:	afa6006c 	sw	a2,108(sp)
    86c4:	24ae0002 	addiu	t6,a1,2
    86c8:	25030010 	addiu	v1,t0,16
    86cc:	00c02821 	move	a1,a2
    86d0:	00804021 	move	t0,a0
    86d4:	01c03021 	move	a2,t6
    86d8:	00602021 	move	a0,v1
    86dc:	1180000f 	beqz	t4,0x871c
    86e0:	24030080 	li	v1,128
    86e4:	27a50074 	addiu	a1,sp,116
    86e8:	24420002 	addiu	v0,v0,2
    86ec:	ad050000 	sw	a1,0(t0)
    86f0:	28c30008 	slti	v1,a2,8
    86f4:	24050002 	li	a1,2
    86f8:	ad050004 	sw	a1,4(t0)
    86fc:	afa20070 	sw	v0,112(sp)
    8700:	10600264 	beqz	v1,0x9094
    8704:	afa6006c 	sw	a2,108(sp)
    8708:	00c02821 	move	a1,a2
    870c:	00804021 	move	t0,a0
    8710:	24c60001 	addiu	a2,a2,1
    8714:	24840008 	addiu	a0,a0,8
    8718:	24030080 	li	v1,128
    871c:	11a301b1 	beq	t5,v1,0x8de4
    8720:	02501823 	subu	v1,s2,s0
    8724:	02b6a823 	subu	s5,s5,s6
    8728:	1ea001e2 	bgtz	s5,0x8eb4
    872c:	2aab0011 	slti	t3,s5,17
    8730:	02c21021 	addu	v0,s6,v0
    8734:	28c30008 	slti	v1,a2,8
    8738:	ad110000 	sw	s1,0(t0)
    873c:	ad160004 	sw	s6,4(t0)
    8740:	afa20070 	sw	v0,112(sp)
    8744:	1060020e 	beqz	v1,0x8f80
    8748:	afa6006c 	sw	a2,108(sp)
    874c:	8fa30080 	lw	v1,128(sp)
    8750:	30710004 	andi	s1,v1,0x4
    8754:	52200005 	beqzl	s1,0x876c
    8758:	8fa3007c 	lw	v1,124(sp)
    875c:	02508823 	subu	s1,s2,s0
    8760:	5e200259 	bgtzl	s1,0x90c8
    8764:	2a250011 	slti	a1,s1,17
    8768:	8fa3007c 	lw	v1,124(sp)
    876c:	0250802c 	max	s0,s2,s0
    8770:	00701821 	addu	v1,v1,s0
    8774:	144000ac 	bnez	v0,0x8a28
    8778:	afa3007c 	sw	v1,124(sp)
    877c:	afa0006c 	sw	zero,108(sp)
    8780:	1000ff3b 	b	0x8470
    8784:	03a04021 	move	t0,sp
    8788:	358c0080 	ori	t4,t4,0x80
    878c:	1000ff62 	b	0x8518
    8790:	82e30000 	lb	v1,0(s7)
    8794:	82e30000 	lb	v1,0(s7)
    8798:	10670301 	beq	v1,a3,0x93a0
    879c:	26ee0001 	addiu	t6,s7,1
    87a0:	2462ffd0 	addiu	v0,v1,-48
    87a4:	2c4f000a 	sltiu	t7,v0,10
    87a8:	01c0b821 	move	s7,t6
    87ac:	11e0ff5b 	beqz	t7,0x851c
    87b0:	0000a821 	move	s5,zero
    87b4:	26f70001 	addiu	s7,s7,1
    87b8:	00157080 	sll	t6,s5,0x2
    87bc:	82e3ffff 	lb	v1,-1(s7)
    87c0:	01d55821 	addu	t3,t6,s5
    87c4:	000b5840 	sll	t3,t3,0x1
    87c8:	0162a821 	addu	s5,t3,v0
    87cc:	2462ffd0 	addiu	v0,v1,-48
    87d0:	2c4e000a 	sltiu	t6,v0,10
    87d4:	55c0fff8 	bnezl	t6,0x87b8
    87d8:	26f70001 	addiu	s7,s7,1
    87dc:	1000ff50 	b	0x8520
    87e0:	2462ffe0 	addiu	v0,v1,-32
    87e4:	82e30000 	lb	v1,0(s7)
    87e8:	1000ff4b 	b	0x8518
    87ec:	358c0004 	ori	t4,t4,0x4
    87f0:	82e30000 	lb	v1,0(s7)
    87f4:	24040001 	li	a0,1
    87f8:	1000ff47 	b	0x8518
    87fc:	2405002b 	li	a1,43
    8800:	8fa20088 	lw	v0,136(sp)
    8804:	82e30000 	lb	v1,0(s7)
    8808:	8c520000 	lw	s2,0(v0)
    880c:	24420004 	addiu	v0,v0,4
    8810:	0641ff41 	bgez	s2,0x8518
    8814:	afa20088 	sw	v0,136(sp)
    8818:	00129023 	negu	s2,s2
    881c:	1000ff3e 	b	0x8518
    8820:	358c0004 	ori	t4,t4,0x4
    8824:	358c0001 	ori	t4,t4,0x1
    8828:	1000ff3b 	b	0x8518
    882c:	82e30000 	lb	v1,0(s7)
    8830:	14a0ff39 	bnez	a1,0x8518
    8834:	82e30000 	lb	v1,0(s7)
    8838:	24040001 	li	a0,1
    883c:	1000ff36 	b	0x8518
    8840:	24050020 	li	a1,32
    8844:	54800001 	bnezl	a0,0x884c
    8848:	a3a50076 	sb	a1,118(sp)
    884c:	3c020001 	lui	v0,0x1
    8850:	2442bce4 	addiu	v0,v0,-17180
    8854:	afa2008c 	sw	v0,140(sp)
    8858:	31820020 	andi	v0,t4,0x20
    885c:	104000b5 	beqz	v0,0x8b34
    8860:	8fa40088 	lw	a0,136(sp)
    8864:	8fa20088 	lw	v0,136(sp)
    8868:	2404fff8 	li	a0,-8
    886c:	24420007 	addiu	v0,v0,7
    8870:	00441024 	and	v0,v0,a0
    8874:	8c560000 	lw	s6,0(v0)
    8878:	8c500004 	lw	s0,4(v0)
    887c:	24440008 	addiu	a0,v0,8
    8880:	afa40088 	sw	a0,136(sp)
    8884:	31840001 	andi	a0,t4,0x1
    8888:	10800004 	beqz	a0,0x889c
    888c:	24020002 	li	v0,2
    8890:	02d02025 	or	a0,s6,s0
    8894:	14800261 	bnez	a0,0x921c
    8898:	24040030 	li	a0,48
    889c:	a3a00076 	sb	zero,118(sp)
    88a0:	afa00090 	sw	zero,144(sp)
    88a4:	2403ffff 	li	v1,-1
    88a8:	12a3011d 	beq	s5,v1,0x8d20
    88ac:	2411ff7f 	li	s1,-129
    88b0:	01912024 	and	a0,t4,s1
    88b4:	02d01825 	or	v1,s6,s0
    88b8:	14600118 	bnez	v1,0x8d1c
    88bc:	afa40080 	sw	a0,128(sp)
    88c0:	56a00134 	bnezl	s5,0x8d94
    88c4:	24030001 	li	v1,1
    88c8:	544000d9 	bnezl	v0,0x8c30
    88cc:	0000a821 	move	s5,zero
    88d0:	31960001 	andi	s6,t4,0x1
    88d4:	12c00004 	beqz	s6,0x88e8
    88d8:	27b10068 	addiu	s1,sp,104
    88dc:	24020030 	li	v0,48
    88e0:	a3a20067 	sb	v0,103(sp)
    88e4:	27b10067 	addiu	s1,sp,103
    88e8:	8fa20090 	lw	v0,144(sp)
    88ec:	02b6802c 	max	s0,s5,s6
    88f0:	0002102b 	sltu	v0,zero,v0
    88f4:	1000ff5c 	b	0x8668
    88f8:	02028021 	addu	s0,s0,v0
    88fc:	54800001 	bnezl	a0,0x8904
    8900:	a3a50076 	sb	a1,118(sp)
    8904:	31820020 	andi	v0,t4,0x20
    8908:	144000d7 	bnez	v0,0x8c68
    890c:	8fa20088 	lw	v0,136(sp)
    8910:	31830010 	andi	v1,t4,0x10
    8914:	8c560000 	lw	s6,0(v0)
    8918:	14600097 	bnez	v1,0x8b78
    891c:	24420004 	addiu	v0,v0,4
    8920:	31830040 	andi	v1,t4,0x40
    8924:	1060027f 	beqz	v1,0x9324
    8928:	afa20088 	sw	v0,136(sp)
    892c:	32d6ffff 	andi	s6,s6,0xffff
    8930:	00008021 	move	s0,zero
    8934:	1000ffd9 	b	0x889c
    8938:	24020001 	li	v0,1
    893c:	8fa20088 	lw	v0,136(sp)
    8940:	a3a00076 	sb	zero,118(sp)
    8944:	8c510000 	lw	s1,0(v0)
    8948:	1220026a 	beqz	s1,0x92f4
    894c:	24430004 	addiu	v1,v0,4
    8950:	2402ffff 	li	v0,-1
    8954:	12a20235 	beq	s5,v0,0x922c
    8958:	afa30088 	sw	v1,136(sp)
    895c:	02a03021 	move	a2,s5
    8960:	00002821 	move	a1,zero
    8964:	02202021 	move	a0,s1
    8968:	afac0084 	sw	t4,132(sp)
    896c:	0c001a0e 	jal	0x6838
    8970:	afa80080 	sw	t0,128(sp)
    8974:	8fa80080 	lw	t0,128(sp)
    8978:	8fac0084 	lw	t4,132(sp)
    897c:	10400275 	beqz	v0,0x9354
    8980:	8fa30088 	lw	v1,136(sp)
    8984:	00511023 	subu	v0,v0,s1
    8988:	0055b02d 	min	s6,v0,s5
    898c:	83a20076 	lb	v0,118(sp)
    8990:	afac0080 	sw	t4,128(sp)
    8994:	0000a821 	move	s5,zero
    8998:	1000ffd3 	b	0x88e8
    899c:	afa20090 	sw	v0,144(sp)
    89a0:	82e30000 	lb	v1,0(s7)
    89a4:	50660245 	beql	v1,a2,0x92bc
    89a8:	82e30001 	lb	v1,1(s7)
    89ac:	1000feda 	b	0x8518
    89b0:	358c0010 	ori	t4,t4,0x10
    89b4:	358c0040 	ori	t4,t4,0x40
    89b8:	1000fed7 	b	0x8518
    89bc:	82e30000 	lb	v1,0(s7)
    89c0:	54800001 	bnezl	a0,0x89c8
    89c4:	a3a50076 	sb	a1,118(sp)
    89c8:	31820020 	andi	v0,t4,0x20
    89cc:	14400083 	bnez	v0,0x8bdc
    89d0:	8fa20088 	lw	v0,136(sp)
    89d4:	31830010 	andi	v1,t4,0x10
    89d8:	14600203 	bnez	v1,0x91e8
    89dc:	24420004 	addiu	v0,v0,4
    89e0:	31830040 	andi	v1,t4,0x40
    89e4:	10600201 	beqz	v1,0x91ec
    89e8:	8fa30088 	lw	v1,136(sp)
    89ec:	afa20088 	sw	v0,136(sp)
    89f0:	84760000 	lh	s6,0(v1)
    89f4:	001687c3 	sra	s0,s6,0x1f
    89f8:	10000080 	b	0x8bfc
    89fc:	02001821 	move	v1,s0
    8a00:	8fa30088 	lw	v1,136(sp)
    8a04:	a3a00076 	sb	zero,118(sp)
    8a08:	24100001 	li	s0,1
    8a0c:	8c620000 	lw	v0,0(v1)
    8a10:	24630004 	addiu	v1,v1,4
    8a14:	afa30088 	sw	v1,136(sp)
    8a18:	a3a20040 	sb	v0,64(sp)
    8a1c:	24160001 	li	s6,1
    8a20:	1000ff0f 	b	0x8660
    8a24:	27b10040 	addiu	s1,sp,64
    8a28:	03c03021 	move	a2,s8
    8a2c:	02602821 	move	a1,s3
    8a30:	0c002070 	jal	0x81c0
    8a34:	02802021 	move	a0,s4
    8a38:	1440fede 	bnez	v0,0x85b4
    8a3c:	03a04021 	move	t0,sp
    8a40:	1000fe8b 	b	0x8470
    8a44:	afa0006c 	sw	zero,108(sp)
    8a48:	358c0020 	ori	t4,t4,0x20
    8a4c:	1000feb2 	b	0x8518
    8a50:	82e30000 	lb	v1,0(s7)
    8a54:	8fa30088 	lw	v1,136(sp)
    8a58:	24027830 	li	v0,30768
    8a5c:	a7a20074 	sh	v0,116(sp)
    8a60:	24620004 	addiu	v0,v1,4
    8a64:	afa20088 	sw	v0,136(sp)
    8a68:	3c020001 	lui	v0,0x1
    8a6c:	2442bce4 	addiu	v0,v0,-17180
    8a70:	afa2008c 	sw	v0,140(sp)
    8a74:	8c760000 	lw	s6,0(v1)
    8a78:	00008021 	move	s0,zero
    8a7c:	358c0002 	ori	t4,t4,0x2
    8a80:	1000ff86 	b	0x889c
    8a84:	24020002 	li	v0,2
    8a88:	54800001 	bnezl	a0,0x8a90
    8a8c:	a3a50076 	sb	a1,118(sp)
    8a90:	31820020 	andi	v0,t4,0x20
    8a94:	1440006a 	bnez	v0,0x8c40
    8a98:	8fa20088 	lw	v0,136(sp)
    8a9c:	31830010 	andi	v1,t4,0x10
    8aa0:	8c560000 	lw	s6,0(v0)
    8aa4:	14600041 	bnez	v1,0x8bac
    8aa8:	24420004 	addiu	v0,v0,4
    8aac:	31830040 	andi	v1,t4,0x40
    8ab0:	10600219 	beqz	v1,0x9318
    8ab4:	afa20088 	sw	v0,136(sp)
    8ab8:	32d6ffff 	andi	s6,s6,0xffff
    8abc:	00008021 	move	s0,zero
    8ac0:	1000ff76 	b	0x889c
    8ac4:	00001021 	move	v0,zero
    8ac8:	54800001 	bnezl	a0,0x8ad0
    8acc:	a3a50076 	sb	a1,118(sp)
    8ad0:	8fa40088 	lw	a0,136(sp)
    8ad4:	31820020 	andi	v0,t4,0x20
    8ad8:	144001c9 	bnez	v0,0x9200
    8adc:	24830004 	addiu	v1,a0,4
    8ae0:	31820010 	andi	v0,t4,0x10
    8ae4:	144001e3 	bnez	v0,0x9274
    8ae8:	8fa20088 	lw	v0,136(sp)
    8aec:	318c0040 	andi	t4,t4,0x40
    8af0:	518001e1 	beqzl	t4,0x9278
    8af4:	8c420000 	lw	v0,0(v0)
    8af8:	8fa20088 	lw	v0,136(sp)
    8afc:	afa30088 	sw	v1,136(sp)
    8b00:	8fa3007c 	lw	v1,124(sp)
    8b04:	8c420000 	lw	v0,0(v0)
    8b08:	1000fe59 	b	0x8470
    8b0c:	a4430000 	sh	v1,0(v0)
    8b10:	54800001 	bnezl	a0,0x8b18
    8b14:	a3a50076 	sb	a1,118(sp)
    8b18:	3c020001 	lui	v0,0x1
    8b1c:	2442bcd0 	addiu	v0,v0,-17200
    8b20:	afa2008c 	sw	v0,140(sp)
    8b24:	31820020 	andi	v0,t4,0x20
    8b28:	1440ff4f 	bnez	v0,0x8868
    8b2c:	8fa20088 	lw	v0,136(sp)
    8b30:	8fa40088 	lw	a0,136(sp)
    8b34:	31820010 	andi	v0,t4,0x10
    8b38:	8c960000 	lw	s6,0(a0)
    8b3c:	24840004 	addiu	a0,a0,4
    8b40:	1440018e 	bnez	v0,0x917c
    8b44:	afa40088 	sw	a0,136(sp)
    8b48:	31820040 	andi	v0,t4,0x40
    8b4c:	1040ff4d 	beqz	v0,0x8884
    8b50:	00008021 	move	s0,zero
    8b54:	1000ff4b 	b	0x8884
    8b58:	32d6ffff 	andi	s6,s6,0xffff
    8b5c:	54800001 	bnezl	a0,0x8b64
    8b60:	a3a50076 	sb	a1,118(sp)
    8b64:	31820020 	andi	v0,t4,0x20
    8b68:	1440003e 	bnez	v0,0x8c64
    8b6c:	358c0010 	ori	t4,t4,0x10
    8b70:	8fa20088 	lw	v0,136(sp)
    8b74:	24420004 	addiu	v0,v0,4
    8b78:	8fa30088 	lw	v1,136(sp)
    8b7c:	00008021 	move	s0,zero
    8b80:	afa20088 	sw	v0,136(sp)
    8b84:	8c760000 	lw	s6,0(v1)
    8b88:	1000ff44 	b	0x889c
    8b8c:	24020001 	li	v0,1
    8b90:	54800001 	bnezl	a0,0x8b98
    8b94:	a3a50076 	sb	a1,118(sp)
    8b98:	31820020 	andi	v0,t4,0x20
    8b9c:	14400027 	bnez	v0,0x8c3c
    8ba0:	358c0010 	ori	t4,t4,0x10
    8ba4:	8fa20088 	lw	v0,136(sp)
    8ba8:	24420004 	addiu	v0,v0,4
    8bac:	8fa30088 	lw	v1,136(sp)
    8bb0:	00008021 	move	s0,zero
    8bb4:	afa20088 	sw	v0,136(sp)
    8bb8:	8c760000 	lw	s6,0(v1)
    8bbc:	1000ff37 	b	0x889c
    8bc0:	00001021 	move	v0,zero
    8bc4:	54800001 	bnezl	a0,0x8bcc
    8bc8:	a3a50076 	sb	a1,118(sp)
    8bcc:	31820020 	andi	v0,t4,0x20
    8bd0:	10400183 	beqz	v0,0x91e0
    8bd4:	358c0010 	ori	t4,t4,0x10
    8bd8:	8fa20088 	lw	v0,136(sp)
    8bdc:	2403fff8 	li	v1,-8
    8be0:	24420007 	addiu	v0,v0,7
    8be4:	00431024 	and	v0,v0,v1
    8be8:	8c430004 	lw	v1,4(v0)
    8bec:	8c560000 	lw	s6,0(v0)
    8bf0:	24440008 	addiu	a0,v0,8
    8bf4:	afa40088 	sw	a0,136(sp)
    8bf8:	00608021 	move	s0,v1
    8bfc:	0460016c 	bltz	v1,0x91b0
    8c00:	83a30076 	lb	v1,118(sp)
    8c04:	2402ffff 	li	v0,-1
    8c08:	12a20020 	beq	s5,v0,0x8c8c
    8c0c:	afa30090 	sw	v1,144(sp)
    8c10:	2403ff7f 	li	v1,-129
    8c14:	02d01025 	or	v0,s6,s0
    8c18:	1440001c 	bnez	v0,0x8c8c
    8c1c:	01836024 	and	t4,t4,v1
    8c20:	56a001ca 	bnezl	s5,0x934c
    8c24:	02c02021 	move	a0,s6
    8c28:	afac0080 	sw	t4,128(sp)
    8c2c:	0000a821 	move	s5,zero
    8c30:	0000b021 	move	s6,zero
    8c34:	1000ff2c 	b	0x88e8
    8c38:	27b10068 	addiu	s1,sp,104
    8c3c:	8fa20088 	lw	v0,136(sp)
    8c40:	2403fff8 	li	v1,-8
    8c44:	24420007 	addiu	v0,v0,7
    8c48:	00431024 	and	v0,v0,v1
    8c4c:	24430008 	addiu	v1,v0,8
    8c50:	8c560000 	lw	s6,0(v0)
    8c54:	8c500004 	lw	s0,4(v0)
    8c58:	afa30088 	sw	v1,136(sp)
    8c5c:	1000ff0f 	b	0x889c
    8c60:	00001021 	move	v0,zero
    8c64:	8fa20088 	lw	v0,136(sp)
    8c68:	2403fff8 	li	v1,-8
    8c6c:	24420007 	addiu	v0,v0,7
    8c70:	00431024 	and	v0,v0,v1
    8c74:	24430008 	addiu	v1,v0,8
    8c78:	8c560000 	lw	s6,0(v0)
    8c7c:	8c500004 	lw	s0,4(v0)
    8c80:	afa30088 	sw	v1,136(sp)
    8c84:	1000ff05 	b	0x889c
    8c88:	24020001 	li	v0,1
    8c8c:	120001ac 	beqz	s0,0x9340
    8c90:	2ec2000a 	sltiu	v0,s6,10
    8c94:	03c08821 	move	s1,s8
    8c98:	02c02021 	move	a0,s6
    8c9c:	02002821 	move	a1,s0
    8ca0:	2406000a 	li	a2,10
    8ca4:	00003821 	move	a3,zero
    8ca8:	afac0084 	sw	t4,132(sp)
    8cac:	0c0028b3 	jal	0xa2cc
    8cb0:	afa80080 	sw	t0,128(sp)
    8cb4:	24420030 	addiu	v0,v0,48
    8cb8:	2623ffff 	addiu	v1,s1,-1
    8cbc:	02c02021 	move	a0,s6
    8cc0:	2406000a 	li	a2,10
    8cc4:	00003821 	move	a3,zero
    8cc8:	02002821 	move	a1,s0
    8ccc:	a0620000 	sb	v0,0(v1)
    8cd0:	0c002753 	jal	0x9d4c
    8cd4:	00608821 	move	s1,v1
    8cd8:	00402021 	move	a0,v0
    8cdc:	8fa80080 	lw	t0,128(sp)
    8ce0:	12000004 	beqz	s0,0x8cf4
    8ce4:	8fac0084 	lw	t4,132(sp)
    8ce8:	0040b021 	move	s6,v0
    8cec:	1000ffea 	b	0x8c98
    8cf0:	00608021 	move	s0,v1
    8cf4:	2ed60064 	sltiu	s6,s6,100
    8cf8:	52c0fffc 	beqzl	s6,0x8cec
    8cfc:	0040b021 	move	s6,v0
    8d00:	02201021 	move	v0,s1
    8d04:	24840030 	addiu	a0,a0,48
    8d08:	2631ffff 	addiu	s1,s1,-1
    8d0c:	a044ffff 	sb	a0,-1(v0)
    8d10:	03d1b023 	subu	s6,s8,s1
    8d14:	1000fef4 	b	0x88e8
    8d18:	afac0080 	sw	t4,128(sp)
    8d1c:	8fac0080 	lw	t4,128(sp)
    8d20:	24030001 	li	v1,1
    8d24:	1043ffd9 	beq	v0,v1,0x8c8c
    8d28:	24030002 	li	v1,2
    8d2c:	1043001e 	beq	v0,v1,0x8da8
    8d30:	03c08821 	move	s1,s8
    8d34:	10000002 	b	0x8d40
    8d38:	03c01821 	move	v1,s8
    8d3c:	02201821 	move	v1,s1
    8d40:	00102f40 	sll	a1,s0,0x1d
    8d44:	001620c2 	srl	a0,s6,0x3
    8d48:	32c20007 	andi	v0,s6,0x7
    8d4c:	001080c2 	srl	s0,s0,0x3
    8d50:	00a4b025 	or	s6,a1,a0
    8d54:	24420030 	addiu	v0,v0,48
    8d58:	02d02025 	or	a0,s6,s0
    8d5c:	2471ffff 	addiu	s1,v1,-1
    8d60:	1480fff6 	bnez	a0,0x8d3c
    8d64:	a062ffff 	sb	v0,-1(v1)
    8d68:	31840001 	andi	a0,t4,0x1
    8d6c:	1080ffe9 	beqz	a0,0x8d14
    8d70:	03d1b023 	subu	s6,s8,s1
    8d74:	24040030 	li	a0,48
    8d78:	1044ffe6 	beq	v0,a0,0x8d14
    8d7c:	2463fffe 	addiu	v1,v1,-2
    8d80:	a224ffff 	sb	a0,-1(s1)
    8d84:	03c3b023 	subu	s6,s8,v1
    8d88:	afac0080 	sw	t4,128(sp)
    8d8c:	1000fed6 	b	0x88e8
    8d90:	00608821 	move	s1,v1
    8d94:	1043017e 	beq	v0,v1,0x9390
    8d98:	24030002 	li	v1,2
    8d9c:	1443ffe5 	bne	v0,v1,0x8d34
    8da0:	8fac0080 	lw	t4,128(sp)
    8da4:	03c08821 	move	s1,s8
    8da8:	8fa3008c 	lw	v1,140(sp)
    8dac:	32c2000f 	andi	v0,s6,0xf
    8db0:	00102700 	sll	a0,s0,0x1c
    8db4:	00621021 	addu	v0,v1,v0
    8db8:	90430000 	lbu	v1,0(v0)
    8dbc:	0016b102 	srl	s6,s6,0x4
    8dc0:	0096b025 	or	s6,a0,s6
    8dc4:	00108102 	srl	s0,s0,0x4
    8dc8:	2631ffff 	addiu	s1,s1,-1
    8dcc:	02d01025 	or	v0,s6,s0
    8dd0:	1440fff5 	bnez	v0,0x8da8
    8dd4:	a2230000 	sb	v1,0(s1)
    8dd8:	03d1b023 	subu	s6,s8,s1
    8ddc:	1000fec2 	b	0x88e8
    8de0:	afac0080 	sw	t4,128(sp)
    8de4:	5860fe50 	blezl	v1,0x8728
    8de8:	02b6a823 	subu	s5,s5,s6
    8dec:	286c0011 	slti	t4,v1,17
    8df0:	55800163 	bnezl	t4,0x9380
    8df4:	00806821 	move	t5,a0
    8df8:	3c0c0001 	lui	t4,0x1
    8dfc:	258cc1b4 	addiu	t4,t4,-15948
    8e00:	10000005 	b	0x8e18
    8e04:	240d0010 	li	t5,16
    8e08:	2463fff0 	addiu	v1,v1,-16
    8e0c:	28640011 	slti	a0,v1,17
    8e10:	14800019 	bnez	a0,0x8e78
    8e14:	25080008 	addiu	t0,t0,8
    8e18:	24a50001 	addiu	a1,a1,1
    8e1c:	24420010 	addiu	v0,v0,16
    8e20:	28a40008 	slti	a0,a1,8
    8e24:	ad0c0000 	sw	t4,0(t0)
    8e28:	ad0d0004 	sw	t5,4(t0)
    8e2c:	afa20070 	sw	v0,112(sp)
    8e30:	1480fff5 	bnez	a0,0x8e08
    8e34:	afa5006c 	sw	a1,108(sp)
    8e38:	03c03021 	move	a2,s8
    8e3c:	02602821 	move	a1,s3
    8e40:	02802021 	move	a0,s4
    8e44:	afac0090 	sw	t4,144(sp)
    8e48:	0c002070 	jal	0x81c0
    8e4c:	afa30084 	sw	v1,132(sp)
    8e50:	1440fdd8 	bnez	v0,0x85b4
    8e54:	8fa30084 	lw	v1,132(sp)
    8e58:	8fa20070 	lw	v0,112(sp)
    8e5c:	8fa5006c 	lw	a1,108(sp)
    8e60:	2463fff0 	addiu	v1,v1,-16
    8e64:	28640011 	slti	a0,v1,17
    8e68:	03a04021 	move	t0,sp
    8e6c:	8fac0090 	lw	t4,144(sp)
    8e70:	1080ffe9 	beqz	a0,0x8e18
    8e74:	240d0010 	li	t5,16
    8e78:	24a50001 	addiu	a1,a1,1
    8e7c:	250d0008 	addiu	t5,t0,8
    8e80:	00431021 	addu	v0,v0,v1
    8e84:	28a40008 	slti	a0,a1,8
    8e88:	ad0c0000 	sw	t4,0(t0)
    8e8c:	ad030004 	sw	v1,4(t0)
    8e90:	afa20070 	sw	v0,112(sp)
    8e94:	1080010c 	beqz	a0,0x92c8
    8e98:	afa5006c 	sw	a1,108(sp)
    8e9c:	02b6a823 	subu	s5,s5,s6
    8ea0:	24a60001 	addiu	a2,a1,1
    8ea4:	25a40008 	addiu	a0,t5,8
    8ea8:	1aa0fe21 	blez	s5,0x8730
    8eac:	01a04021 	move	t0,t5
    8eb0:	2aab0011 	slti	t3,s5,17
    8eb4:	1560011e 	bnez	t3,0x9330
    8eb8:	00000000 	nop
    8ebc:	3c0c0001 	lui	t4,0x1
    8ec0:	258cc1b4 	addiu	t4,t4,-15948
    8ec4:	10000005 	b	0x8edc
    8ec8:	240b0010 	li	t3,16
    8ecc:	26b5fff0 	addiu	s5,s5,-16
    8ed0:	2aa40011 	slti	a0,s5,17
    8ed4:	14800017 	bnez	a0,0x8f34
    8ed8:	25080008 	addiu	t0,t0,8
    8edc:	24a50001 	addiu	a1,a1,1
    8ee0:	24420010 	addiu	v0,v0,16
    8ee4:	28a40008 	slti	a0,a1,8
    8ee8:	ad0c0000 	sw	t4,0(t0)
    8eec:	ad0b0004 	sw	t3,4(t0)
    8ef0:	afa20070 	sw	v0,112(sp)
    8ef4:	1480fff5 	bnez	a0,0x8ecc
    8ef8:	afa5006c 	sw	a1,108(sp)
    8efc:	03c03021 	move	a2,s8
    8f00:	02602821 	move	a1,s3
    8f04:	02802021 	move	a0,s4
    8f08:	0c002070 	jal	0x81c0
    8f0c:	afac0084 	sw	t4,132(sp)
    8f10:	1440fda8 	bnez	v0,0x85b4
    8f14:	26b5fff0 	addiu	s5,s5,-16
    8f18:	2aa40011 	slti	a0,s5,17
    8f1c:	8fa20070 	lw	v0,112(sp)
    8f20:	8fa5006c 	lw	a1,108(sp)
    8f24:	03a04021 	move	t0,sp
    8f28:	8fac0084 	lw	t4,132(sp)
    8f2c:	1080ffeb 	beqz	a0,0x8edc
    8f30:	240b0010 	li	t3,16
    8f34:	24a60001 	addiu	a2,a1,1
    8f38:	25050008 	addiu	a1,t0,8
    8f3c:	00551021 	addu	v0,v0,s5
    8f40:	28c40008 	slti	a0,a2,8
    8f44:	ad0c0000 	sw	t4,0(t0)
    8f48:	ad150004 	sw	s5,4(t0)
    8f4c:	afa20070 	sw	v0,112(sp)
    8f50:	1080008c 	beqz	a0,0x9184
    8f54:	afa6006c 	sw	a2,108(sp)
    8f58:	24c60001 	addiu	a2,a2,1
    8f5c:	00a04021 	move	t0,a1
    8f60:	02c21021 	addu	v0,s6,v0
    8f64:	28c30008 	slti	v1,a2,8
    8f68:	24a40008 	addiu	a0,a1,8
    8f6c:	ad110000 	sw	s1,0(t0)
    8f70:	ad160004 	sw	s6,4(t0)
    8f74:	afa20070 	sw	v0,112(sp)
    8f78:	1460fdf4 	bnez	v1,0x874c
    8f7c:	afa6006c 	sw	a2,108(sp)
    8f80:	03c03021 	move	a2,s8
    8f84:	02602821 	move	a1,s3
    8f88:	0c002070 	jal	0x81c0
    8f8c:	02802021 	move	a0,s4
    8f90:	1440fd88 	bnez	v0,0x85b4
    8f94:	8fa20070 	lw	v0,112(sp)
    8f98:	1000fdec 	b	0x874c
    8f9c:	03a02021 	move	a0,sp
    8fa0:	14800023 	bnez	a0,0x9030
    8fa4:	8fa60078 	lw	a2,120(sp)
    8fa8:	10000006 	b	0x8fc4
    8fac:	240e0010 	li	t6,16
    8fb0:	2463fff0 	addiu	v1,v1,-16
    8fb4:	28640011 	slti	a0,v1,17
    8fb8:	1480001c 	bnez	a0,0x902c
    8fbc:	25080008 	addiu	t0,t0,8
    8fc0:	8fa60078 	lw	a2,120(sp)
    8fc4:	24a50001 	addiu	a1,a1,1
    8fc8:	24420010 	addiu	v0,v0,16
    8fcc:	28a40008 	slti	a0,a1,8
    8fd0:	ad060000 	sw	a2,0(t0)
    8fd4:	ad0e0004 	sw	t6,4(t0)
    8fd8:	afa20070 	sw	v0,112(sp)
    8fdc:	1480fff4 	bnez	a0,0x8fb0
    8fe0:	afa5006c 	sw	a1,108(sp)
    8fe4:	03c03021 	move	a2,s8
    8fe8:	02602821 	move	a1,s3
    8fec:	02802021 	move	a0,s4
    8ff0:	afa30094 	sw	v1,148(sp)
    8ff4:	afad0090 	sw	t5,144(sp)
    8ff8:	0c002070 	jal	0x81c0
    8ffc:	afac0084 	sw	t4,132(sp)
    9000:	1440fd6c 	bnez	v0,0x85b4
    9004:	8fa30094 	lw	v1,148(sp)
    9008:	8fa20070 	lw	v0,112(sp)
    900c:	8fa5006c 	lw	a1,108(sp)
    9010:	2463fff0 	addiu	v1,v1,-16
    9014:	28640011 	slti	a0,v1,17
    9018:	03a04021 	move	t0,sp
    901c:	240e0010 	li	t6,16
    9020:	8fad0090 	lw	t5,144(sp)
    9024:	1080ffe6 	beqz	a0,0x8fc0
    9028:	8fac0084 	lw	t4,132(sp)
    902c:	8fa60078 	lw	a2,120(sp)
    9030:	24a50001 	addiu	a1,a1,1
    9034:	00431021 	addu	v0,v0,v1
    9038:	28a40008 	slti	a0,a1,8
    903c:	ad060000 	sw	a2,0(t0)
    9040:	ad030004 	sw	v1,4(t0)
    9044:	afa20070 	sw	v0,112(sp)
    9048:	1080008f 	beqz	a0,0x9288
    904c:	afa5006c 	sw	a1,108(sp)
    9050:	1000fd8f 	b	0x8690
    9054:	25080008 	addiu	t0,t0,8
    9058:	03c03021 	move	a2,s8
    905c:	02602821 	move	a1,s3
    9060:	02802021 	move	a0,s4
    9064:	afad0090 	sw	t5,144(sp)
    9068:	0c002070 	jal	0x81c0
    906c:	afac0084 	sw	t4,132(sp)
    9070:	1440fd50 	bnez	v0,0x85b4
    9074:	8fa5006c 	lw	a1,108(sp)
    9078:	8fa20070 	lw	v0,112(sp)
    907c:	27a40008 	addiu	a0,sp,8
    9080:	24a60001 	addiu	a2,a1,1
    9084:	03a04021 	move	t0,sp
    9088:	8fad0090 	lw	t5,144(sp)
    908c:	1000fd93 	b	0x86dc
    9090:	8fac0084 	lw	t4,132(sp)
    9094:	03c03021 	move	a2,s8
    9098:	02602821 	move	a1,s3
    909c:	02802021 	move	a0,s4
    90a0:	0c002070 	jal	0x81c0
    90a4:	afad0084 	sw	t5,132(sp)
    90a8:	1440fd42 	bnez	v0,0x85b4
    90ac:	8fa5006c 	lw	a1,108(sp)
    90b0:	8fa20070 	lw	v0,112(sp)
    90b4:	27a40008 	addiu	a0,sp,8
    90b8:	24a60001 	addiu	a2,a1,1
    90bc:	03a04021 	move	t0,sp
    90c0:	1000fd95 	b	0x8718
    90c4:	8fad0084 	lw	t5,132(sp)
    90c8:	14a0001b 	bnez	a1,0x9138
    90cc:	8fa3006c 	lw	v1,108(sp)
    90d0:	10000005 	b	0x90e8
    90d4:	24160010 	li	s6,16
    90d8:	2631fff0 	addiu	s1,s1,-16
    90dc:	2a250011 	slti	a1,s1,17
    90e0:	14a00015 	bnez	a1,0x9138
    90e4:	24840008 	addiu	a0,a0,8
    90e8:	8fa60078 	lw	a2,120(sp)
    90ec:	24630001 	addiu	v1,v1,1
    90f0:	24420010 	addiu	v0,v0,16
    90f4:	28650008 	slti	a1,v1,8
    90f8:	ac860000 	sw	a2,0(a0)
    90fc:	ac960004 	sw	s6,4(a0)
    9100:	afa20070 	sw	v0,112(sp)
    9104:	14a0fff4 	bnez	a1,0x90d8
    9108:	afa3006c 	sw	v1,108(sp)
    910c:	03c03021 	move	a2,s8
    9110:	02602821 	move	a1,s3
    9114:	0c002070 	jal	0x81c0
    9118:	02802021 	move	a0,s4
    911c:	1440fd25 	bnez	v0,0x85b4
    9120:	2631fff0 	addiu	s1,s1,-16
    9124:	2a250011 	slti	a1,s1,17
    9128:	8fa20070 	lw	v0,112(sp)
    912c:	8fa3006c 	lw	v1,108(sp)
    9130:	10a0ffed 	beqz	a1,0x90e8
    9134:	03a02021 	move	a0,sp
    9138:	8fa60078 	lw	a2,120(sp)
    913c:	24630001 	addiu	v1,v1,1
    9140:	00511021 	addu	v0,v0,s1
    9144:	28650008 	slti	a1,v1,8
    9148:	ac860000 	sw	a2,0(a0)
    914c:	ac910004 	sw	s1,4(a0)
    9150:	afa20070 	sw	v0,112(sp)
    9154:	14a0fd84 	bnez	a1,0x8768
    9158:	afa3006c 	sw	v1,108(sp)
    915c:	03c03021 	move	a2,s8
    9160:	02602821 	move	a1,s3
    9164:	0c002070 	jal	0x81c0
    9168:	02802021 	move	a0,s4
    916c:	1440fd11 	bnez	v0,0x85b4
    9170:	8fa20070 	lw	v0,112(sp)
    9174:	1000fd7d 	b	0x876c
    9178:	8fa3007c 	lw	v1,124(sp)
    917c:	1000fdc1 	b	0x8884
    9180:	00008021 	move	s0,zero
    9184:	03c03021 	move	a2,s8
    9188:	02602821 	move	a1,s3
    918c:	0c002070 	jal	0x81c0
    9190:	02802021 	move	a0,s4
    9194:	1440fd07 	bnez	v0,0x85b4
    9198:	8fa6006c 	lw	a2,108(sp)
    919c:	8fa20070 	lw	v0,112(sp)
    91a0:	27a40008 	addiu	a0,sp,8
    91a4:	24c60001 	addiu	a2,a2,1
    91a8:	1000fd61 	b	0x8730
    91ac:	03a04021 	move	t0,sp
    91b0:	0016b023 	negu	s6,s6
    91b4:	0016102b 	sltu	v0,zero,s6
    91b8:	00106823 	negu	t5,s0
    91bc:	01a28023 	subu	s0,t5,v0
    91c0:	2402002d 	li	v0,45
    91c4:	a3a20076 	sb	v0,118(sp)
    91c8:	2402002d 	li	v0,45
    91cc:	afa20090 	sw	v0,144(sp)
    91d0:	1000fdb4 	b	0x88a4
    91d4:	24020001 	li	v0,1
    91d8:	1000fcc4 	b	0x84ec
    91dc:	02e08821 	move	s1,s7
    91e0:	8fa20088 	lw	v0,136(sp)
    91e4:	24420004 	addiu	v0,v0,4
    91e8:	8fa30088 	lw	v1,136(sp)
    91ec:	8c760000 	lw	s6,0(v1)
    91f0:	afa20088 	sw	v0,136(sp)
    91f4:	001687c3 	sra	s0,s6,0x1f
    91f8:	1000fe80 	b	0x8bfc
    91fc:	02001821 	move	v1,s0
    9200:	8fa5007c 	lw	a1,124(sp)
    9204:	8c820000 	lw	v0,0(a0)
    9208:	afa30088 	sw	v1,136(sp)
    920c:	000527c3 	sra	a0,a1,0x1f
    9210:	ac450000 	sw	a1,0(v0)
    9214:	1000fc96 	b	0x8470
    9218:	ac440004 	sw	a0,4(v0)
    921c:	a3a40074 	sb	a0,116(sp)
    9220:	a3a30075 	sb	v1,117(sp)
    9224:	1000fd9d 	b	0x889c
    9228:	358c0002 	ori	t4,t4,0x2
    922c:	02202021 	move	a0,s1
    9230:	afa80084 	sw	t0,132(sp)
    9234:	0c000331 	jal	0xcc4
    9238:	afac0080 	sw	t4,128(sp)
    923c:	0040b021 	move	s6,v0
    9240:	83a20076 	lb	v0,118(sp)
    9244:	0000a821 	move	s5,zero
    9248:	8fa80084 	lw	t0,132(sp)
    924c:	1000fda6 	b	0x88e8
    9250:	afa20090 	sw	v0,144(sp)
    9254:	0c0005af 	jal	0x16bc
    9258:	24050040 	li	a1,64
    925c:	ae620000 	sw	v0,0(s3)
    9260:	10400057 	beqz	v0,0x93c0
    9264:	ae620010 	sw	v0,16(s3)
    9268:	24020040 	li	v0,64
    926c:	1000fc76 	b	0x8448
    9270:	ae620014 	sw	v0,20(s3)
    9274:	8c420000 	lw	v0,0(v0)
    9278:	afa30088 	sw	v1,136(sp)
    927c:	8fa3007c 	lw	v1,124(sp)
    9280:	1000fc7b 	b	0x8470
    9284:	ac430000 	sw	v1,0(v0)
    9288:	03c03021 	move	a2,s8
    928c:	02602821 	move	a1,s3
    9290:	02802021 	move	a0,s4
    9294:	afad0090 	sw	t5,144(sp)
    9298:	0c002070 	jal	0x81c0
    929c:	afac0084 	sw	t4,132(sp)
    92a0:	1440fcc4 	bnez	v0,0x85b4
    92a4:	8fa20070 	lw	v0,112(sp)
    92a8:	8fa5006c 	lw	a1,108(sp)
    92ac:	03a04021 	move	t0,sp
    92b0:	8fad0090 	lw	t5,144(sp)
    92b4:	1000fcf6 	b	0x8690
    92b8:	8fac0084 	lw	t4,132(sp)
    92bc:	358c0020 	ori	t4,t4,0x20
    92c0:	1000fc95 	b	0x8518
    92c4:	26f70001 	addiu	s7,s7,1
    92c8:	03c03021 	move	a2,s8
    92cc:	02602821 	move	a1,s3
    92d0:	0c002070 	jal	0x81c0
    92d4:	02802021 	move	a0,s4
    92d8:	1440fcb6 	bnez	v0,0x85b4
    92dc:	8fa5006c 	lw	a1,108(sp)
    92e0:	8fa20070 	lw	v0,112(sp)
    92e4:	27a40008 	addiu	a0,sp,8
    92e8:	24a60001 	addiu	a2,a1,1
    92ec:	1000fd0d 	b	0x8724
    92f0:	03a04021 	move	t0,sp
    92f4:	2eb60007 	sltiu	s6,s5,7
    92f8:	24020006 	li	v0,6
    92fc:	02b6100b 	movn	v0,s5,s6
    9300:	0040b021 	move	s6,v0
    9304:	00408021 	move	s0,v0
    9308:	3c110001 	lui	s1,0x1
    930c:	2631bcf8 	addiu	s1,s1,-17160
    9310:	1000fcd3 	b	0x8660
    9314:	afa30088 	sw	v1,136(sp)
    9318:	00008021 	move	s0,zero
    931c:	1000fd5f 	b	0x889c
    9320:	00001021 	move	v0,zero
    9324:	00008021 	move	s0,zero
    9328:	1000fd5c 	b	0x889c
    932c:	24020001 	li	v0,1
    9330:	3c0c0001 	lui	t4,0x1
    9334:	258cc1b4 	addiu	t4,t4,-15948
    9338:	1000ff00 	b	0x8f3c
    933c:	00802821 	move	a1,a0
    9340:	5040fe55 	beqzl	v0,0x8c98
    9344:	03c08821 	move	s1,s8
    9348:	02c02021 	move	a0,s6
    934c:	1000fe6c 	b	0x8d00
    9350:	03c08821 	move	s1,s8
    9354:	83a20076 	lb	v0,118(sp)
    9358:	02a0b021 	move	s6,s5
    935c:	afa30088 	sw	v1,136(sp)
    9360:	afa20090 	sw	v0,144(sp)
    9364:	afac0080 	sw	t4,128(sp)
    9368:	1000fd5f 	b	0x88e8
    936c:	0000a821 	move	s5,zero
    9370:	1000fe16 	b	0x8bcc
    9374:	a3a50076 	sb	a1,118(sp)
    9378:	1000fe07 	b	0x8b98
    937c:	a3a50076 	sb	a1,118(sp)
    9380:	3c0c0001 	lui	t4,0x1
    9384:	258cc1b4 	addiu	t4,t4,-15948
    9388:	1000febd 	b	0x8e80
    938c:	00c02821 	move	a1,a2
    9390:	8fac0080 	lw	t4,128(sp)
    9394:	02c02021 	move	a0,s6
    9398:	1000fe59 	b	0x8d00
    939c:	03c08821 	move	s1,s8
    93a0:	8fa20088 	lw	v0,136(sp)
    93a4:	82e30001 	lb	v1,1(s7)
    93a8:	01c0b821 	move	s7,t6
    93ac:	8c4b0000 	lw	t3,0(v0)
    93b0:	24420004 	addiu	v0,v0,4
    93b4:	afa20088 	sw	v0,136(sp)
    93b8:	1000fc57 	b	0x8518
    93bc:	016da82c 	max	s5,t3,t5
    93c0:	2402000c 	li	v0,12
    93c4:	ae820000 	sw	v0,0(s4)
    93c8:	2402ffff 	li	v0,-1
    93cc:	1000fc7f 	b	0x85cc
    93d0:	afa2007c 	sw	v0,124(sp)
    93d4:	00a60018 	mult	a1,a2
    93d8:	27bdfff8 	addiu	sp,sp,-8
    93dc:	afb00000 	sw	s0,0(sp)
    93e0:	afbf0004 	sw	ra,4(sp)
    93e4:	0c0005af 	jal	0x16bc
    93e8:	00002812 	mflo	a1
    93ec:	1040000d 	beqz	v0,0x9424
    93f0:	00408021 	move	s0,v0
    93f4:	8c46fffc 	lw	a2,-4(v0)
    93f8:	2402fffc 	li	v0,-4
    93fc:	00c23024 	and	a2,a2,v0
    9400:	24c6fffc 	addiu	a2,a2,-4
    9404:	2cc20025 	sltiu	v0,a2,37
    9408:	10400015 	beqz	v0,0x9460
    940c:	2cc30014 	sltiu	v1,a2,20
    9410:	10600009 	beqz	v1,0x9438
    9414:	02001021 	move	v0,s0
    9418:	ac400000 	sw	zero,0(v0)
    941c:	ac400004 	sw	zero,4(v0)
    9420:	ac400008 	sw	zero,8(v0)
    9424:	8fbf0004 	lw	ra,4(sp)
    9428:	02001021 	move	v0,s0
    942c:	8fb00000 	lw	s0,0(sp)
    9430:	03e00008 	jr	ra
    9434:	27bd0008 	addiu	sp,sp,8
    9438:	2cc2001c 	sltiu	v0,a2,28
    943c:	ae000000 	sw	zero,0(s0)
    9440:	1440000f 	bnez	v0,0x9480
    9444:	ae000004 	sw	zero,4(s0)
    9448:	24020024 	li	v0,36
    944c:	ae000008 	sw	zero,8(s0)
    9450:	10c2000d 	beq	a2,v0,0x9488
    9454:	ae00000c 	sw	zero,12(s0)
    9458:	1000ffef 	b	0x9418
    945c:	26020010 	addiu	v0,s0,16
    9460:	02002021 	move	a0,s0
    9464:	0c0007e2 	jal	0x1f88
    9468:	00002821 	move	a1,zero
    946c:	8fbf0004 	lw	ra,4(sp)
    9470:	02001021 	move	v0,s0
    9474:	8fb00000 	lw	s0,0(sp)
    9478:	03e00008 	jr	ra
    947c:	27bd0008 	addiu	sp,sp,8
    9480:	1000ffe5 	b	0x9418
    9484:	26020008 	addiu	v0,s0,8
    9488:	ae000010 	sw	zero,16(s0)
    948c:	26020018 	addiu	v0,s0,24
    9490:	1000ffe1 	b	0x9418
    9494:	ae000014 	sw	zero,20(s0)
    9498:	00a4182b 	sltu	v1,a1,a0
    949c:	00801021 	move	v0,a0
    94a0:	1060000e 	beqz	v1,0x94dc
    94a4:	00c03821 	move	a3,a2
    94a8:	00a62021 	addu	a0,a1,a2
    94ac:	0044182b 	sltu	v1,v0,a0
    94b0:	5060000b 	beqzl	v1,0x94e0
    94b4:	2cc40010 	sltiu	a0,a2,16
    94b8:	10c00006 	beqz	a2,0x94d4
    94bc:	00461821 	addu	v1,v0,a2
    94c0:	2484ffff 	addiu	a0,a0,-1
    94c4:	80850000 	lb	a1,0(a0)
    94c8:	2463ffff 	addiu	v1,v1,-1
    94cc:	1443fffc 	bne	v0,v1,0x94c0
    94d0:	a0650000 	sb	a1,0(v1)
    94d4:	03e00008 	jr	ra
    94d8:	00000000 	nop
    94dc:	2cc40010 	sltiu	a0,a2,16
    94e0:	1080000a 	beqz	a0,0x950c
    94e4:	00401821 	move	v1,v0
    94e8:	10e0fffa 	beqz	a3,0x94d4
    94ec:	00672021 	addu	a0,v1,a3
    94f0:	24a50001 	addiu	a1,a1,1
    94f4:	80a6ffff 	lb	a2,-1(a1)
    94f8:	24630001 	addiu	v1,v1,1
    94fc:	1464fffc 	bne	v1,a0,0x94f0
    9500:	a066ffff 	sb	a2,-1(v1)
    9504:	03e00008 	jr	ra
    9508:	00000000 	nop
    950c:	00a21825 	or	v1,a1,v0
    9510:	30630003 	andi	v1,v1,0x3
    9514:	1460fff4 	bnez	v1,0x94e8
    9518:	00401821 	move	v1,v0
    951c:	24cafff0 	addiu	t2,a2,-16
    9520:	000a5102 	srl	t2,t2,0x4
    9524:	254a0001 	addiu	t2,t2,1
    9528:	000a5100 	sll	t2,t2,0x4
    952c:	004a4821 	addu	t1,v0,t2
    9530:	00a03821 	move	a3,a1
    9534:	8ce40000 	lw	a0,0(a3)
    9538:	24630010 	addiu	v1,v1,16
    953c:	24e70010 	addiu	a3,a3,16
    9540:	ac64fff0 	sw	a0,-16(v1)
    9544:	8ce4fff4 	lw	a0,-12(a3)
    9548:	ac64fff4 	sw	a0,-12(v1)
    954c:	8ce4fff8 	lw	a0,-8(a3)
    9550:	ac64fff8 	sw	a0,-8(v1)
    9554:	8ce8fffc 	lw	t0,-4(a3)
    9558:	00602021 	move	a0,v1
    955c:	1523fff5 	bne	t1,v1,0x9534
    9560:	ac68fffc 	sw	t0,-4(v1)
    9564:	30cb000f 	andi	t3,a2,0xf
    9568:	30c6000c 	andi	a2,a2,0xc
    956c:	00aa2821 	addu	a1,a1,t2
    9570:	10c0ffdd 	beqz	a2,0x94e8
    9574:	01603821 	move	a3,t3
    9578:	256afffc 	addiu	t2,t3,-4
    957c:	2408fffc 	li	t0,-4
    9580:	01484024 	and	t0,t2,t0
    9584:	25080004 	addiu	t0,t0,4
    9588:	01034021 	addu	t0,t0,v1
    958c:	00a03021 	move	a2,a1
    9590:	24c60004 	addiu	a2,a2,4
    9594:	8cc9fffc 	lw	t1,-4(a2)
    9598:	24840004 	addiu	a0,a0,4
    959c:	1488fffc 	bne	a0,t0,0x9590
    95a0:	ac89fffc 	sw	t1,-4(a0)
    95a4:	000a2082 	srl	a0,t2,0x2
    95a8:	24860001 	addiu	a2,a0,1
    95ac:	00042080 	sll	a0,a0,0x2
    95b0:	00063080 	sll	a2,a2,0x2
    95b4:	01642023 	subu	a0,t3,a0
    95b8:	00a62821 	addu	a1,a1,a2
    95bc:	00661821 	addu	v1,v1,a2
    95c0:	1000ffc9 	b	0x94e8
    95c4:	2487fffc 	addiu	a3,a0,-4
    95c8:	03e00008 	jr	ra
    95cc:	00000000 	nop
    95d0:	27bdffd8 	addiu	sp,sp,-40
    95d4:	afb20008 	sw	s2,8(sp)
    95d8:	afbf0024 	sw	ra,36(sp)
    95dc:	afbe0020 	sw	s8,32(sp)
    95e0:	afb7001c 	sw	s7,28(sp)
    95e4:	afb60018 	sw	s6,24(sp)
    95e8:	afb50014 	sw	s5,20(sp)
    95ec:	afb40010 	sw	s4,16(sp)
    95f0:	afb3000c 	sw	s3,12(sp)
    95f4:	afb10004 	sw	s1,4(sp)
    95f8:	afb00000 	sw	s0,0(sp)
    95fc:	10a000ad 	beqz	a1,0x98b4
    9600:	00c09021 	move	s2,a2
    9604:	26500013 	addiu	s0,s2,19
    9608:	00a0b021 	move	s6,a1
    960c:	0c000824 	jal	0x2090
    9610:	0080a021 	move	s4,a0
    9614:	2e02001f 	sltiu	v0,s0,31
    9618:	10400056 	beqz	v0,0x9774
    961c:	2402fff0 	li	v0,-16
    9620:	24100010 	li	s0,16
    9624:	24020010 	li	v0,16
    9628:	0212182b 	sltu	v1,s0,s2
    962c:	14600054 	bnez	v1,0x9780
    9630:	2405fffc 	li	a1,-4
    9634:	8ec3fffc 	lw	v1,-4(s6)
    9638:	26d3fff8 	addiu	s3,s6,-8
    963c:	00658824 	and	s1,v1,a1
    9640:	0222202a 	slt	a0,s1,v0
    9644:	1080007a 	beqz	a0,0x9830
    9648:	0271a821 	addu	s5,s3,s1
    964c:	3c170001 	lui	s7,0x1
    9650:	26f7d090 	addiu	s7,s7,-12144
    9654:	8ee60008 	lw	a2,8(s7)
    9658:	10d500b0 	beq	a2,s5,0x991c
    965c:	8ea40004 	lw	a0,4(s5)
    9660:	2406fffe 	li	a2,-2
    9664:	00863024 	and	a2,a0,a2
    9668:	02a63021 	addu	a2,s5,a2
    966c:	8cc60004 	lw	a2,4(a2)
    9670:	30c60001 	andi	a2,a2,0x1
    9674:	14c00088 	bnez	a2,0x9898
    9678:	30630001 	andi	v1,v1,0x1
    967c:	00852024 	and	a0,a0,a1
    9680:	02243021 	addu	a2,s1,a0
    9684:	00c2382a 	slt	a3,a2,v0
    9688:	50e000f2 	beqzl	a3,0x9a54
    968c:	8ea2000c 	lw	v0,12(s5)
    9690:	5460000f 	bnezl	v1,0x96d0
    9694:	02402821 	move	a1,s2
    9698:	8edefff8 	lw	s8,-8(s6)
    969c:	027ef023 	subu	s8,s3,s8
    96a0:	8fc30004 	lw	v1,4(s8)
    96a4:	00652824 	and	a1,v1,a1
    96a8:	00a42021 	addu	a0,a1,a0
    96ac:	0091b821 	addu	s7,a0,s1
    96b0:	02e2182a 	slt	v1,s7,v0
    96b4:	506000f8 	beqzl	v1,0x9a98
    96b8:	8ea2000c 	lw	v0,12(s5)
    96bc:	0225b821 	addu	s7,s1,a1
    96c0:	02e2102a 	slt	v0,s7,v0
    96c4:	5040003e 	beqzl	v0,0x97c0
    96c8:	8fc2000c 	lw	v0,12(s8)
    96cc:	02402821 	move	a1,s2
    96d0:	0c0005af 	jal	0x16bc
    96d4:	02802021 	move	a0,s4
    96d8:	10400017 	beqz	v0,0x9738
    96dc:	00409021 	move	s2,v0
    96e0:	8ec2fffc 	lw	v0,-4(s6)
    96e4:	2404fffe 	li	a0,-2
    96e8:	2643fff8 	addiu	v1,s2,-8
    96ec:	00441024 	and	v0,v0,a0
    96f0:	02621021 	addu	v0,s3,v0
    96f4:	104300dd 	beq	v0,v1,0x9a6c
    96f8:	2626fffc 	addiu	a2,s1,-4
    96fc:	2cc20025 	sltiu	v0,a2,37
    9700:	104000e0 	beqz	v0,0x9a84
    9704:	2cc20014 	sltiu	v0,a2,20
    9708:	104000bb 	beqz	v0,0x99f8
    970c:	8ec40000 	lw	a0,0(s6)
    9710:	02401021 	move	v0,s2
    9714:	02c01821 	move	v1,s6
    9718:	ac440000 	sw	a0,0(v0)
    971c:	8c640004 	lw	a0,4(v1)
    9720:	ac440004 	sw	a0,4(v0)
    9724:	8c630008 	lw	v1,8(v1)
    9728:	ac430008 	sw	v1,8(v0)
    972c:	02c02821 	move	a1,s6
    9730:	0c00190e 	jal	0x6438
    9734:	02802021 	move	a0,s4
    9738:	0c000826 	jal	0x2098
    973c:	02802021 	move	a0,s4
    9740:	8fbf0024 	lw	ra,36(sp)
    9744:	02401021 	move	v0,s2
    9748:	8fbe0020 	lw	s8,32(sp)
    974c:	8fb7001c 	lw	s7,28(sp)
    9750:	8fb60018 	lw	s6,24(sp)
    9754:	8fb50014 	lw	s5,20(sp)
    9758:	8fb40010 	lw	s4,16(sp)
    975c:	8fb3000c 	lw	s3,12(sp)
    9760:	8fb20008 	lw	s2,8(sp)
    9764:	8fb10004 	lw	s1,4(sp)
    9768:	8fb00000 	lw	s0,0(sp)
    976c:	03e00008 	jr	ra
    9770:	27bd0028 	addiu	sp,sp,40
    9774:	02028024 	and	s0,s0,v0
    9778:	0601ffab 	bgez	s0,0x9628
    977c:	02001021 	move	v0,s0
    9780:	2402000c 	li	v0,12
    9784:	ae820000 	sw	v0,0(s4)
    9788:	00009021 	move	s2,zero
    978c:	8fbf0024 	lw	ra,36(sp)
    9790:	02401021 	move	v0,s2
    9794:	8fbe0020 	lw	s8,32(sp)
    9798:	8fb7001c 	lw	s7,28(sp)
    979c:	8fb60018 	lw	s6,24(sp)
    97a0:	8fb50014 	lw	s5,20(sp)
    97a4:	8fb40010 	lw	s4,16(sp)
    97a8:	8fb3000c 	lw	s3,12(sp)
    97ac:	8fb20008 	lw	s2,8(sp)
    97b0:	8fb10004 	lw	s1,4(sp)
    97b4:	8fb00000 	lw	s0,0(sp)
    97b8:	03e00008 	jr	ra
    97bc:	27bd0028 	addiu	sp,sp,40
    97c0:	8fc30008 	lw	v1,8(s8)
    97c4:	2626fffc 	addiu	a2,s1,-4
    97c8:	2cc40025 	sltiu	a0,a2,37
    97cc:	ac62000c 	sw	v0,12(v1)
    97d0:	27d20008 	addiu	s2,s8,8
    97d4:	ac430008 	sw	v1,8(v0)
    97d8:	108000bb 	beqz	a0,0x9ac8
    97dc:	03d7a821 	addu	s5,s8,s7
    97e0:	2cc30014 	sltiu	v1,a2,20
    97e4:	8ec40000 	lw	a0,0(s6)
    97e8:	14600009 	bnez	v1,0x9810
    97ec:	02401021 	move	v0,s2
    97f0:	afc40008 	sw	a0,8(s8)
    97f4:	8ec30004 	lw	v1,4(s6)
    97f8:	2cc2001c 	sltiu	v0,a2,28
    97fc:	104000c3 	beqz	v0,0x9b0c
    9800:	afc3000c 	sw	v1,12(s8)
    9804:	8ec40008 	lw	a0,8(s6)
    9808:	27c20010 	addiu	v0,s8,16
    980c:	26d60008 	addiu	s6,s6,8
    9810:	ac440000 	sw	a0,0(v0)
    9814:	8ec30004 	lw	v1,4(s6)
    9818:	02e08821 	move	s1,s7
    981c:	03c09821 	move	s3,s8
    9820:	ac430004 	sw	v1,4(v0)
    9824:	8ec30008 	lw	v1,8(s6)
    9828:	0240b021 	move	s6,s2
    982c:	ac430008 	sw	v1,8(v0)
    9830:	8e620004 	lw	v0,4(s3)
    9834:	02301823 	subu	v1,s1,s0
    9838:	2c640010 	sltiu	a0,v1,16
    983c:	1080002a 	beqz	a0,0x98e8
    9840:	30420001 	andi	v0,v0,0x1
    9844:	02221025 	or	v0,s1,v0
    9848:	ae620004 	sw	v0,4(s3)
    984c:	8ea20004 	lw	v0,4(s5)
    9850:	34420001 	ori	v0,v0,0x1
    9854:	aea20004 	sw	v0,4(s5)
    9858:	0c000826 	jal	0x2098
    985c:	02802021 	move	a0,s4
    9860:	8fbf0024 	lw	ra,36(sp)
    9864:	02c09021 	move	s2,s6
    9868:	02401021 	move	v0,s2
    986c:	8fbe0020 	lw	s8,32(sp)
    9870:	8fb7001c 	lw	s7,28(sp)
    9874:	8fb60018 	lw	s6,24(sp)
    9878:	8fb50014 	lw	s5,20(sp)
    987c:	8fb40010 	lw	s4,16(sp)
    9880:	8fb3000c 	lw	s3,12(sp)
    9884:	8fb20008 	lw	s2,8(sp)
    9888:	8fb10004 	lw	s1,4(sp)
    988c:	8fb00000 	lw	s0,0(sp)
    9890:	03e00008 	jr	ra
    9894:	27bd0028 	addiu	sp,sp,40
    9898:	5460ff8d 	bnezl	v1,0x96d0
    989c:	02402821 	move	a1,s2
    98a0:	8edefff8 	lw	s8,-8(s6)
    98a4:	027ef023 	subu	s8,s3,s8
    98a8:	8fc30004 	lw	v1,4(s8)
    98ac:	1000ff83 	b	0x96bc
    98b0:	00652824 	and	a1,v1,a1
    98b4:	8fbf0024 	lw	ra,36(sp)
    98b8:	8fbe0020 	lw	s8,32(sp)
    98bc:	8fb7001c 	lw	s7,28(sp)
    98c0:	8fb60018 	lw	s6,24(sp)
    98c4:	8fb50014 	lw	s5,20(sp)
    98c8:	8fb40010 	lw	s4,16(sp)
    98cc:	8fb3000c 	lw	s3,12(sp)
    98d0:	8fb20008 	lw	s2,8(sp)
    98d4:	8fb10004 	lw	s1,4(sp)
    98d8:	8fb00000 	lw	s0,0(sp)
    98dc:	00c02821 	move	a1,a2
    98e0:	080005af 	j	0x16bc
    98e4:	27bd0028 	addiu	sp,sp,40
    98e8:	02702821 	addu	a1,s3,s0
    98ec:	00501025 	or	v0,v0,s0
    98f0:	34630001 	ori	v1,v1,0x1
    98f4:	ae620004 	sw	v0,4(s3)
    98f8:	aca30004 	sw	v1,4(a1)
    98fc:	8ea20004 	lw	v0,4(s5)
    9900:	24a50008 	addiu	a1,a1,8
    9904:	02802021 	move	a0,s4
    9908:	34420001 	ori	v0,v0,0x1
    990c:	0c00190e 	jal	0x6438
    9910:	aea20004 	sw	v0,4(s5)
    9914:	1000ffd0 	b	0x9858
    9918:	00000000 	nop
    991c:	00852024 	and	a0,a0,a1
    9920:	02243821 	addu	a3,s1,a0
    9924:	26060010 	addiu	a2,s0,16
    9928:	00e6402a 	slt	t0,a3,a2
    992c:	1100003b 	beqz	t0,0x9a1c
    9930:	30630001 	andi	v1,v1,0x1
    9934:	5460ff66 	bnezl	v1,0x96d0
    9938:	02402821 	move	a1,s2
    993c:	8edefff8 	lw	s8,-8(s6)
    9940:	027ef023 	subu	s8,s3,s8
    9944:	8fc30004 	lw	v1,4(s8)
    9948:	00652824 	and	a1,v1,a1
    994c:	00a42021 	addu	a0,a1,a0
    9950:	0091a821 	addu	s5,a0,s1
    9954:	02a6302a 	slt	a2,s5,a2
    9958:	54c0ff59 	bnezl	a2,0x96c0
    995c:	0225b821 	addu	s7,s1,a1
    9960:	8fc2000c 	lw	v0,12(s8)
    9964:	8fc30008 	lw	v1,8(s8)
    9968:	2626fffc 	addiu	a2,s1,-4
    996c:	2cc40025 	sltiu	a0,a2,37
    9970:	ac62000c 	sw	v0,12(v1)
    9974:	27d20008 	addiu	s2,s8,8
    9978:	1080007e 	beqz	a0,0x9b74
    997c:	ac430008 	sw	v1,8(v0)
    9980:	2cc30014 	sltiu	v1,a2,20
    9984:	8ec40000 	lw	a0,0(s6)
    9988:	14600009 	bnez	v1,0x99b0
    998c:	02401021 	move	v0,s2
    9990:	afc40008 	sw	a0,8(s8)
    9994:	8ec30004 	lw	v1,4(s6)
    9998:	2cc2001c 	sltiu	v0,a2,28
    999c:	1040007a 	beqz	v0,0x9b88
    99a0:	afc3000c 	sw	v1,12(s8)
    99a4:	8ec40008 	lw	a0,8(s6)
    99a8:	27c20010 	addiu	v0,s8,16
    99ac:	26d60008 	addiu	s6,s6,8
    99b0:	ac440000 	sw	a0,0(v0)
    99b4:	8ec30004 	lw	v1,4(s6)
    99b8:	ac430004 	sw	v1,4(v0)
    99bc:	8ec30008 	lw	v1,8(s6)
    99c0:	ac430008 	sw	v1,8(v0)
    99c4:	02b01023 	subu	v0,s5,s0
    99c8:	03d01821 	addu	v1,s8,s0
    99cc:	34420001 	ori	v0,v0,0x1
    99d0:	aee30008 	sw	v1,8(s7)
    99d4:	ac620004 	sw	v0,4(v1)
    99d8:	8fc20004 	lw	v0,4(s8)
    99dc:	02802021 	move	a0,s4
    99e0:	30420001 	andi	v0,v0,0x1
    99e4:	00508025 	or	s0,v0,s0
    99e8:	0c000826 	jal	0x2098
    99ec:	afd00004 	sw	s0,4(s8)
    99f0:	1000ff67 	b	0x9790
    99f4:	8fbf0024 	lw	ra,36(sp)
    99f8:	ae440000 	sw	a0,0(s2)
    99fc:	8ec30004 	lw	v1,4(s6)
    9a00:	2cc2001c 	sltiu	v0,a2,28
    9a04:	10400037 	beqz	v0,0x9ae4
    9a08:	ae430004 	sw	v1,4(s2)
    9a0c:	26c30008 	addiu	v1,s6,8
    9a10:	26420008 	addiu	v0,s2,8
    9a14:	1000ff40 	b	0x9718
    9a18:	8ec40008 	lw	a0,8(s6)
    9a1c:	00f01023 	subu	v0,a3,s0
    9a20:	02709821 	addu	s3,s3,s0
    9a24:	34420001 	ori	v0,v0,0x1
    9a28:	aef30008 	sw	s3,8(s7)
    9a2c:	ae620004 	sw	v0,4(s3)
    9a30:	8ec2fffc 	lw	v0,-4(s6)
    9a34:	02802021 	move	a0,s4
    9a38:	02c09021 	move	s2,s6
    9a3c:	30420001 	andi	v0,v0,0x1
    9a40:	00508025 	or	s0,v0,s0
    9a44:	0c000826 	jal	0x2098
    9a48:	aed0fffc 	sw	s0,-4(s6)
    9a4c:	1000ff50 	b	0x9790
    9a50:	8fbf0024 	lw	ra,36(sp)
    9a54:	8ea30008 	lw	v1,8(s5)
    9a58:	00c08821 	move	s1,a2
    9a5c:	0266a821 	addu	s5,s3,a2
    9a60:	ac62000c 	sw	v0,12(v1)
    9a64:	1000ff72 	b	0x9830
    9a68:	ac430008 	sw	v1,8(v0)
    9a6c:	8e42fffc 	lw	v0,-4(s2)
    9a70:	2403fffc 	li	v1,-4
    9a74:	00431024 	and	v0,v0,v1
    9a78:	02228821 	addu	s1,s1,v0
    9a7c:	1000ff6c 	b	0x9830
    9a80:	0271a821 	addu	s5,s3,s1
    9a84:	02c02821 	move	a1,s6
    9a88:	0c002526 	jal	0x9498
    9a8c:	02402021 	move	a0,s2
    9a90:	1000ff27 	b	0x9730
    9a94:	02c02821 	move	a1,s6
    9a98:	8ea30008 	lw	v1,8(s5)
    9a9c:	2626fffc 	addiu	a2,s1,-4
    9aa0:	2cc40025 	sltiu	a0,a2,37
    9aa4:	ac62000c 	sw	v0,12(v1)
    9aa8:	ac430008 	sw	v1,8(v0)
    9aac:	8fc30008 	lw	v1,8(s8)
    9ab0:	8fc2000c 	lw	v0,12(s8)
    9ab4:	27d20008 	addiu	s2,s8,8
    9ab8:	03d7a821 	addu	s5,s8,s7
    9abc:	ac62000c 	sw	v0,12(v1)
    9ac0:	1480ff47 	bnez	a0,0x97e0
    9ac4:	ac430008 	sw	v1,8(v0)
    9ac8:	02c02821 	move	a1,s6
    9acc:	0c002526 	jal	0x9498
    9ad0:	02402021 	move	a0,s2
    9ad4:	0240b021 	move	s6,s2
    9ad8:	02e08821 	move	s1,s7
    9adc:	1000ff54 	b	0x9830
    9ae0:	03c09821 	move	s3,s8
    9ae4:	8ec30008 	lw	v1,8(s6)
    9ae8:	24020024 	li	v0,36
    9aec:	ae430008 	sw	v1,8(s2)
    9af0:	8ec3000c 	lw	v1,12(s6)
    9af4:	10c2000f 	beq	a2,v0,0x9b34
    9af8:	ae43000c 	sw	v1,12(s2)
    9afc:	26c30010 	addiu	v1,s6,16
    9b00:	26420010 	addiu	v0,s2,16
    9b04:	1000ff04 	b	0x9718
    9b08:	8ec40010 	lw	a0,16(s6)
    9b0c:	8ec30008 	lw	v1,8(s6)
    9b10:	24020024 	li	v0,36
    9b14:	afc30010 	sw	v1,16(s8)
    9b18:	8ec3000c 	lw	v1,12(s6)
    9b1c:	10c2000d 	beq	a2,v0,0x9b54
    9b20:	afc30014 	sw	v1,20(s8)
    9b24:	8ec40010 	lw	a0,16(s6)
    9b28:	27c20018 	addiu	v0,s8,24
    9b2c:	1000ff38 	b	0x9810
    9b30:	26d60010 	addiu	s6,s6,16
    9b34:	8ec40010 	lw	a0,16(s6)
    9b38:	26c30018 	addiu	v1,s6,24
    9b3c:	26420018 	addiu	v0,s2,24
    9b40:	ae440010 	sw	a0,16(s2)
    9b44:	8ec40014 	lw	a0,20(s6)
    9b48:	ae440014 	sw	a0,20(s2)
    9b4c:	1000fef2 	b	0x9718
    9b50:	8ec40018 	lw	a0,24(s6)
    9b54:	8ec30010 	lw	v1,16(s6)
    9b58:	27c20020 	addiu	v0,s8,32
    9b5c:	26d60018 	addiu	s6,s6,24
    9b60:	afc30018 	sw	v1,24(s8)
    9b64:	8ec3fffc 	lw	v1,-4(s6)
    9b68:	afc3001c 	sw	v1,28(s8)
    9b6c:	1000ff28 	b	0x9810
    9b70:	8ec40000 	lw	a0,0(s6)
    9b74:	02c02821 	move	a1,s6
    9b78:	0c002526 	jal	0x9498
    9b7c:	02402021 	move	a0,s2
    9b80:	1000ff91 	b	0x99c8
    9b84:	02b01023 	subu	v0,s5,s0
    9b88:	8ec30008 	lw	v1,8(s6)
    9b8c:	24020024 	li	v0,36
    9b90:	afc30010 	sw	v1,16(s8)
    9b94:	8ec3000c 	lw	v1,12(s6)
    9b98:	10c20005 	beq	a2,v0,0x9bb0
    9b9c:	afc30014 	sw	v1,20(s8)
    9ba0:	8ec40010 	lw	a0,16(s6)
    9ba4:	27c20018 	addiu	v0,s8,24
    9ba8:	1000ff81 	b	0x99b0
    9bac:	26d60010 	addiu	s6,s6,16
    9bb0:	8ec30010 	lw	v1,16(s6)
    9bb4:	27c20020 	addiu	v0,s8,32
    9bb8:	26d60018 	addiu	s6,s6,24
    9bbc:	afc30018 	sw	v1,24(s8)
    9bc0:	8ec3fffc 	lw	v1,-4(s6)
    9bc4:	afc3001c 	sw	v1,28(s8)
    9bc8:	1000ff79 	b	0x99b0
    9bcc:	8ec40000 	lw	a0,0(s6)
    9bd0:	30a600ff 	andi	a2,a1,0xff
    9bd4:	10c00007 	beqz	a2,0x9bf4
    9bd8:	30820003 	andi	v0,a0,0x3
    9bdc:	10000029 	b	0x9c84
    9be0:	00000000 	nop
    9be4:	1040001f 	beqz	v0,0x9c64
    9be8:	00000000 	nop
    9bec:	24840001 	addiu	a0,a0,1
    9bf0:	30820003 	andi	v0,a0,0x3
    9bf4:	5440fffb 	bnezl	v0,0x9be4
    9bf8:	90820000 	lbu	v0,0(a0)
    9bfc:	8c830000 	lw	v1,0(a0)
    9c00:	3c06fefe 	lui	a2,0xfefe
    9c04:	34c6feff 	ori	a2,a2,0xfeff
    9c08:	00661021 	addu	v0,v1,a2
    9c0c:	3c058080 	lui	a1,0x8080
    9c10:	00031827 	nor	v1,zero,v1
    9c14:	00431024 	and	v0,v0,v1
    9c18:	34a58080 	ori	a1,a1,0x8080
    9c1c:	00451024 	and	v0,v0,a1
    9c20:	5440000a 	bnezl	v0,0x9c4c
    9c24:	90820000 	lbu	v0,0(a0)
    9c28:	24840004 	addiu	a0,a0,4
    9c2c:	8c830000 	lw	v1,0(a0)
    9c30:	00661021 	addu	v0,v1,a2
    9c34:	00031827 	nor	v1,zero,v1
    9c38:	00431024 	and	v0,v0,v1
    9c3c:	00451024 	and	v0,v0,a1
    9c40:	5040fffa 	beqzl	v0,0x9c2c
    9c44:	24840004 	addiu	a0,a0,4
    9c48:	90820000 	lbu	v0,0(a0)
    9c4c:	10400005 	beqz	v0,0x9c64
    9c50:	00000000 	nop
    9c54:	24840001 	addiu	a0,a0,1
    9c58:	90820000 	lbu	v0,0(a0)
    9c5c:	5440fffe 	bnezl	v0,0x9c58
    9c60:	24840001 	addiu	a0,a0,1
    9c64:	03e00008 	jr	ra
    9c68:	00801021 	move	v0,a0
    9c6c:	50400035 	beqzl	v0,0x9d44
    9c70:	00001021 	move	v0,zero
    9c74:	1046fffb 	beq	v0,a2,0x9c64
    9c78:	00000000 	nop
    9c7c:	24840001 	addiu	a0,a0,1
    9c80:	30820003 	andi	v0,a0,0x3
    9c84:	5440fff9 	bnezl	v0,0x9c6c
    9c88:	90820000 	lbu	v0,0(a0)
    9c8c:	30a500ff 	andi	a1,a1,0xff
    9c90:	00051200 	sll	v0,a1,0x8
    9c94:	00a22825 	or	a1,a1,v0
    9c98:	8c830000 	lw	v1,0(a0)
    9c9c:	00055400 	sll	t2,a1,0x10
    9ca0:	01455025 	or	t2,t2,a1
    9ca4:	3c08fefe 	lui	t0,0xfefe
    9ca8:	01432826 	xor	a1,t2,v1
    9cac:	3508feff 	ori	t0,t0,0xfeff
    9cb0:	00031027 	nor	v0,zero,v1
    9cb4:	00053827 	nor	a3,zero,a1
    9cb8:	00681821 	addu	v1,v1,t0
    9cbc:	00a82821 	addu	a1,a1,t0
    9cc0:	00431024 	and	v0,v0,v1
    9cc4:	00e52824 	and	a1,a3,a1
    9cc8:	3c098080 	lui	t1,0x8080
    9ccc:	00451025 	or	v0,v0,a1
    9cd0:	35298080 	ori	t1,t1,0x8080
    9cd4:	00491024 	and	v0,v0,t1
    9cd8:	5440000f 	bnezl	v0,0x9d18
    9cdc:	90820000 	lbu	v0,0(a0)
    9ce0:	24840004 	addiu	a0,a0,4
    9ce4:	8c830000 	lw	v1,0(a0)
    9ce8:	006a2826 	xor	a1,v1,t2
    9cec:	00681021 	addu	v0,v1,t0
    9cf0:	00a83821 	addu	a3,a1,t0
    9cf4:	00031827 	nor	v1,zero,v1
    9cf8:	00052827 	nor	a1,zero,a1
    9cfc:	00431024 	and	v0,v0,v1
    9d00:	00e52824 	and	a1,a3,a1
    9d04:	00451025 	or	v0,v0,a1
    9d08:	00491024 	and	v0,v0,t1
    9d0c:	5040fff5 	beqzl	v0,0x9ce4
    9d10:	24840004 	addiu	a0,a0,4
    9d14:	90820000 	lbu	v0,0(a0)
    9d18:	14400006 	bnez	v0,0x9d34
    9d1c:	00000000 	nop
    9d20:	03e00008 	jr	ra
    9d24:	00001021 	move	v0,zero
    9d28:	90820000 	lbu	v0,0(a0)
    9d2c:	50400005 	beqzl	v0,0x9d44
    9d30:	00001021 	move	v0,zero
    9d34:	54c2fffc 	bnel	a2,v0,0x9d28
    9d38:	24840001 	addiu	a0,a0,1
    9d3c:	1000ffc9 	b	0x9c64
    9d40:	00000000 	nop
    9d44:	03e00008 	jr	ra
    9d48:	00000000 	nop
    9d4c:	00e04821 	move	t1,a3
    9d50:	00c04021 	move	t0,a2
    9d54:	00805021 	move	t2,a0
    9d58:	14e00099 	bnez	a3,0x9fc0
    9d5c:	00a01821 	move	v1,a1
    9d60:	00a6102b 	sltu	v0,a1,a2
    9d64:	10400049 	beqz	v0,0x9e8c
    9d68:	3c020001 	lui	v0,0x1
    9d6c:	00c2102b 	sltu	v0,a2,v0
    9d70:	104000bd 	beqz	v0,0xa068
    9d74:	3c020100 	lui	v0,0x100
    9d78:	2cc70100 	sltiu	a3,a2,256
    9d7c:	14e00003 	bnez	a3,0x9d8c
    9d80:	00c01021 	move	v0,a2
    9d84:	00061202 	srl	v0,a2,0x8
    9d88:	24090008 	li	t1,8
    9d8c:	3c070001 	lui	a3,0x1
    9d90:	24e7c1f8 	addiu	a3,a3,-15880
    9d94:	00471021 	addu	v0,v0,a3
    9d98:	90420000 	lbu	v0,0(v0)
    9d9c:	00494821 	addu	t1,v0,t1
    9da0:	24020020 	li	v0,32
    9da4:	00491023 	subu	v0,v0,t1
    9da8:	10400007 	beqz	v0,0x9dc8
    9dac:	00083c02 	srl	a3,t0,0x10
    9db0:	00452804 	sllv	a1,a1,v0
    9db4:	01244806 	srlv	t1,a0,t1
    9db8:	00464004 	sllv	t0,a2,v0
    9dbc:	01251825 	or	v1,t1,a1
    9dc0:	00445004 	sllv	t2,a0,v0
    9dc4:	00083c02 	srl	a3,t0,0x10
    9dc8:	14e00002 	bnez	a3,0x9dd4
    9dcc:	0067001b 	divu	zero,v1,a3
    9dd0:	000001cd 	break	0x7
    9dd4:	3109ffff 	andi	t1,t0,0xffff
    9dd8:	000a1c02 	srl	v1,t2,0x10
    9ddc:	00002812 	mflo	a1
    9de0:	00003010 	mfhi	a2
    9de4:	00063400 	sll	a2,a2,0x10
    9de8:	00c31825 	or	v1,a2,v1
    9dec:	00001012 	mflo	v0
    9df0:	01250018 	mult	t1,a1
    9df4:	00005812 	mflo	t3
    9df8:	006b202b 	sltu	a0,v1,t3
    9dfc:	50800009 	beqzl	a0,0x9e24
    9e00:	006b1823 	subu	v1,v1,t3
    9e04:	00681821 	addu	v1,v1,t0
    9e08:	0068202b 	sltu	a0,v1,t0
    9e0c:	14800004 	bnez	a0,0x9e20
    9e10:	24a2ffff 	addiu	v0,a1,-1
    9e14:	006b202b 	sltu	a0,v1,t3
    9e18:	54800128 	bnezl	a0,0xa2bc
    9e1c:	24a2fffe 	addiu	v0,a1,-2
    9e20:	006b1823 	subu	v1,v1,t3
    9e24:	14e00002 	bnez	a3,0x9e30
    9e28:	0067001b 	divu	zero,v1,a3
    9e2c:	000001cd 	break	0x7
    9e30:	314affff 	andi	t2,t2,0xffff
    9e34:	00001812 	mflo	v1
    9e38:	00003810 	mfhi	a3
    9e3c:	00073c00 	sll	a3,a3,0x10
    9e40:	00ea3825 	or	a3,a3,t2
    9e44:	00002812 	mflo	a1
    9e48:	01230018 	mult	t1,v1
    9e4c:	00004812 	mflo	t1
    9e50:	00e9202b 	sltu	a0,a3,t1
    9e54:	50800009 	beqzl	a0,0x9e7c
    9e58:	00021400 	sll	v0,v0,0x10
    9e5c:	01073821 	addu	a3,t0,a3
    9e60:	00e8202b 	sltu	a0,a3,t0
    9e64:	14800004 	bnez	a0,0x9e78
    9e68:	2465ffff 	addiu	a1,v1,-1
    9e6c:	00e9382b 	sltu	a3,a3,t1
    9e70:	2463fffe 	addiu	v1,v1,-2
    9e74:	0067280b 	movn	a1,v1,a3
    9e78:	00021400 	sll	v0,v0,0x10
    9e7c:	00451025 	or	v0,v0,a1
    9e80:	00001821 	move	v1,zero
    9e84:	03e00008 	jr	ra
    9e88:	00000000 	nop
    9e8c:	14c00008 	bnez	a2,0x9eb0
    9e90:	0102102b 	sltu	v0,t0,v0
    9e94:	24020001 	li	v0,1
    9e98:	14c00002 	bnez	a2,0x9ea4
    9e9c:	0046001b 	divu	zero,v0,a2
    9ea0:	000001cd 	break	0x7
    9ea4:	00004012 	mflo	t0
    9ea8:	3c020001 	lui	v0,0x1
    9eac:	0102102b 	sltu	v0,t0,v0
    9eb0:	14400068 	bnez	v0,0xa054
    9eb4:	2d030100 	sltiu	v1,t0,256
    9eb8:	3c020100 	lui	v0,0x100
    9ebc:	0102102b 	sltu	v0,t0,v0
    9ec0:	144000f7 	bnez	v0,0xa2a0
    9ec4:	00081402 	srl	v0,t0,0x10
    9ec8:	00081602 	srl	v0,t0,0x18
    9ecc:	24090018 	li	t1,24
    9ed0:	3c030001 	lui	v1,0x1
    9ed4:	2463c1f8 	addiu	v1,v1,-15880
    9ed8:	00431021 	addu	v0,v0,v1
    9edc:	90420000 	lbu	v0,0(v0)
    9ee0:	24030020 	li	v1,32
    9ee4:	00494821 	addu	t1,v0,t1
    9ee8:	00691823 	subu	v1,v1,t1
    9eec:	54600064 	bnezl	v1,0xa080
    9ef0:	00684004 	sllv	t0,t0,v1
    9ef4:	00a84823 	subu	t1,a1,t0
    9ef8:	00085c02 	srl	t3,t0,0x10
    9efc:	310cffff 	andi	t4,t0,0xffff
    9f00:	24030001 	li	v1,1
    9f04:	15600002 	bnez	t3,0x9f10
    9f08:	012b001b 	divu	zero,t1,t3
    9f0c:	000001cd 	break	0x7
    9f10:	000a3402 	srl	a2,t2,0x10
    9f14:	00002812 	mflo	a1
    9f18:	00004810 	mfhi	t1
    9f1c:	00094c00 	sll	t1,t1,0x10
    9f20:	01263025 	or	a2,t1,a2
    9f24:	00001012 	mflo	v0
    9f28:	00ac0018 	mult	a1,t4
    9f2c:	00002012 	mflo	a0
    9f30:	00c4382b 	sltu	a3,a2,a0
    9f34:	50e00009 	beqzl	a3,0x9f5c
    9f38:	00c43023 	subu	a2,a2,a0
    9f3c:	00c83021 	addu	a2,a2,t0
    9f40:	00c8382b 	sltu	a3,a2,t0
    9f44:	14e00004 	bnez	a3,0x9f58
    9f48:	24a2ffff 	addiu	v0,a1,-1
    9f4c:	00c4382b 	sltu	a3,a2,a0
    9f50:	54e000dc 	bnezl	a3,0xa2c4
    9f54:	24a2fffe 	addiu	v0,a1,-2
    9f58:	00c43023 	subu	a2,a2,a0
    9f5c:	15600002 	bnez	t3,0x9f68
    9f60:	00cb001b 	divu	zero,a2,t3
    9f64:	000001cd 	break	0x7
    9f68:	3147ffff 	andi	a3,t2,0xffff
    9f6c:	00003012 	mflo	a2
    9f70:	00002010 	mfhi	a0
    9f74:	00042400 	sll	a0,a0,0x10
    9f78:	00872025 	or	a0,a0,a3
    9f7c:	00004812 	mflo	t1
    9f80:	00cc0018 	mult	a2,t4
    9f84:	00006012 	mflo	t4
    9f88:	008c282b 	sltu	a1,a0,t4
    9f8c:	50a00009 	beqzl	a1,0x9fb4
    9f90:	00021400 	sll	v0,v0,0x10
    9f94:	01042821 	addu	a1,t0,a0
    9f98:	00a8202b 	sltu	a0,a1,t0
    9f9c:	14800004 	bnez	a0,0x9fb0
    9fa0:	24c9ffff 	addiu	t1,a2,-1
    9fa4:	00ac602b 	sltu	t4,a1,t4
    9fa8:	24c6fffe 	addiu	a2,a2,-2
    9fac:	00cc480b 	movn	t1,a2,t4
    9fb0:	00021400 	sll	v0,v0,0x10
    9fb4:	00491025 	or	v0,v0,t1
    9fb8:	03e00008 	jr	ra
    9fbc:	00000000 	nop
    9fc0:	00a7102b 	sltu	v0,a1,a3
    9fc4:	1440001b 	bnez	v0,0xa034
    9fc8:	00001821 	move	v1,zero
    9fcc:	3c020001 	lui	v0,0x1
    9fd0:	00e2102b 	sltu	v0,a3,v0
    9fd4:	1440001a 	bnez	v0,0xa040
    9fd8:	2ce20100 	sltiu	v0,a3,256
    9fdc:	3c020100 	lui	v0,0x100
    9fe0:	00e2102b 	sltu	v0,a3,v0
    9fe4:	144000aa 	bnez	v0,0xa290
    9fe8:	00074402 	srl	t0,a3,0x10
    9fec:	00074602 	srl	t0,a3,0x18
    9ff0:	24090018 	li	t1,24
    9ff4:	3c030001 	lui	v1,0x1
    9ff8:	2463c1f8 	addiu	v1,v1,-15880
    9ffc:	01031821 	addu	v1,t0,v1
    a000:	90620000 	lbu	v0,0(v1)
    a004:	24030020 	li	v1,32
    a008:	00491021 	addu	v0,v0,t1
    a00c:	00625823 	subu	t3,v1,v0
    a010:	15600055 	bnez	t3,0xa168
    a014:	00461806 	srlv	v1,a2,v0
    a018:	00e5282b 	sltu	a1,a3,a1
    a01c:	14a000a2 	bnez	a1,0xa2a8
    a020:	00001821 	move	v1,zero
    a024:	0086102b 	sltu	v0,a0,a2
    a028:	38420001 	xori	v0,v0,0x1
    a02c:	03e00008 	jr	ra
    a030:	00000000 	nop
    a034:	00001021 	move	v0,zero
    a038:	03e00008 	jr	ra
    a03c:	00000000 	nop
    a040:	5440009c 	bnezl	v0,0xa2b4
    a044:	00e04021 	move	t0,a3
    a048:	00074202 	srl	t0,a3,0x8
    a04c:	1000ffe9 	b	0x9ff4
    a050:	24090008 	li	t1,8
    a054:	1460ff9e 	bnez	v1,0x9ed0
    a058:	01001021 	move	v0,t0
    a05c:	00081202 	srl	v0,t0,0x8
    a060:	1000ff9b 	b	0x9ed0
    a064:	24090008 	li	t1,8
    a068:	00c2102b 	sltu	v0,a2,v0
    a06c:	5440008a 	bnezl	v0,0xa298
    a070:	00061402 	srl	v0,a2,0x10
    a074:	00061602 	srl	v0,a2,0x18
    a078:	1000ff44 	b	0x9d8c
    a07c:	24090018 	li	t1,24
    a080:	01253006 	srlv	a2,a1,t1
    a084:	00085c02 	srl	t3,t0,0x10
    a088:	15600002 	bnez	t3,0xa094
    a08c:	00cb001b 	divu	zero,a2,t3
    a090:	000001cd 	break	0x7
    a094:	310cffff 	andi	t4,t0,0xffff
    a098:	00652804 	sllv	a1,a1,v1
    a09c:	00645004 	sllv	t2,a0,v1
    a0a0:	01244806 	srlv	t1,a0,t1
    a0a4:	01252825 	or	a1,t1,a1
    a0a8:	00051402 	srl	v0,a1,0x10
    a0ac:	00006812 	mflo	t5
    a0b0:	00003010 	mfhi	a2
    a0b4:	00063400 	sll	a2,a2,0x10
    a0b8:	00c21025 	or	v0,a2,v0
    a0bc:	00001812 	mflo	v1
    a0c0:	018d0018 	mult	t4,t5
    a0c4:	00004812 	mflo	t1
    a0c8:	0049202b 	sltu	a0,v0,t1
    a0cc:	5080000b 	beqzl	a0,0xa0fc
    a0d0:	00491023 	subu	v0,v0,t1
    a0d4:	00481021 	addu	v0,v0,t0
    a0d8:	0048202b 	sltu	a0,v0,t0
    a0dc:	14800006 	bnez	a0,0xa0f8
    a0e0:	25a3ffff 	addiu	v1,t5,-1
    a0e4:	0049202b 	sltu	a0,v0,t1
    a0e8:	50800004 	beqzl	a0,0xa0fc
    a0ec:	00491023 	subu	v0,v0,t1
    a0f0:	25a3fffe 	addiu	v1,t5,-2
    a0f4:	00481021 	addu	v0,v0,t0
    a0f8:	00491023 	subu	v0,v0,t1
    a0fc:	15600002 	bnez	t3,0xa108
    a100:	004b001b 	divu	zero,v0,t3
    a104:	000001cd 	break	0x7
    a108:	30a5ffff 	andi	a1,a1,0xffff
    a10c:	00002012 	mflo	a0
    a110:	00001010 	mfhi	v0
    a114:	00024c00 	sll	t1,v0,0x10
    a118:	01254825 	or	t1,t1,a1
    a11c:	00003812 	mflo	a3
    a120:	01840018 	mult	t4,a0
    a124:	00003012 	mflo	a2
    a128:	0126102b 	sltu	v0,t1,a2
    a12c:	5040000b 	beqzl	v0,0xa15c
    a130:	00031c00 	sll	v1,v1,0x10
    a134:	01284821 	addu	t1,t1,t0
    a138:	0128102b 	sltu	v0,t1,t0
    a13c:	14400006 	bnez	v0,0xa158
    a140:	2487ffff 	addiu	a3,a0,-1
    a144:	0126102b 	sltu	v0,t1,a2
    a148:	50400004 	beqzl	v0,0xa15c
    a14c:	00031c00 	sll	v1,v1,0x10
    a150:	2487fffe 	addiu	a3,a0,-2
    a154:	01284821 	addu	t1,t1,t0
    a158:	00031c00 	sll	v1,v1,0x10
    a15c:	01264823 	subu	t1,t1,a2
    a160:	1000ff68 	b	0x9f04
    a164:	00671825 	or	v1,v1,a3
    a168:	01673804 	sllv	a3,a3,t3
    a16c:	00673825 	or	a3,v1,a3
    a170:	00455006 	srlv	t2,a1,v0
    a174:	00074402 	srl	t0,a3,0x10
    a178:	15000002 	bnez	t0,0xa184
    a17c:	0148001b 	divu	zero,t2,t0
    a180:	000001cd 	break	0x7
    a184:	30ecffff 	andi	t4,a3,0xffff
    a188:	00441006 	srlv	v0,a0,v0
    a18c:	01652804 	sllv	a1,a1,t3
    a190:	00452825 	or	a1,v0,a1
    a194:	00054c02 	srl	t1,a1,0x10
    a198:	00006812 	mflo	t5
    a19c:	00005010 	mfhi	t2
    a1a0:	000a5400 	sll	t2,t2,0x10
    a1a4:	01494825 	or	t1,t2,t1
    a1a8:	00001812 	mflo	v1
    a1ac:	018d0018 	mult	t4,t5
    a1b0:	00001012 	mflo	v0
    a1b4:	0122502b 	sltu	t2,t1,v0
    a1b8:	1140000a 	beqz	t2,0xa1e4
    a1bc:	01663004 	sllv	a2,a2,t3
    a1c0:	01274821 	addu	t1,t1,a3
    a1c4:	0127502b 	sltu	t2,t1,a3
    a1c8:	15400006 	bnez	t2,0xa1e4
    a1cc:	25a3ffff 	addiu	v1,t5,-1
    a1d0:	0122502b 	sltu	t2,t1,v0
    a1d4:	51400004 	beqzl	t2,0xa1e8
    a1d8:	01224823 	subu	t1,t1,v0
    a1dc:	25a3fffe 	addiu	v1,t5,-2
    a1e0:	01274821 	addu	t1,t1,a3
    a1e4:	01224823 	subu	t1,t1,v0
    a1e8:	15000002 	bnez	t0,0xa1f4
    a1ec:	0128001b 	divu	zero,t1,t0
    a1f0:	000001cd 	break	0x7
    a1f4:	30a5ffff 	andi	a1,a1,0xffff
    a1f8:	00004012 	mflo	t0
    a1fc:	00004810 	mfhi	t1
    a200:	00094c00 	sll	t1,t1,0x10
    a204:	01252825 	or	a1,t1,a1
    a208:	00006812 	mflo	t5
    a20c:	01880018 	mult	t4,t0
    a210:	00006012 	mflo	t4
    a214:	00ac102b 	sltu	v0,a1,t4
    a218:	1040000b 	beqz	v0,0xa248
    a21c:	00031400 	sll	v0,v1,0x10
    a220:	00a72821 	addu	a1,a1,a3
    a224:	00a7102b 	sltu	v0,a1,a3
    a228:	14400006 	bnez	v0,0xa244
    a22c:	250dffff 	addiu	t5,t0,-1
    a230:	00ac102b 	sltu	v0,a1,t4
    a234:	10400004 	beqz	v0,0xa248
    a238:	00031400 	sll	v0,v1,0x10
    a23c:	250dfffe 	addiu	t5,t0,-2
    a240:	00a72821 	addu	a1,a1,a3
    a244:	00031400 	sll	v0,v1,0x10
    a248:	004d1025 	or	v0,v0,t5
    a24c:	00460019 	multu	v0,a2
    a250:	00ac2823 	subu	a1,a1,t4
    a254:	00003810 	mfhi	a3
    a258:	00a7182b 	sltu	v1,a1,a3
    a25c:	14600009 	bnez	v1,0xa284
    a260:	00003012 	mflo	a2
    a264:	10a70003 	beq	a1,a3,0xa274
    a268:	00001821 	move	v1,zero
    a26c:	03e00008 	jr	ra
    a270:	00000000 	nop
    a274:	01641804 	sllv	v1,a0,t3
    a278:	0066182b 	sltu	v1,v1,a2
    a27c:	1060ff01 	beqz	v1,0x9e84
    a280:	00000000 	nop
    a284:	2442ffff 	addiu	v0,v0,-1
    a288:	1000fff8 	b	0xa26c
    a28c:	00001821 	move	v1,zero
    a290:	1000ff58 	b	0x9ff4
    a294:	24090010 	li	t1,16
    a298:	1000febc 	b	0x9d8c
    a29c:	24090010 	li	t1,16
    a2a0:	1000ff0b 	b	0x9ed0
    a2a4:	24090010 	li	t1,16
    a2a8:	24020001 	li	v0,1
    a2ac:	03e00008 	jr	ra
    a2b0:	00000000 	nop
    a2b4:	1000ff4f 	b	0x9ff4
    a2b8:	00004821 	move	t1,zero
    a2bc:	1000fed8 	b	0x9e20
    a2c0:	00681821 	addu	v1,v1,t0
    a2c4:	1000ff24 	b	0x9f58
    a2c8:	00c83021 	addu	a2,a2,t0
    a2cc:	00e01021 	move	v0,a3
    a2d0:	00c05021 	move	t2,a2
    a2d4:	00805821 	move	t3,a0
    a2d8:	00a01821 	move	v1,a1
    a2dc:	14e0008f 	bnez	a3,0xa51c
    a2e0:	00a04021 	move	t0,a1
    a2e4:	00a6182b 	sltu	v1,a1,a2
    a2e8:	10600041 	beqz	v1,0xa3f0
    a2ec:	3c030001 	lui	v1,0x1
    a2f0:	00c3182b 	sltu	v1,a2,v1
    a2f4:	146000b5 	bnez	v1,0xa5cc
    a2f8:	2cc70100 	sltiu	a3,a2,256
    a2fc:	3c020100 	lui	v0,0x100
    a300:	00c2102b 	sltu	v0,a2,v0
    a304:	1440013e 	bnez	v0,0xa800
    a308:	00061c02 	srl	v1,a2,0x10
    a30c:	00061e02 	srl	v1,a2,0x18
    a310:	24020018 	li	v0,24
    a314:	3c070001 	lui	a3,0x1
    a318:	24e7c1f8 	addiu	a3,a3,-15880
    a31c:	00671821 	addu	v1,v1,a3
    a320:	90630000 	lbu	v1,0(v1)
    a324:	00621821 	addu	v1,v1,v0
    a328:	24020020 	li	v0,32
    a32c:	00434823 	subu	t1,v0,v1
    a330:	51200007 	beqzl	t1,0xa350
    a334:	000a3402 	srl	a2,t2,0x10
    a338:	01254004 	sllv	t0,a1,t1
    a33c:	00641006 	srlv	v0,a0,v1
    a340:	01265004 	sllv	t2,a2,t1
    a344:	00484025 	or	t0,v0,t0
    a348:	01245804 	sllv	t3,a0,t1
    a34c:	000a3402 	srl	a2,t2,0x10
    a350:	14c00002 	bnez	a2,0xa35c
    a354:	0106001b 	divu	zero,t0,a2
    a358:	000001cd 	break	0x7
    a35c:	3144ffff 	andi	a0,t2,0xffff
    a360:	000b3c02 	srl	a3,t3,0x10
    a364:	00002812 	mflo	a1
    a368:	00004010 	mfhi	t0
    a36c:	00084400 	sll	t0,t0,0x10
    a370:	01073825 	or	a3,t0,a3
    a374:	00a40018 	mult	a1,a0
    a378:	00002812 	mflo	a1
    a37c:	00e5102b 	sltu	v0,a3,a1
    a380:	50400009 	beqzl	v0,0xa3a8
    a384:	00e52823 	subu	a1,a3,a1
    a388:	00ea3821 	addu	a3,a3,t2
    a38c:	00ea102b 	sltu	v0,a3,t2
    a390:	54400005 	bnezl	v0,0xa3a8
    a394:	00e52823 	subu	a1,a3,a1
    a398:	00e5182b 	sltu	v1,a3,a1
    a39c:	00ea1021 	addu	v0,a3,t2
    a3a0:	0043380b 	movn	a3,v0,v1
    a3a4:	00e52823 	subu	a1,a3,a1
    a3a8:	14c00002 	bnez	a2,0xa3b4
    a3ac:	00a6001b 	divu	zero,a1,a2
    a3b0:	000001cd 	break	0x7
    a3b4:	3163ffff 	andi	v1,t3,0xffff
    a3b8:	00001012 	mflo	v0
    a3bc:	00002810 	mfhi	a1
    a3c0:	00052c00 	sll	a1,a1,0x10
    a3c4:	00a31825 	or	v1,a1,v1
    a3c8:	00440018 	mult	v0,a0
    a3cc:	00001012 	mflo	v0
    a3d0:	0062202b 	sltu	a0,v1,v0
    a3d4:	54800046 	bnezl	a0,0xa4f0
    a3d8:	006a1821 	addu	v1,v1,t2
    a3dc:	00621023 	subu	v0,v1,v0
    a3e0:	01221006 	srlv	v0,v0,t1
    a3e4:	00001821 	move	v1,zero
    a3e8:	03e00008 	jr	ra
    a3ec:	00000000 	nop
    a3f0:	14c00008 	bnez	a2,0xa414
    a3f4:	0143182b 	sltu	v1,t2,v1
    a3f8:	24030001 	li	v1,1
    a3fc:	14c00002 	bnez	a2,0xa408
    a400:	0066001b 	divu	zero,v1,a2
    a404:	000001cd 	break	0x7
    a408:	00005012 	mflo	t2
    a40c:	3c030001 	lui	v1,0x1
    a410:	0143182b 	sltu	v1,t2,v1
    a414:	14600068 	bnez	v1,0xa5b8
    a418:	2d460100 	sltiu	a2,t2,256
    a41c:	3c020100 	lui	v0,0x100
    a420:	0142102b 	sltu	v0,t2,v0
    a424:	144000f2 	bnez	v0,0xa7f0
    a428:	000a1c02 	srl	v1,t2,0x10
    a42c:	000a1e02 	srl	v1,t2,0x18
    a430:	24020018 	li	v0,24
    a434:	3c060001 	lui	a2,0x1
    a438:	24c6c1f8 	addiu	a2,a2,-15880
    a43c:	00661821 	addu	v1,v1,a2
    a440:	90680000 	lbu	t0,0(v1)
    a444:	01024021 	addu	t0,t0,v0
    a448:	24020020 	li	v0,32
    a44c:	00484823 	subu	t1,v0,t0
    a450:	55200063 	bnezl	t1,0xa5e0
    a454:	012a5004 	sllv	t2,t2,t1
    a458:	00aa3823 	subu	a3,a1,t2
    a45c:	000a1402 	srl	v0,t2,0x10
    a460:	3143ffff 	andi	v1,t2,0xffff
    a464:	14400002 	bnez	v0,0xa470
    a468:	00e2001b 	divu	zero,a3,v0
    a46c:	000001cd 	break	0x7
    a470:	000b3402 	srl	a2,t3,0x10
    a474:	00002812 	mflo	a1
    a478:	00003810 	mfhi	a3
    a47c:	00073c00 	sll	a3,a3,0x10
    a480:	00e63025 	or	a2,a3,a2
    a484:	00a30018 	mult	a1,v1
    a488:	00004012 	mflo	t0
    a48c:	00c8202b 	sltu	a0,a2,t0
    a490:	50800009 	beqzl	a0,0xa4b8
    a494:	00c83023 	subu	a2,a2,t0
    a498:	00ca3021 	addu	a2,a2,t2
    a49c:	00ca202b 	sltu	a0,a2,t2
    a4a0:	54800005 	bnezl	a0,0xa4b8
    a4a4:	00c83023 	subu	a2,a2,t0
    a4a8:	00c8282b 	sltu	a1,a2,t0
    a4ac:	00ca2021 	addu	a0,a2,t2
    a4b0:	0085300b 	movn	a2,a0,a1
    a4b4:	00c83023 	subu	a2,a2,t0
    a4b8:	14400002 	bnez	v0,0xa4c4
    a4bc:	00c2001b 	divu	zero,a2,v0
    a4c0:	000001cd 	break	0x7
    a4c4:	316bffff 	andi	t3,t3,0xffff
    a4c8:	00001012 	mflo	v0
    a4cc:	00003010 	mfhi	a2
    a4d0:	00430018 	mult	v0,v1
    a4d4:	00061c00 	sll	v1,a2,0x10
    a4d8:	006b1825 	or	v1,v1,t3
    a4dc:	00001012 	mflo	v0
    a4e0:	0062202b 	sltu	a0,v1,v0
    a4e4:	50800009 	beqzl	a0,0xa50c
    a4e8:	00621023 	subu	v0,v1,v0
    a4ec:	006a1821 	addu	v1,v1,t2
    a4f0:	006a202b 	sltu	a0,v1,t2
    a4f4:	54800005 	bnezl	a0,0xa50c
    a4f8:	00621023 	subu	v0,v1,v0
    a4fc:	0062202b 	sltu	a0,v1,v0
    a500:	006a2821 	addu	a1,v1,t2
    a504:	00a4180b 	movn	v1,a1,a0
    a508:	00621023 	subu	v0,v1,v0
    a50c:	01221006 	srlv	v0,v0,t1
    a510:	00001821 	move	v1,zero
    a514:	03e00008 	jr	ra
    a518:	00000000 	nop
    a51c:	00a7402b 	sltu	t0,a1,a3
    a520:	1500ffb1 	bnez	t0,0xa3e8
    a524:	00801021 	move	v0,a0
    a528:	3c080001 	lui	t0,0x1
    a52c:	00e8402b 	sltu	t0,a3,t0
    a530:	1500001c 	bnez	t0,0xa5a4
    a534:	2ce80100 	sltiu	t0,a3,256
    a538:	3c080100 	lui	t0,0x100
    a53c:	00e8402b 	sltu	t0,a3,t0
    a540:	150000ad 	bnez	t0,0xa7f8
    a544:	00074c02 	srl	t1,a3,0x10
    a548:	00074e02 	srl	t1,a3,0x18
    a54c:	240a0018 	li	t2,24
    a550:	3c080001 	lui	t0,0x1
    a554:	2508c1f8 	addiu	t0,t0,-15880
    a558:	01284021 	addu	t0,t1,t0
    a55c:	910c0000 	lbu	t4,0(t0)
    a560:	240b0020 	li	t3,32
    a564:	018a6021 	addu	t4,t4,t2
    a568:	016c5823 	subu	t3,t3,t4
    a56c:	5560004b 	bnezl	t3,0xa69c
    a570:	01673804 	sllv	a3,a3,t3
    a574:	00e5402b 	sltu	t0,a3,a1
    a578:	55000005 	bnezl	t0,0xa590
    a57c:	00861023 	subu	v0,a0,a2
    a580:	0086402b 	sltu	t0,a0,a2
    a584:	1500ff98 	bnez	t0,0xa3e8
    a588:	00000000 	nop
    a58c:	00861023 	subu	v0,a0,a2
    a590:	00a71823 	subu	v1,a1,a3
    a594:	0082202b 	sltu	a0,a0,v0
    a598:	00641823 	subu	v1,v1,a0
    a59c:	03e00008 	jr	ra
    a5a0:	00000000 	nop
    a5a4:	55000098 	bnezl	t0,0xa808
    a5a8:	00e04821 	move	t1,a3
    a5ac:	00074a02 	srl	t1,a3,0x8
    a5b0:	1000ffe7 	b	0xa550
    a5b4:	240a0008 	li	t2,8
    a5b8:	14c0ff9e 	bnez	a2,0xa434
    a5bc:	01401821 	move	v1,t2
    a5c0:	000a1a02 	srl	v1,t2,0x8
    a5c4:	1000ff9b 	b	0xa434
    a5c8:	24020008 	li	v0,8
    a5cc:	14e0ff51 	bnez	a3,0xa314
    a5d0:	00c01821 	move	v1,a2
    a5d4:	00061a02 	srl	v1,a2,0x8
    a5d8:	1000ff4e 	b	0xa314
    a5dc:	24020008 	li	v0,8
    a5e0:	01053006 	srlv	a2,a1,t0
    a5e4:	000a1402 	srl	v0,t2,0x10
    a5e8:	14400002 	bnez	v0,0xa5f4
    a5ec:	00c2001b 	divu	zero,a2,v0
    a5f0:	000001cd 	break	0x7
    a5f4:	3143ffff 	andi	v1,t2,0xffff
    a5f8:	01252804 	sllv	a1,a1,t1
    a5fc:	01044006 	srlv	t0,a0,t0
    a600:	01054025 	or	t0,t0,a1
    a604:	00082c02 	srl	a1,t0,0x10
    a608:	01245804 	sllv	t3,a0,t1
    a60c:	00003812 	mflo	a3
    a610:	00003010 	mfhi	a2
    a614:	00063400 	sll	a2,a2,0x10
    a618:	00c52025 	or	a0,a2,a1
    a61c:	00e30018 	mult	a3,v1
    a620:	00003812 	mflo	a3
    a624:	0087282b 	sltu	a1,a0,a3
    a628:	50a00006 	beqzl	a1,0xa644
    a62c:	00872023 	subu	a0,a0,a3
    a630:	008a2021 	addu	a0,a0,t2
    a634:	008a282b 	sltu	a1,a0,t2
    a638:	10a00075 	beqz	a1,0xa810
    a63c:	0087302b 	sltu	a2,a0,a3
    a640:	00872023 	subu	a0,a0,a3
    a644:	14400002 	bnez	v0,0xa650
    a648:	0082001b 	divu	zero,a0,v0
    a64c:	000001cd 	break	0x7
    a650:	3108ffff 	andi	t0,t0,0xffff
    a654:	00003812 	mflo	a3
    a658:	00002010 	mfhi	a0
    a65c:	00e30018 	mult	a3,v1
    a660:	00043c00 	sll	a3,a0,0x10
    a664:	00e83825 	or	a3,a3,t0
    a668:	00002812 	mflo	a1
    a66c:	00e5202b 	sltu	a0,a3,a1
    a670:	5080ff7c 	beqzl	a0,0xa464
    a674:	00e53823 	subu	a3,a3,a1
    a678:	00ea3821 	addu	a3,a3,t2
    a67c:	00ea202b 	sltu	a0,a3,t2
    a680:	5480ff78 	bnezl	a0,0xa464
    a684:	00e53823 	subu	a3,a3,a1
    a688:	00e5302b 	sltu	a2,a3,a1
    a68c:	00ea2021 	addu	a0,a3,t2
    a690:	0086380b 	movn	a3,a0,a2
    a694:	1000ff73 	b	0xa464
    a698:	00e53823 	subu	a3,a3,a1
    a69c:	01867806 	srlv	t7,a2,t4
    a6a0:	01e77825 	or	t7,t7,a3
    a6a4:	01855006 	srlv	t2,a1,t4
    a6a8:	000f6c02 	srl	t5,t7,0x10
    a6ac:	15a00002 	bnez	t5,0xa6b8
    a6b0:	014d001b 	divu	zero,t2,t5
    a6b4:	000001cd 	break	0x7
    a6b8:	31e7ffff 	andi	a3,t7,0xffff
    a6bc:	01652804 	sllv	a1,a1,t3
    a6c0:	01844006 	srlv	t0,a0,t4
    a6c4:	01054025 	or	t0,t0,a1
    a6c8:	00084c02 	srl	t1,t0,0x10
    a6cc:	01641004 	sllv	v0,a0,t3
    a6d0:	00001812 	mflo	v1
    a6d4:	00005010 	mfhi	t2
    a6d8:	000a5400 	sll	t2,t2,0x10
    a6dc:	01494825 	or	t1,t2,t1
    a6e0:	00007012 	mflo	t6
    a6e4:	00e30018 	mult	a3,v1
    a6e8:	00002012 	mflo	a0
    a6ec:	0124282b 	sltu	a1,t1,a0
    a6f0:	10a0000a 	beqz	a1,0xa71c
    a6f4:	0166c004 	sllv	t8,a2,t3
    a6f8:	012f4821 	addu	t1,t1,t7
    a6fc:	012f282b 	sltu	a1,t1,t7
    a700:	14a00006 	bnez	a1,0xa71c
    a704:	246effff 	addiu	t6,v1,-1
    a708:	0124282b 	sltu	a1,t1,a0
    a70c:	50a00004 	beqzl	a1,0xa720
    a710:	01244823 	subu	t1,t1,a0
    a714:	246efffe 	addiu	t6,v1,-2
    a718:	012f4821 	addu	t1,t1,t7
    a71c:	01244823 	subu	t1,t1,a0
    a720:	15a00002 	bnez	t5,0xa72c
    a724:	012d001b 	divu	zero,t1,t5
    a728:	000001cd 	break	0x7
    a72c:	3108ffff 	andi	t0,t0,0xffff
    a730:	00004812 	mflo	t1
    a734:	00006810 	mfhi	t5
    a738:	000d6c00 	sll	t5,t5,0x10
    a73c:	00002012 	mflo	a0
    a740:	00e90018 	mult	a3,t1
    a744:	01a83825 	or	a3,t5,t0
    a748:	00001812 	mflo	v1
    a74c:	00e3282b 	sltu	a1,a3,v1
    a750:	50a0000b 	beqzl	a1,0xa780
    a754:	000e4400 	sll	t0,t6,0x10
    a758:	00ef3821 	addu	a3,a3,t7
    a75c:	00ef282b 	sltu	a1,a3,t7
    a760:	14a00006 	bnez	a1,0xa77c
    a764:	2524ffff 	addiu	a0,t1,-1
    a768:	00e3282b 	sltu	a1,a3,v1
    a76c:	10a00004 	beqz	a1,0xa780
    a770:	000e4400 	sll	t0,t6,0x10
    a774:	2524fffe 	addiu	a0,t1,-2
    a778:	00ef3821 	addu	a3,a3,t7
    a77c:	000e4400 	sll	t0,t6,0x10
    a780:	01044025 	or	t0,t0,a0
    a784:	01180019 	multu	t0,t8
    a788:	00e33823 	subu	a3,a3,v1
    a78c:	00004810 	mfhi	t1
    a790:	00e9182b 	sltu	v1,a3,t1
    a794:	01202821 	move	a1,t1
    a798:	00004012 	mflo	t0
    a79c:	1460000f 	bnez	v1,0xa7dc
    a7a0:	00003012 	mflo	a2
    a7a4:	50e9000b 	beql	a3,t1,0xa7d4
    a7a8:	0048182b 	sltu	v1,v0,t0
    a7ac:	00463023 	subu	a2,v0,a2
    a7b0:	00e53823 	subu	a3,a3,a1
    a7b4:	0046282b 	sltu	a1,v0,a2
    a7b8:	00e52823 	subu	a1,a3,a1
    a7bc:	01856004 	sllv	t4,a1,t4
    a7c0:	01661006 	srlv	v0,a2,t3
    a7c4:	01821025 	or	v0,t4,v0
    a7c8:	01651806 	srlv	v1,a1,t3
    a7cc:	03e00008 	jr	ra
    a7d0:	00000000 	nop
    a7d4:	5060fff6 	beqzl	v1,0xa7b0
    a7d8:	00463023 	subu	a2,v0,a2
    a7dc:	01183023 	subu	a2,t0,t8
    a7e0:	012f7823 	subu	t7,t1,t7
    a7e4:	0106402b 	sltu	t0,t0,a2
    a7e8:	1000fff0 	b	0xa7ac
    a7ec:	01e82823 	subu	a1,t7,t0
    a7f0:	1000ff10 	b	0xa434
    a7f4:	24020010 	li	v0,16
    a7f8:	1000ff55 	b	0xa550
    a7fc:	240a0010 	li	t2,16
    a800:	1000fec4 	b	0xa314
    a804:	24020010 	li	v0,16
    a808:	1000ff51 	b	0xa550
    a80c:	00005021 	move	t2,zero
    a810:	008a2821 	addu	a1,a0,t2
    a814:	1000ff8a 	b	0xa640
    a818:	00a6200b 	movn	a0,a1,a2
    a81c:	8c830000 	lw	v1,0(a0)
    a820:	2c620002 	sltiu	v0,v1,2
    a824:	1440006c 	bnez	v0,0xa9d8
    a828:	00000000 	nop
    a82c:	8ca70000 	lw	a3,0(a1)
    a830:	2ce20002 	sltiu	v0,a3,2
    a834:	14400066 	bnez	v0,0xa9d0
    a838:	00a01021 	move	v0,a1
    a83c:	24020004 	li	v0,4
    a840:	10620067 	beq	v1,v0,0xa9e0
    a844:	00000000 	nop
    a848:	10e20061 	beq	a3,v0,0xa9d0
    a84c:	00a01021 	move	v0,a1
    a850:	24020002 	li	v0,2
    a854:	10e2006a 	beq	a3,v0,0xaa00
    a858:	00000000 	nop
    a85c:	1062005c 	beq	v1,v0,0xa9d0
    a860:	00a01021 	move	v0,a1
    a864:	8c8a0008 	lw	t2,8(a0)
    a868:	8ca20008 	lw	v0,8(a1)
    a86c:	8c830010 	lw	v1,16(a0)
    a870:	8c8b0014 	lw	t3,20(a0)
    a874:	01424023 	subu	t0,t2,v0
    a878:	8ca90010 	lw	t1,16(a1)
    a87c:	05000073 	bltz	t0,0xaa4c
    a880:	8ca70014 	lw	a3,20(a1)
    a884:	290c0040 	slti	t4,t0,64
    a888:	51800075 	beqzl	t4,0xaa60
    a88c:	004a402a 	slt	t0,v0,t2
    a890:	11000018 	beqz	t0,0xa8f4
    a894:	2402ffff 	li	v0,-1
    a898:	0008c027 	nor	t8,zero,t0
    a89c:	00026842 	srl	t5,v0,0x1
    a8a0:	030d6806 	srlv	t5,t5,t8
    a8a4:	01026004 	sllv	t4,v0,t0
    a8a8:	310e0020 	andi	t6,t0,0x20
    a8ac:	01801021 	move	v0,t4
    a8b0:	01ac6025 	or	t4,t5,t4
    a8b4:	004e600b 	movn	t4,v0,t6
    a8b8:	000e100b 	movn	v0,zero,t6
    a8bc:	00077840 	sll	t7,a3,0x1
    a8c0:	00021027 	nor	v0,zero,v0
    a8c4:	000c6027 	nor	t4,zero,t4
    a8c8:	01096806 	srlv	t5,t1,t0
    a8cc:	01876024 	and	t4,t4,a3
    a8d0:	00494824 	and	t1,v0,t1
    a8d4:	030f1004 	sllv	v0,t7,t8
    a8d8:	01073806 	srlv	a3,a3,t0
    a8dc:	004d6825 	or	t5,v0,t5
    a8e0:	012c4825 	or	t1,t1,t4
    a8e4:	00ee680b 	movn	t5,a3,t6
    a8e8:	0009482b 	sltu	t1,zero,t1
    a8ec:	01a94825 	or	t1,t5,t1
    a8f0:	000e380b 	movn	a3,zero,t6
    a8f4:	8c840004 	lw	a0,4(a0)
    a8f8:	8ca20004 	lw	v0,4(a1)
    a8fc:	1082005d 	beq	a0,v0,0xaa74
    a900:	00691021 	addu	v0,v1,t1
    a904:	14800074 	bnez	a0,0xaad8
    a908:	01231023 	subu	v0,t1,v1
    a90c:	00691023 	subu	v0,v1,t1
    a910:	0062482b 	sltu	t1,v1,v0
    a914:	01671823 	subu	v1,t3,a3
    a918:	00691823 	subu	v1,v1,t1
    a91c:	0462008e 	bltzl	v1,0xab58
    a920:	00021023 	negu	v0,v0
    a924:	acc00004 	sw	zero,4(a2)
    a928:	acca0008 	sw	t2,8(a2)
    a92c:	acc20010 	sw	v0,16(a2)
    a930:	acc30014 	sw	v1,20(a2)
    a934:	2447ffff 	addiu	a3,v0,-1
    a938:	2465ffff 	addiu	a1,v1,-1
    a93c:	00e2202b 	sltu	a0,a3,v0
    a940:	00852021 	addu	a0,a0,a1
    a944:	3c051000 	lui	a1,0x1000
    a948:	0085402b 	sltu	t0,a0,a1
    a94c:	11000050 	beqz	t0,0xaa90
    a950:	24a5ffff 	addiu	a1,a1,-1
    a954:	50850089 	beql	a0,a1,0xab7c
    a958:	2ce7ffff 	sltiu	a3,a3,-1
    a95c:	8cc70008 	lw	a3,8(a2)
    a960:	3c0a1000 	lui	t2,0x1000
    a964:	254cffff 	addiu	t4,t2,-1
    a968:	24e7ffff 	addiu	a3,a3,-1
    a96c:	000227c2 	srl	a0,v0,0x1f
    a970:	00032840 	sll	a1,v1,0x1
    a974:	00021040 	sll	v0,v0,0x1
    a978:	00852825 	or	a1,a0,a1
    a97c:	2448ffff 	addiu	t0,v0,-1
    a980:	24a9ffff 	addiu	t1,a1,-1
    a984:	0102202b 	sltu	a0,t0,v0
    a988:	00892021 	addu	a0,a0,t1
    a98c:	008a482b 	sltu	t1,a0,t2
    a990:	00e05821 	move	t3,a3
    a994:	00a01821 	move	v1,a1
    a998:	11200006 	beqz	t1,0xa9b4
    a99c:	24e7ffff 	addiu	a3,a3,-1
    a9a0:	148cfff3 	bne	a0,t4,0xa970
    a9a4:	000227c2 	srl	a0,v0,0x1f
    a9a8:	2d08ffff 	sltiu	t0,t0,-1
    a9ac:	5500fff1 	bnezl	t0,0xa974
    a9b0:	00032840 	sll	a1,v1,0x1
    a9b4:	acc20010 	sw	v0,16(a2)
    a9b8:	24020003 	li	v0,3
    a9bc:	acc20000 	sw	v0,0(a2)
    a9c0:	acc50014 	sw	a1,20(a2)
    a9c4:	accb0008 	sw	t3,8(a2)
    a9c8:	03e00008 	jr	ra
    a9cc:	00c01021 	move	v0,a2
    a9d0:	03e00008 	jr	ra
    a9d4:	00000000 	nop
    a9d8:	03e00008 	jr	ra
    a9dc:	00801021 	move	v0,a0
    a9e0:	14e3fffb 	bne	a3,v1,0xa9d0
    a9e4:	00801021 	move	v0,a0
    a9e8:	8c840004 	lw	a0,4(a0)
    a9ec:	8ca30004 	lw	v1,4(a1)
    a9f0:	1083fff7 	beq	a0,v1,0xa9d0
    a9f4:	3c040001 	lui	a0,0x1
    a9f8:	03e00008 	jr	ra
    a9fc:	2482c1e0 	addiu	v0,a0,-15904
    aa00:	1467fff3 	bne	v1,a3,0xa9d0
    aa04:	00801021 	move	v0,a0
    aa08:	8c8a0004 	lw	t2,4(a0)
    aa0c:	8c890008 	lw	t1,8(a0)
    aa10:	8c88000c 	lw	t0,12(a0)
    aa14:	8c870010 	lw	a3,16(a0)
    aa18:	8c840014 	lw	a0,20(a0)
    aa1c:	acca0004 	sw	t2,4(a2)
    aa20:	acc30000 	sw	v1,0(a2)
    aa24:	8c420004 	lw	v0,4(v0)
    aa28:	8ca30004 	lw	v1,4(a1)
    aa2c:	acc90008 	sw	t1,8(a2)
    aa30:	acc8000c 	sw	t0,12(a2)
    aa34:	00431024 	and	v0,v0,v1
    aa38:	acc20004 	sw	v0,4(a2)
    aa3c:	acc70010 	sw	a3,16(a2)
    aa40:	acc40014 	sw	a0,20(a2)
    aa44:	03e00008 	jr	ra
    aa48:	00c01021 	move	v0,a2
    aa4c:	004a4023 	subu	t0,v0,t2
    aa50:	290c0040 	slti	t4,t0,64
    aa54:	55800027 	bnezl	t4,0xaaf4
    aa58:	240affff 	li	t2,-1
    aa5c:	004a402a 	slt	t0,v0,t2
    aa60:	51000021 	beqzl	t0,0xaae8
    aa64:	00405021 	move	t2,v0
    aa68:	00004821 	move	t1,zero
    aa6c:	1000ffa1 	b	0xa8f4
    aa70:	00003821 	move	a3,zero
    aa74:	0043182b 	sltu	v1,v0,v1
    aa78:	01673821 	addu	a3,t3,a3
    aa7c:	00671821 	addu	v1,v1,a3
    aa80:	acc40004 	sw	a0,4(a2)
    aa84:	acca0008 	sw	t2,8(a2)
    aa88:	acc20010 	sw	v0,16(a2)
    aa8c:	acc30014 	sw	v1,20(a2)
    aa90:	3c042000 	lui	a0,0x2000
    aa94:	24050003 	li	a1,3
    aa98:	0064202b 	sltu	a0,v1,a0
    aa9c:	1480000c 	bnez	a0,0xaad0
    aaa0:	acc50000 	sw	a1,0(a2)
    aaa4:	8cc40008 	lw	a0,8(a2)
    aaa8:	00033fc0 	sll	a3,v1,0x1f
    aaac:	00022842 	srl	a1,v0,0x1
    aab0:	00e52825 	or	a1,a3,a1
    aab4:	30420001 	andi	v0,v0,0x1
    aab8:	00031842 	srl	v1,v1,0x1
    aabc:	00451025 	or	v0,v0,a1
    aac0:	24840001 	addiu	a0,a0,1
    aac4:	acc20010 	sw	v0,16(a2)
    aac8:	acc30014 	sw	v1,20(a2)
    aacc:	acc40008 	sw	a0,8(a2)
    aad0:	03e00008 	jr	ra
    aad4:	00c01021 	move	v0,a2
    aad8:	0122482b 	sltu	t1,t1,v0
    aadc:	00eb1823 	subu	v1,a3,t3
    aae0:	1000ff8e 	b	0xa91c
    aae4:	00691823 	subu	v1,v1,t1
    aae8:	00001821 	move	v1,zero
    aaec:	1000ff81 	b	0xa8f4
    aaf0:	00005821 	move	t3,zero
    aaf4:	0008c027 	nor	t8,zero,t0
    aaf8:	000a6842 	srl	t5,t2,0x1
    aafc:	030d6806 	srlv	t5,t5,t8
    ab00:	010a6004 	sllv	t4,t2,t0
    ab04:	310e0020 	andi	t6,t0,0x20
    ab08:	01805021 	move	t2,t4
    ab0c:	01ac6025 	or	t4,t5,t4
    ab10:	014e600b 	movn	t4,t2,t6
    ab14:	000e500b 	movn	t2,zero,t6
    ab18:	000b7840 	sll	t7,t3,0x1
    ab1c:	000a5027 	nor	t2,zero,t2
    ab20:	000c6027 	nor	t4,zero,t4
    ab24:	01036806 	srlv	t5,v1,t0
    ab28:	01431824 	and	v1,t2,v1
    ab2c:	018b5024 	and	t2,t4,t3
    ab30:	030f6004 	sllv	t4,t7,t8
    ab34:	010b5806 	srlv	t3,t3,t0
    ab38:	006a1825 	or	v1,v1,t2
    ab3c:	018d6825 	or	t5,t4,t5
    ab40:	016e680b 	movn	t5,t3,t6
    ab44:	0003182b 	sltu	v1,zero,v1
    ab48:	01a31825 	or	v1,t5,v1
    ab4c:	000e580b 	movn	t3,zero,t6
    ab50:	1000ff68 	b	0xa8f4
    ab54:	00405021 	move	t2,v0
    ab58:	0002202b 	sltu	a0,zero,v0
    ab5c:	00031823 	negu	v1,v1
    ab60:	00641823 	subu	v1,v1,a0
    ab64:	24040001 	li	a0,1
    ab68:	acc40004 	sw	a0,4(a2)
    ab6c:	acca0008 	sw	t2,8(a2)
    ab70:	acc20010 	sw	v0,16(a2)
    ab74:	1000ff6f 	b	0xa934
    ab78:	acc30014 	sw	v1,20(a2)
    ab7c:	54e0ff78 	bnezl	a3,0xa960
    ab80:	8cc70008 	lw	a3,8(a2)
    ab84:	1000ffc3 	b	0xaa94
    ab88:	3c042000 	lui	a0,0x2000
    ab8c:	27bdffa0 	addiu	sp,sp,-96
    ab90:	afa40050 	sw	a0,80(sp)
    ab94:	afa50054 	sw	a1,84(sp)
    ab98:	27a40050 	addiu	a0,sp,80
    ab9c:	27a50030 	addiu	a1,sp,48
    aba0:	afbf005c 	sw	ra,92(sp)
    aba4:	afa7004c 	sw	a3,76(sp)
    aba8:	0c002dd2 	jal	0xb748
    abac:	afa60048 	sw	a2,72(sp)
    abb0:	27a50018 	addiu	a1,sp,24
    abb4:	0c002dd2 	jal	0xb748
    abb8:	27a40048 	addiu	a0,sp,72
    abbc:	03a03021 	move	a2,sp
    abc0:	27a50018 	addiu	a1,sp,24
    abc4:	0c002a07 	jal	0xa81c
    abc8:	27a40030 	addiu	a0,sp,48
    abcc:	0c002d3f 	jal	0xb4fc
    abd0:	00402021 	move	a0,v0
    abd4:	8fbf005c 	lw	ra,92(sp)
    abd8:	03e00008 	jr	ra
    abdc:	27bd0060 	addiu	sp,sp,96
    abe0:	27bdffa0 	addiu	sp,sp,-96
    abe4:	afa40050 	sw	a0,80(sp)
    abe8:	afa50054 	sw	a1,84(sp)
    abec:	27a40050 	addiu	a0,sp,80
    abf0:	27a50030 	addiu	a1,sp,48
    abf4:	afbf005c 	sw	ra,92(sp)
    abf8:	afa7004c 	sw	a3,76(sp)
    abfc:	0c002dd2 	jal	0xb748
    ac00:	afa60048 	sw	a2,72(sp)
    ac04:	27a50018 	addiu	a1,sp,24
    ac08:	0c002dd2 	jal	0xb748
    ac0c:	27a40048 	addiu	a0,sp,72
    ac10:	8fa2001c 	lw	v0,28(sp)
    ac14:	03a03021 	move	a2,sp
    ac18:	27a50018 	addiu	a1,sp,24
    ac1c:	27a40030 	addiu	a0,sp,48
    ac20:	38420001 	xori	v0,v0,0x1
    ac24:	0c002a07 	jal	0xa81c
    ac28:	afa2001c 	sw	v0,28(sp)
    ac2c:	0c002d3f 	jal	0xb4fc
    ac30:	00402021 	move	a0,v0
    ac34:	8fbf005c 	lw	ra,92(sp)
    ac38:	03e00008 	jr	ra
    ac3c:	27bd0060 	addiu	sp,sp,96
    ac40:	27bdffa0 	addiu	sp,sp,-96
    ac44:	afa40050 	sw	a0,80(sp)
    ac48:	afa50054 	sw	a1,84(sp)
    ac4c:	27a40050 	addiu	a0,sp,80
    ac50:	27a50030 	addiu	a1,sp,48
    ac54:	afbf005c 	sw	ra,92(sp)
    ac58:	afa60048 	sw	a2,72(sp)
    ac5c:	0c002dd2 	jal	0xb748
    ac60:	afa7004c 	sw	a3,76(sp)
    ac64:	27a50018 	addiu	a1,sp,24
    ac68:	0c002dd2 	jal	0xb748
    ac6c:	27a40048 	addiu	a0,sp,72
    ac70:	8fa20030 	lw	v0,48(sp)
    ac74:	2c430002 	sltiu	v1,v0,2
    ac78:	1060000c 	beqz	v1,0xacac
    ac7c:	8fa30018 	lw	v1,24(sp)
    ac80:	8fa20034 	lw	v0,52(sp)
    ac84:	8fa3001c 	lw	v1,28(sp)
    ac88:	27a40030 	addiu	a0,sp,48
    ac8c:	00431026 	xor	v0,v0,v1
    ac90:	0002102b 	sltu	v0,zero,v0
    ac94:	afa20034 	sw	v0,52(sp)
    ac98:	0c002d3f 	jal	0xb4fc
    ac9c:	00000000 	nop
    aca0:	8fbf005c 	lw	ra,92(sp)
    aca4:	03e00008 	jr	ra
    aca8:	27bd0060 	addiu	sp,sp,96
    acac:	2c640002 	sltiu	a0,v1,2
    acb0:	54800010 	bnezl	a0,0xacf4
    acb4:	8fa3001c 	lw	v1,28(sp)
    acb8:	24040004 	li	a0,4
    acbc:	14440007 	bne	v0,a0,0xacdc
    acc0:	00000000 	nop
    acc4:	24020002 	li	v0,2
    acc8:	1462ffee 	bne	v1,v0,0xac84
    accc:	8fa20034 	lw	v0,52(sp)
    acd0:	3c040001 	lui	a0,0x1
    acd4:	1000fff0 	b	0xac98
    acd8:	2484c1e0 	addiu	a0,a0,-15904
    acdc:	5464000e 	bnel	v1,a0,0xad18
    ace0:	8fa40034 	lw	a0,52(sp)
    ace4:	24030002 	li	v1,2
    ace8:	1043fffa 	beq	v0,v1,0xacd4
    acec:	3c040001 	lui	a0,0x1
    acf0:	8fa3001c 	lw	v1,28(sp)
    acf4:	8fa20034 	lw	v0,52(sp)
    acf8:	27a40018 	addiu	a0,sp,24
    acfc:	00431026 	xor	v0,v0,v1
    ad00:	0002102b 	sltu	v0,zero,v0
    ad04:	0c002d3f 	jal	0xb4fc
    ad08:	afa2001c 	sw	v0,28(sp)
    ad0c:	8fbf005c 	lw	ra,92(sp)
    ad10:	03e00008 	jr	ra
    ad14:	27bd0060 	addiu	sp,sp,96
    ad18:	8fa6001c 	lw	a2,28(sp)
    ad1c:	24050002 	li	a1,2
    ad20:	00862026 	xor	a0,a0,a2
    ad24:	10450050 	beq	v0,a1,0xae68
    ad28:	0004402b 	sltu	t0,zero,a0
    ad2c:	10650051 	beq	v1,a1,0xae74
    ad30:	8fa60044 	lw	a2,68(sp)
    ad34:	8faa0028 	lw	t2,40(sp)
    ad38:	8fa7002c 	lw	a3,44(sp)
    ad3c:	8fa90040 	lw	t1,64(sp)
    ad40:	00ca0019 	multu	a2,t2
    ad44:	00006012 	mflo	t4
    ad48:	00006810 	mfhi	t5
    ad4c:	00e90019 	multu	a3,t1
    ad50:	00001810 	mfhi	v1
    ad54:	01a35821 	addu	t3,t5,v1
    ad58:	00001012 	mflo	v0
    ad5c:	01822021 	addu	a0,t4,v0
    ad60:	008c282b 	sltu	a1,a0,t4
    ad64:	01490019 	multu	t2,t1
    ad68:	00ab2821 	addu	a1,a1,t3
    ad6c:	00a3602b 	sltu	t4,a1,v1
    ad70:	00005012 	mflo	t2
    ad74:	00005810 	mfhi	t3
    ad78:	00c70019 	multu	a2,a3
    ad7c:	00003012 	mflo	a2
    ad80:	15800037 	bnez	t4,0xae60
    ad84:	00003810 	mfhi	a3
    ad88:	54a30005 	bnel	a1,v1,0xada0
    ad8c:	00006021 	move	t4,zero
    ad90:	0082102b 	sltu	v0,a0,v0
    ad94:	14400002 	bnez	v0,0xada0
    ad98:	240c0001 	li	t4,1
    ad9c:	00006021 	move	t4,zero
    ada0:	00a66821 	addu	t5,a1,a2
    ada4:	008b4821 	addu	t1,a0,t3
    ada8:	01a5102b 	sltu	v0,t5,a1
    adac:	8fa40020 	lw	a0,32(sp)
    adb0:	012b182b 	sltu	v1,t1,t3
    adb4:	8fa50038 	lw	a1,56(sp)
    adb8:	01a31821 	addu	v1,t5,v1
    adbc:	00471021 	addu	v0,v0,a3
    adc0:	006d302b 	sltu	a2,v1,t5
    adc4:	004c1021 	addu	v0,v0,t4
    adc8:	00a42821 	addu	a1,a1,a0
    adcc:	00c21021 	addu	v0,a2,v0
    add0:	3c072000 	lui	a3,0x2000
    add4:	24a60004 	addiu	a2,a1,4
    add8:	0047382b 	sltu	a3,v0,a3
    addc:	afa60008 	sw	a2,8(sp)
    ade0:	01402021 	move	a0,t2
    ade4:	afa80004 	sw	t0,4(sp)
    ade8:	24a60005 	addiu	a2,a1,5
    adec:	3c0f8000 	lui	t7,0x8000
    adf0:	14e0002e 	bnez	a3,0xaeac
    adf4:	3c0d2000 	lui	t5,0x2000
    adf8:	00023fc0 	sll	a3,v0,0x1f
    adfc:	30680001 	andi	t0,v1,0x1
    ae00:	00021042 	srl	v0,v0,0x1
    ae04:	00031842 	srl	v1,v1,0x1
    ae08:	004d282b 	sltu	a1,v0,t5
    ae0c:	000967c0 	sll	t4,t1,0x1f
    ae10:	00045842 	srl	t3,a0,0x1
    ae14:	00095042 	srl	t2,t1,0x1
    ae18:	11000003 	beqz	t0,0xae28
    ae1c:	00c07021 	move	t6,a2
    ae20:	018b2025 	or	a0,t4,t3
    ae24:	014f4825 	or	t1,t2,t7
    ae28:	00e31825 	or	v1,a3,v1
    ae2c:	10a0fff2 	beqz	a1,0xadf8
    ae30:	24c60001 	addiu	a2,a2,1
    ae34:	afae0008 	sw	t6,8(sp)
    ae38:	306500ff 	andi	a1,v1,0xff
    ae3c:	24060080 	li	a2,128
    ae40:	10a6000f 	beq	a1,a2,0xae80
    ae44:	30650100 	andi	a1,v1,0x100
    ae48:	afa20014 	sw	v0,20(sp)
    ae4c:	24020003 	li	v0,3
    ae50:	afa30010 	sw	v1,16(sp)
    ae54:	afa20000 	sw	v0,0(sp)
    ae58:	1000ff8f 	b	0xac98
    ae5c:	03a02021 	move	a0,sp
    ae60:	1000ffcf 	b	0xada0
    ae64:	240c0001 	li	t4,1
    ae68:	afa80034 	sw	t0,52(sp)
    ae6c:	1000ff8a 	b	0xac98
    ae70:	27a40030 	addiu	a0,sp,48
    ae74:	afa8001c 	sw	t0,28(sp)
    ae78:	1000ff87 	b	0xac98
    ae7c:	27a40018 	addiu	a0,sp,24
    ae80:	54a0fff2 	bnezl	a1,0xae4c
    ae84:	afa20014 	sw	v0,20(sp)
    ae88:	00892025 	or	a0,a0,t1
    ae8c:	5080ffef 	beqzl	a0,0xae4c
    ae90:	afa20014 	sw	v0,20(sp)
    ae94:	24640080 	addiu	a0,v1,128
    ae98:	0083282b 	sltu	a1,a0,v1
    ae9c:	2403ff00 	li	v1,-256
    aea0:	00831824 	and	v1,a0,v1
    aea4:	1000ffe8 	b	0xae48
    aea8:	00a21021 	addu	v0,a1,v0
    aeac:	3c061000 	lui	a2,0x1000
    aeb0:	0046302b 	sltu	a2,v0,a2
    aeb4:	24a50003 	addiu	a1,a1,3
    aeb8:	10c0ffdf 	beqz	a2,0xae38
    aebc:	3c0b1000 	lui	t3,0x1000
    aec0:	000337c2 	srl	a2,v1,0x1f
    aec4:	00021040 	sll	v0,v0,0x1
    aec8:	00c21025 	or	v0,a2,v0
    aecc:	000447c2 	srl	t0,a0,0x1f
    aed0:	00093840 	sll	a3,t1,0x1
    aed4:	004b302b 	sltu	a2,v0,t3
    aed8:	00a05021 	move	t2,a1
    aedc:	05210002 	bgez	t1,0xaee8
    aee0:	00031840 	sll	v1,v1,0x1
    aee4:	34630001 	ori	v1,v1,0x1
    aee8:	00042040 	sll	a0,a0,0x1
    aeec:	01074825 	or	t1,t0,a3
    aef0:	14c0fff3 	bnez	a2,0xaec0
    aef4:	24a5ffff 	addiu	a1,a1,-1
    aef8:	1000ffcf 	b	0xae38
    aefc:	afaa0008 	sw	t2,8(sp)
    af00:	27bdffb8 	addiu	sp,sp,-72
    af04:	afa40038 	sw	a0,56(sp)
    af08:	afa5003c 	sw	a1,60(sp)
    af0c:	27a40038 	addiu	a0,sp,56
    af10:	27a50018 	addiu	a1,sp,24
    af14:	afbf0044 	sw	ra,68(sp)
    af18:	afa60030 	sw	a2,48(sp)
    af1c:	0c002dd2 	jal	0xb748
    af20:	afa70034 	sw	a3,52(sp)
    af24:	03a02821 	move	a1,sp
    af28:	0c002dd2 	jal	0xb748
    af2c:	27a40030 	addiu	a0,sp,48
    af30:	8fa20018 	lw	v0,24(sp)
    af34:	2c430002 	sltiu	v1,v0,2
    af38:	10600007 	beqz	v1,0xaf58
    af3c:	8fa30000 	lw	v1,0(sp)
    af40:	27a40018 	addiu	a0,sp,24
    af44:	0c002d3f 	jal	0xb4fc
    af48:	00000000 	nop
    af4c:	8fbf0044 	lw	ra,68(sp)
    af50:	03e00008 	jr	ra
    af54:	27bd0048 	addiu	sp,sp,72
    af58:	2c650002 	sltiu	a1,v1,2
    af5c:	14a0fff9 	bnez	a1,0xaf44
    af60:	03a02021 	move	a0,sp
    af64:	8fa5001c 	lw	a1,28(sp)
    af68:	8fa60004 	lw	a2,4(sp)
    af6c:	2444fffe 	addiu	a0,v0,-2
    af70:	00a62826 	xor	a1,a1,a2
    af74:	2406fffd 	li	a2,-3
    af78:	00862024 	and	a0,a0,a2
    af7c:	14800006 	bnez	a0,0xaf98
    af80:	afa5001c 	sw	a1,28(sp)
    af84:	5443ffef 	bnel	v0,v1,0xaf44
    af88:	27a40018 	addiu	a0,sp,24
    af8c:	3c040001 	lui	a0,0x1
    af90:	1000ffec 	b	0xaf44
    af94:	2484c1e0 	addiu	a0,a0,-15904
    af98:	24020004 	li	v0,4
    af9c:	1062003d 	beq	v1,v0,0xb094
    afa0:	24040002 	li	a0,2
    afa4:	10640041 	beq	v1,a0,0xb0ac
    afa8:	8fa30020 	lw	v1,32(sp)
    afac:	8fa2002c 	lw	v0,44(sp)
    afb0:	8fa60014 	lw	a2,20(sp)
    afb4:	8fa40008 	lw	a0,8(sp)
    afb8:	8fb80028 	lw	t8,40(sp)
    afbc:	0046382b 	sltu	a3,v0,a2
    afc0:	00641823 	subu	v1,v1,a0
    afc4:	afa30020 	sw	v1,32(sp)
    afc8:	14e00006 	bnez	a3,0xafe4
    afcc:	8fac0010 	lw	t4,16(sp)
    afd0:	14c2000c 	bne	a2,v0,0xb004
    afd4:	2404003d 	li	a0,61
    afd8:	030c202b 	sltu	a0,t8,t4
    afdc:	50800009 	beqzl	a0,0xb004
    afe0:	2404003d 	li	a0,61
    afe4:	001827c2 	srl	a0,t8,0x1f
    afe8:	00021040 	sll	v0,v0,0x1
    afec:	00821025 	or	v0,a0,v0
    aff0:	2463ffff 	addiu	v1,v1,-1
    aff4:	0018c040 	sll	t8,t8,0x1
    aff8:	afa30020 	sw	v1,32(sp)
    affc:	0046382b 	sltu	a3,v0,a2
    b000:	2404003d 	li	a0,61
    b004:	00005021 	move	t2,zero
    b008:	00005821 	move	t3,zero
    b00c:	00002821 	move	a1,zero
    b010:	10000002 	b	0xb01c
    b014:	3c031000 	lui	v1,0x1000
    b018:	0046382b 	sltu	a3,v0,a2
    b01c:	00034fc0 	sll	t1,v1,0x1f
    b020:	00054042 	srl	t0,a1,0x1
    b024:	14e0000c 	bnez	a3,0xb058
    b028:	2484ffff 	addiu	a0,a0,-1
    b02c:	030c3823 	subu	a3,t8,t4
    b030:	0307682b 	sltu	t5,t8,a3
    b034:	00467023 	subu	t6,v0,a2
    b038:	14c20003 	bne	a2,v0,0xb048
    b03c:	030c782b 	sltu	t7,t8,t4
    b040:	55e00006 	bnezl	t7,0xb05c
    b044:	00182fc2 	srl	a1,t8,0x1f
    b048:	00e0c021 	move	t8,a3
    b04c:	01cd1023 	subu	v0,t6,t5
    b050:	01455025 	or	t2,t2,a1
    b054:	01635825 	or	t3,t3,v1
    b058:	00182fc2 	srl	a1,t8,0x1f
    b05c:	00021040 	sll	v0,v0,0x1
    b060:	00a21025 	or	v0,a1,v0
    b064:	00031842 	srl	v1,v1,0x1
    b068:	01282825 	or	a1,t1,t0
    b06c:	1480ffea 	bnez	a0,0xb018
    b070:	0018c040 	sll	t8,t8,0x1
    b074:	314300ff 	andi	v1,t2,0xff
    b078:	24040080 	li	a0,128
    b07c:	1064000e 	beq	v1,a0,0xb0b8
    b080:	31430100 	andi	v1,t2,0x100
    b084:	afaa0028 	sw	t2,40(sp)
    b088:	afab002c 	sw	t3,44(sp)
    b08c:	1000ffad 	b	0xaf44
    b090:	27a40018 	addiu	a0,sp,24
    b094:	00001021 	move	v0,zero
    b098:	00001821 	move	v1,zero
    b09c:	afa20028 	sw	v0,40(sp)
    b0a0:	afa3002c 	sw	v1,44(sp)
    b0a4:	1000ffa6 	b	0xaf40
    b0a8:	afa00020 	sw	zero,32(sp)
    b0ac:	afa20018 	sw	v0,24(sp)
    b0b0:	1000ffa4 	b	0xaf44
    b0b4:	27a40018 	addiu	a0,sp,24
    b0b8:	5460fff3 	bnezl	v1,0xb088
    b0bc:	afaa0028 	sw	t2,40(sp)
    b0c0:	03021025 	or	v0,t8,v0
    b0c4:	5040fff0 	beqzl	v0,0xb088
    b0c8:	afaa0028 	sw	t2,40(sp)
    b0cc:	25420080 	addiu	v0,t2,128
    b0d0:	004a182b 	sltu	v1,v0,t2
    b0d4:	240aff00 	li	t2,-256
    b0d8:	004a5024 	and	t2,v0,t2
    b0dc:	1000ffe9 	b	0xb084
    b0e0:	006b5821 	addu	t3,v1,t3
    b0e4:	27bdffb8 	addiu	sp,sp,-72
    b0e8:	afa40038 	sw	a0,56(sp)
    b0ec:	afa5003c 	sw	a1,60(sp)
    b0f0:	27a40038 	addiu	a0,sp,56
    b0f4:	27a50018 	addiu	a1,sp,24
    b0f8:	afbf0044 	sw	ra,68(sp)
    b0fc:	afa60030 	sw	a2,48(sp)
    b100:	0c002dd2 	jal	0xb748
    b104:	afa70034 	sw	a3,52(sp)
    b108:	03a02821 	move	a1,sp
    b10c:	0c002dd2 	jal	0xb748
    b110:	27a40030 	addiu	a0,sp,48
    b114:	8fa20018 	lw	v0,24(sp)
    b118:	2c420002 	sltiu	v0,v0,2
    b11c:	1440000a 	bnez	v0,0xb148
    b120:	8fa30000 	lw	v1,0(sp)
    b124:	2c630002 	sltiu	v1,v1,2
    b128:	14600004 	bnez	v1,0xb13c
    b12c:	24020001 	li	v0,1
    b130:	03a02821 	move	a1,sp
    b134:	0c002e0f 	jal	0xb83c
    b138:	27a40018 	addiu	a0,sp,24
    b13c:	8fbf0044 	lw	ra,68(sp)
    b140:	03e00008 	jr	ra
    b144:	27bd0048 	addiu	sp,sp,72
    b148:	8fbf0044 	lw	ra,68(sp)
    b14c:	24020001 	li	v0,1
    b150:	03e00008 	jr	ra
    b154:	27bd0048 	addiu	sp,sp,72
    b158:	27bdffb8 	addiu	sp,sp,-72
    b15c:	afa40038 	sw	a0,56(sp)
    b160:	afa5003c 	sw	a1,60(sp)
    b164:	27a40038 	addiu	a0,sp,56
    b168:	27a50018 	addiu	a1,sp,24
    b16c:	afbf0044 	sw	ra,68(sp)
    b170:	afa60030 	sw	a2,48(sp)
    b174:	0c002dd2 	jal	0xb748
    b178:	afa70034 	sw	a3,52(sp)
    b17c:	03a02821 	move	a1,sp
    b180:	0c002dd2 	jal	0xb748
    b184:	27a40030 	addiu	a0,sp,48
    b188:	8fa20018 	lw	v0,24(sp)
    b18c:	2c420002 	sltiu	v0,v0,2
    b190:	1440000a 	bnez	v0,0xb1bc
    b194:	8fa30000 	lw	v1,0(sp)
    b198:	2c630002 	sltiu	v1,v1,2
    b19c:	14600004 	bnez	v1,0xb1b0
    b1a0:	24020001 	li	v0,1
    b1a4:	03a02821 	move	a1,sp
    b1a8:	0c002e0f 	jal	0xb83c
    b1ac:	27a40018 	addiu	a0,sp,24
    b1b0:	8fbf0044 	lw	ra,68(sp)
    b1b4:	03e00008 	jr	ra
    b1b8:	27bd0048 	addiu	sp,sp,72
    b1bc:	8fbf0044 	lw	ra,68(sp)
    b1c0:	24020001 	li	v0,1
    b1c4:	03e00008 	jr	ra
    b1c8:	27bd0048 	addiu	sp,sp,72
    b1cc:	27bdffb8 	addiu	sp,sp,-72
    b1d0:	afa40038 	sw	a0,56(sp)
    b1d4:	afa5003c 	sw	a1,60(sp)
    b1d8:	27a40038 	addiu	a0,sp,56
    b1dc:	27a50018 	addiu	a1,sp,24
    b1e0:	afbf0044 	sw	ra,68(sp)
    b1e4:	afa60030 	sw	a2,48(sp)
    b1e8:	0c002dd2 	jal	0xb748
    b1ec:	afa70034 	sw	a3,52(sp)
    b1f0:	03a02821 	move	a1,sp
    b1f4:	0c002dd2 	jal	0xb748
    b1f8:	27a40030 	addiu	a0,sp,48
    b1fc:	8fa20018 	lw	v0,24(sp)
    b200:	2c420002 	sltiu	v0,v0,2
    b204:	14400007 	bnez	v0,0xb224
    b208:	2402ffff 	li	v0,-1
    b20c:	8fa20000 	lw	v0,0(sp)
    b210:	2c420002 	sltiu	v0,v0,2
    b214:	14400006 	bnez	v0,0xb230
    b218:	03a02821 	move	a1,sp
    b21c:	0c002e0f 	jal	0xb83c
    b220:	27a40018 	addiu	a0,sp,24
    b224:	8fbf0044 	lw	ra,68(sp)
    b228:	03e00008 	jr	ra
    b22c:	27bd0048 	addiu	sp,sp,72
    b230:	1000fffc 	b	0xb224
    b234:	2402ffff 	li	v0,-1
    b238:	27bdffb8 	addiu	sp,sp,-72
    b23c:	afa40038 	sw	a0,56(sp)
    b240:	afa5003c 	sw	a1,60(sp)
    b244:	27a40038 	addiu	a0,sp,56
    b248:	27a50018 	addiu	a1,sp,24
    b24c:	afbf0044 	sw	ra,68(sp)
    b250:	afa60030 	sw	a2,48(sp)
    b254:	0c002dd2 	jal	0xb748
    b258:	afa70034 	sw	a3,52(sp)
    b25c:	03a02821 	move	a1,sp
    b260:	0c002dd2 	jal	0xb748
    b264:	27a40030 	addiu	a0,sp,48
    b268:	8fa20018 	lw	v0,24(sp)
    b26c:	2c420002 	sltiu	v0,v0,2
    b270:	14400007 	bnez	v0,0xb290
    b274:	2402ffff 	li	v0,-1
    b278:	8fa20000 	lw	v0,0(sp)
    b27c:	2c420002 	sltiu	v0,v0,2
    b280:	14400006 	bnez	v0,0xb29c
    b284:	03a02821 	move	a1,sp
    b288:	0c002e0f 	jal	0xb83c
    b28c:	27a40018 	addiu	a0,sp,24
    b290:	8fbf0044 	lw	ra,68(sp)
    b294:	03e00008 	jr	ra
    b298:	27bd0048 	addiu	sp,sp,72
    b29c:	1000fffc 	b	0xb290
    b2a0:	2402ffff 	li	v0,-1
    b2a4:	27bdffb8 	addiu	sp,sp,-72
    b2a8:	afa40038 	sw	a0,56(sp)
    b2ac:	afa5003c 	sw	a1,60(sp)
    b2b0:	27a40038 	addiu	a0,sp,56
    b2b4:	27a50018 	addiu	a1,sp,24
    b2b8:	afbf0044 	sw	ra,68(sp)
    b2bc:	afa60030 	sw	a2,48(sp)
    b2c0:	0c002dd2 	jal	0xb748
    b2c4:	afa70034 	sw	a3,52(sp)
    b2c8:	03a02821 	move	a1,sp
    b2cc:	0c002dd2 	jal	0xb748
    b2d0:	27a40030 	addiu	a0,sp,48
    b2d4:	8fa20018 	lw	v0,24(sp)
    b2d8:	2c420002 	sltiu	v0,v0,2
    b2dc:	1440000a 	bnez	v0,0xb308
    b2e0:	8fa30000 	lw	v1,0(sp)
    b2e4:	2c630002 	sltiu	v1,v1,2
    b2e8:	14600004 	bnez	v1,0xb2fc
    b2ec:	24020001 	li	v0,1
    b2f0:	03a02821 	move	a1,sp
    b2f4:	0c002e0f 	jal	0xb83c
    b2f8:	27a40018 	addiu	a0,sp,24
    b2fc:	8fbf0044 	lw	ra,68(sp)
    b300:	03e00008 	jr	ra
    b304:	27bd0048 	addiu	sp,sp,72
    b308:	8fbf0044 	lw	ra,68(sp)
    b30c:	24020001 	li	v0,1
    b310:	03e00008 	jr	ra
    b314:	27bd0048 	addiu	sp,sp,72
    b318:	27bdffe0 	addiu	sp,sp,-32
    b31c:	000417c2 	srl	v0,a0,0x1f
    b320:	24030003 	li	v1,3
    b324:	afbf001c 	sw	ra,28(sp)
    b328:	afa30000 	sw	v1,0(sp)
    b32c:	14800008 	bnez	a0,0xb350
    b330:	afa20004 	sw	v0,4(sp)
    b334:	24020002 	li	v0,2
    b338:	afa20000 	sw	v0,0(sp)
    b33c:	0c002d3f 	jal	0xb4fc
    b340:	03a02021 	move	a0,sp
    b344:	8fbf001c 	lw	ra,28(sp)
    b348:	03e00008 	jr	ra
    b34c:	27bd0020 	addiu	sp,sp,32
    b350:	04810006 	bgez	a0,0xb36c
    b354:	00801016 	clz	v0,a0
    b358:	3c028000 	lui	v0,0x8000
    b35c:	10820011 	beq	a0,v0,0xb3a4
    b360:	3c020001 	lui	v0,0x1
    b364:	00042023 	negu	a0,a0
    b368:	00801016 	clz	v0,a0
    b36c:	2442001d 	addiu	v0,v0,29
    b370:	00041842 	srl	v1,a0,0x1
    b374:	00023027 	nor	a2,zero,v0
    b378:	30450020 	andi	a1,v0,0x20
    b37c:	00442004 	sllv	a0,a0,v0
    b380:	00c31806 	srlv	v1,v1,a2
    b384:	0085180b 	movn	v1,a0,a1
    b388:	0005200b 	movn	a0,zero,a1
    b38c:	2405003c 	li	a1,60
    b390:	00a21023 	subu	v0,a1,v0
    b394:	afa30014 	sw	v1,20(sp)
    b398:	afa40010 	sw	a0,16(sp)
    b39c:	1000ffe7 	b	0xb33c
    b3a0:	afa20008 	sw	v0,8(sp)
    b3a4:	8c43c1dc 	lw	v1,-15908(v0)
    b3a8:	1000ffe6 	b	0xb344
    b3ac:	8c42c1d8 	lw	v0,-15912(v0)
    b3b0:	27bdffd8 	addiu	sp,sp,-40
    b3b4:	afa40018 	sw	a0,24(sp)
    b3b8:	afa5001c 	sw	a1,28(sp)
    b3bc:	27a40018 	addiu	a0,sp,24
    b3c0:	afbf0024 	sw	ra,36(sp)
    b3c4:	0c002dd2 	jal	0xb748
    b3c8:	03a02821 	move	a1,sp
    b3cc:	8fa20000 	lw	v0,0(sp)
    b3d0:	2c430003 	sltiu	v1,v0,3
    b3d4:	14600019 	bnez	v1,0xb43c
    b3d8:	24030004 	li	v1,4
    b3dc:	1043001b 	beq	v0,v1,0xb44c
    b3e0:	8fa20008 	lw	v0,8(sp)
    b3e4:	04400015 	bltz	v0,0xb43c
    b3e8:	2843001f 	slti	v1,v0,31
    b3ec:	1060001d 	beqz	v1,0xb464
    b3f0:	8fa70004 	lw	a3,4(sp)
    b3f4:	8fa50014 	lw	a1,20(sp)
    b3f8:	2403003c 	li	v1,60
    b3fc:	00621823 	subu	v1,v1,v0
    b400:	00031027 	nor	v0,zero,v1
    b404:	00053040 	sll	a2,a1,0x1
    b408:	00463004 	sllv	a2,a2,v0
    b40c:	8fa20010 	lw	v0,16(sp)
    b410:	8fbf0024 	lw	ra,36(sp)
    b414:	27bd0028 	addiu	sp,sp,40
    b418:	00622006 	srlv	a0,v0,v1
    b41c:	00c42025 	or	a0,a2,a0
    b420:	30620020 	andi	v0,v1,0x20
    b424:	00651806 	srlv	v1,a1,v1
    b428:	0082180a 	movz	v1,a0,v0
    b42c:	00601021 	move	v0,v1
    b430:	00031823 	negu	v1,v1
    b434:	03e00008 	jr	ra
    b438:	0067100b 	movn	v0,v1,a3
    b43c:	8fbf0024 	lw	ra,36(sp)
    b440:	00001021 	move	v0,zero
    b444:	03e00008 	jr	ra
    b448:	27bd0028 	addiu	sp,sp,40
    b44c:	8fa20004 	lw	v0,4(sp)
    b450:	10400006 	beqz	v0,0xb46c
    b454:	8fbf0024 	lw	ra,36(sp)
    b458:	3c028000 	lui	v0,0x8000
    b45c:	03e00008 	jr	ra
    b460:	27bd0028 	addiu	sp,sp,40
    b464:	14e0fffc 	bnez	a3,0xb458
    b468:	8fbf0024 	lw	ra,36(sp)
    b46c:	3c027fff 	lui	v0,0x7fff
    b470:	3442ffff 	ori	v0,v0,0xffff
    b474:	03e00008 	jr	ra
    b478:	27bd0028 	addiu	sp,sp,40
    b47c:	27bdffe0 	addiu	sp,sp,-32
    b480:	afbf001c 	sw	ra,28(sp)
    b484:	14800008 	bnez	a0,0xb4a8
    b488:	afa00004 	sw	zero,4(sp)
    b48c:	24020002 	li	v0,2
    b490:	03a02021 	move	a0,sp
    b494:	0c002d3f 	jal	0xb4fc
    b498:	afa20000 	sw	v0,0(sp)
    b49c:	8fbf001c 	lw	ra,28(sp)
    b4a0:	03e00008 	jr	ra
    b4a4:	27bd0020 	addiu	sp,sp,32
    b4a8:	00801016 	clz	v0,a0
    b4ac:	2442001d 	addiu	v0,v0,29
    b4b0:	00023027 	nor	a2,zero,v0
    b4b4:	00041842 	srl	v1,a0,0x1
    b4b8:	30450020 	andi	a1,v0,0x20
    b4bc:	00442004 	sllv	a0,a0,v0
    b4c0:	00c31806 	srlv	v1,v1,a2
    b4c4:	0085180b 	movn	v1,a0,a1
    b4c8:	0005200b 	movn	a0,zero,a1
    b4cc:	2405003c 	li	a1,60
    b4d0:	00a21023 	subu	v0,a1,v0
    b4d4:	afa40010 	sw	a0,16(sp)
    b4d8:	24050003 	li	a1,3
    b4dc:	03a02021 	move	a0,sp
    b4e0:	afa50000 	sw	a1,0(sp)
    b4e4:	afa30014 	sw	v1,20(sp)
    b4e8:	0c002d3f 	jal	0xb4fc
    b4ec:	afa20008 	sw	v0,8(sp)
    b4f0:	8fbf001c 	lw	ra,28(sp)
    b4f4:	03e00008 	jr	ra
    b4f8:	27bd0020 	addiu	sp,sp,32
    b4fc:	8c850000 	lw	a1,0(a0)
    b500:	8c830010 	lw	v1,16(a0)
    b504:	8c820014 	lw	v0,20(a0)
    b508:	2ca70002 	sltiu	a3,a1,2
    b50c:	14e0003c 	bnez	a3,0xb600
    b510:	8c860004 	lw	a2,4(a0)
    b514:	24070004 	li	a3,4
    b518:	10a70023 	beq	a1,a3,0xb5a8
    b51c:	24070002 	li	a3,2
    b520:	10a7002c 	beq	a1,a3,0xb5d4
    b524:	00622825 	or	a1,v1,v0
    b528:	50a0002b 	beqzl	a1,0xb5d8
    b52c:	00001821 	move	v1,zero
    b530:	8c850008 	lw	a1,8(a0)
    b534:	28a4fc02 	slti	a0,a1,-1022
    b538:	1480004d 	bnez	a0,0xb670
    b53c:	28a40400 	slti	a0,a1,1024
    b540:	10800019 	beqz	a0,0xb5a8
    b544:	306400ff 	andi	a0,v1,0xff
    b548:	24070080 	li	a3,128
    b54c:	10870040 	beq	a0,a3,0xb650
    b550:	2467007f 	addiu	a3,v1,127
    b554:	00e3202b 	sltu	a0,a3,v1
    b558:	00821021 	addu	v0,a0,v0
    b55c:	00e01821 	move	v1,a3
    b560:	3c042000 	lui	a0,0x2000
    b564:	0044202b 	sltu	a0,v0,a0
    b568:	10800034 	beqz	a0,0xb63c
    b56c:	00023fc0 	sll	a3,v0,0x1f
    b570:	24a503ff 	addiu	a1,a1,1023
    b574:	00023e00 	sll	a3,v0,0x18
    b578:	00032202 	srl	a0,v1,0x8
    b57c:	7c439a00 	ext	v1,v0,0x8,0x14
    b580:	00001021 	move	v0,zero
    b584:	30a507ff 	andi	a1,a1,0x7ff
    b588:	7c629804 	ins	v0,v1,0x0,0x14
    b58c:	7ca2f504 	ins	v0,a1,0x14,0xb
    b590:	7cc2ffc4 	ins	v0,a2,0x1f,0x1
    b594:	00e42025 	or	a0,a3,a0
    b598:	00403821 	move	a3,v0
    b59c:	00e01821 	move	v1,a3
    b5a0:	03e00008 	jr	ra
    b5a4:	00801021 	move	v0,a0
    b5a8:	240507ff 	li	a1,2047
    b5ac:	00002021 	move	a0,zero
    b5b0:	00001821 	move	v1,zero
    b5b4:	00001021 	move	v0,zero
    b5b8:	7c629804 	ins	v0,v1,0x0,0x14
    b5bc:	7ca2f504 	ins	v0,a1,0x14,0xb
    b5c0:	7cc2ffc4 	ins	v0,a2,0x1f,0x1
    b5c4:	00403821 	move	a3,v0
    b5c8:	00e01821 	move	v1,a3
    b5cc:	03e00008 	jr	ra
    b5d0:	00801021 	move	v0,a0
    b5d4:	00001821 	move	v1,zero
    b5d8:	00001021 	move	v0,zero
    b5dc:	00002821 	move	a1,zero
    b5e0:	7c629804 	ins	v0,v1,0x0,0x14
    b5e4:	7ca2f504 	ins	v0,a1,0x14,0xb
    b5e8:	7cc2ffc4 	ins	v0,a2,0x1f,0x1
    b5ec:	00403821 	move	a3,v0
    b5f0:	00002021 	move	a0,zero
    b5f4:	00801021 	move	v0,a0
    b5f8:	03e00008 	jr	ra
    b5fc:	00e01821 	move	v1,a3
    b600:	00022600 	sll	a0,v0,0x18
    b604:	00031a02 	srl	v1,v1,0x8
    b608:	00832025 	or	a0,a0,v1
    b60c:	7c429200 	ext	v0,v0,0x8,0x13
    b610:	3c030008 	lui	v1,0x8
    b614:	00431825 	or	v1,v0,v1
    b618:	00001021 	move	v0,zero
    b61c:	240507ff 	li	a1,2047
    b620:	7c629804 	ins	v0,v1,0x0,0x14
    b624:	7ca2f504 	ins	v0,a1,0x14,0xb
    b628:	7cc2ffc4 	ins	v0,a2,0x1f,0x1
    b62c:	00403821 	move	a3,v0
    b630:	00e01821 	move	v1,a3
    b634:	03e00008 	jr	ra
    b638:	00801021 	move	v0,a0
    b63c:	00032042 	srl	a0,v1,0x1
    b640:	00e41825 	or	v1,a3,a0
    b644:	00021042 	srl	v0,v0,0x1
    b648:	1000ffca 	b	0xb574
    b64c:	24a50400 	addiu	a1,a1,1024
    b650:	30640100 	andi	a0,v1,0x100
    b654:	1080ffc3 	beqz	a0,0xb564
    b658:	3c042000 	lui	a0,0x2000
    b65c:	24670080 	addiu	a3,v1,128
    b660:	00e3202b 	sltu	a0,a3,v1
    b664:	00821021 	addu	v0,a0,v0
    b668:	1000ffbd 	b	0xb560
    b66c:	00e01821 	move	v1,a3
    b670:	2404fc02 	li	a0,-1022
    b674:	00852823 	subu	a1,a0,a1
    b678:	28a40039 	slti	a0,a1,57
    b67c:	5080ffd6 	beqzl	a0,0xb5d8
    b680:	00001821 	move	v1,zero
    b684:	2404ffff 	li	a0,-1
    b688:	00055827 	nor	t3,zero,a1
    b68c:	00044042 	srl	t0,a0,0x1
    b690:	01684006 	srlv	t0,t0,t3
    b694:	00a43804 	sllv	a3,a0,a1
    b698:	30a90020 	andi	t1,a1,0x20
    b69c:	00e02021 	move	a0,a3
    b6a0:	01073825 	or	a3,t0,a3
    b6a4:	0089380b 	movn	a3,a0,t1
    b6a8:	0009200b 	movn	a0,zero,t1
    b6ac:	00025040 	sll	t2,v0,0x1
    b6b0:	00042027 	nor	a0,zero,a0
    b6b4:	00073827 	nor	a3,zero,a3
    b6b8:	00a34006 	srlv	t0,v1,a1
    b6bc:	016a5004 	sllv	t2,t2,t3
    b6c0:	00831824 	and	v1,a0,v1
    b6c4:	00e22024 	and	a0,a3,v0
    b6c8:	01484025 	or	t0,t2,t0
    b6cc:	00a23806 	srlv	a3,v0,a1
    b6d0:	00641025 	or	v0,v1,a0
    b6d4:	00e9400b 	movn	t0,a3,t1
    b6d8:	0002102b 	sltu	v0,zero,v0
    b6dc:	01021025 	or	v0,t0,v0
    b6e0:	304400ff 	andi	a0,v0,0xff
    b6e4:	24030080 	li	v1,128
    b6e8:	1083000c 	beq	a0,v1,0xb71c
    b6ec:	0009380b 	movn	a3,zero,t1
    b6f0:	2444007f 	addiu	a0,v0,127
    b6f4:	0082182b 	sltu	v1,a0,v0
    b6f8:	00671821 	addu	v1,v1,a3
    b6fc:	3c051000 	lui	a1,0x1000
    b700:	00031600 	sll	v0,v1,0x18
    b704:	0065282b 	sltu	a1,v1,a1
    b708:	00042202 	srl	a0,a0,0x8
    b70c:	00442025 	or	a0,v0,a0
    b710:	7c639a00 	ext	v1,v1,0x8,0x14
    b714:	1000ffa7 	b	0xb5b4
    b718:	38a50001 	xori	a1,a1,0x1
    b71c:	30430100 	andi	v1,v0,0x100
    b720:	5460fff4 	bnezl	v1,0xb6f4
    b724:	24440080 	addiu	a0,v0,128
    b728:	3c051000 	lui	a1,0x1000
    b72c:	00071e00 	sll	v1,a3,0x18
    b730:	00022202 	srl	a0,v0,0x8
    b734:	00e5282b 	sltu	a1,a3,a1
    b738:	00642025 	or	a0,v1,a0
    b73c:	38a50001 	xori	a1,a1,0x1
    b740:	1000ff9c 	b	0xb5b4
    b744:	7ce39a00 	ext	v1,a3,0x8,0x14
    b748:	8c820004 	lw	v0,4(a0)
    b74c:	8c830000 	lw	v1,0(a0)
    b750:	000237c2 	srl	a2,v0,0x1f
    b754:	7c445500 	ext	a0,v0,0x14,0xb
    b758:	aca60004 	sw	a2,4(a1)
    b75c:	14800018 	bnez	a0,0xb7c0
    b760:	7c429800 	ext	v0,v0,0x0,0x14
    b764:	00622025 	or	a0,v1,v0
    b768:	50800024 	beqzl	a0,0xb7fc
    b76c:	24020002 	li	v0,2
    b770:	00032602 	srl	a0,v1,0x18
    b774:	00021200 	sll	v0,v0,0x8
    b778:	00821025 	or	v0,a0,v0
    b77c:	24040003 	li	a0,3
    b780:	aca40000 	sw	a0,0(a1)
    b784:	00031a00 	sll	v1,v1,0x8
    b788:	2404fc01 	li	a0,-1023
    b78c:	3c081000 	lui	t0,0x1000
    b790:	000337c2 	srl	a2,v1,0x1f
    b794:	00021040 	sll	v0,v0,0x1
    b798:	00c21025 	or	v0,a2,v0
    b79c:	0048302b 	sltu	a2,v0,t0
    b7a0:	00803821 	move	a3,a0
    b7a4:	00031840 	sll	v1,v1,0x1
    b7a8:	14c0fff9 	bnez	a2,0xb790
    b7ac:	2484ffff 	addiu	a0,a0,-1
    b7b0:	aca70008 	sw	a3,8(a1)
    b7b4:	aca30010 	sw	v1,16(a1)
    b7b8:	03e00008 	jr	ra
    b7bc:	aca20014 	sw	v0,20(a1)
    b7c0:	240607ff 	li	a2,2047
    b7c4:	1086000f 	beq	a0,a2,0xb804
    b7c8:	00033602 	srl	a2,v1,0x18
    b7cc:	00021200 	sll	v0,v0,0x8
    b7d0:	00c21025 	or	v0,a2,v0
    b7d4:	2484fc01 	addiu	a0,a0,-1023
    b7d8:	3c061000 	lui	a2,0x1000
    b7dc:	00031a00 	sll	v1,v1,0x8
    b7e0:	00461025 	or	v0,v0,a2
    b7e4:	aca40008 	sw	a0,8(a1)
    b7e8:	24040003 	li	a0,3
    b7ec:	aca40000 	sw	a0,0(a1)
    b7f0:	aca30010 	sw	v1,16(a1)
    b7f4:	03e00008 	jr	ra
    b7f8:	aca20014 	sw	v0,20(a1)
    b7fc:	03e00008 	jr	ra
    b800:	aca20000 	sw	v0,0(a1)
    b804:	00622025 	or	a0,v1,v0
    b808:	54800004 	bnezl	a0,0xb81c
    b80c:	00022200 	sll	a0,v0,0x8
    b810:	24020004 	li	v0,4
    b814:	03e00008 	jr	ra
    b818:	aca20000 	sw	v0,0(a1)
    b81c:	00c42025 	or	a0,a2,a0
    b820:	000214c2 	srl	v0,v0,0x13
    b824:	00031a00 	sll	v1,v1,0x8
    b828:	7c84d000 	ext	a0,a0,0x0,0x1b
    b82c:	aca20000 	sw	v0,0(a1)
    b830:	aca30010 	sw	v1,16(a1)
    b834:	03e00008 	jr	ra
    b838:	aca40014 	sw	a0,20(a1)
    b83c:	8c830000 	lw	v1,0(a0)
    b840:	2c620002 	sltiu	v0,v1,2
    b844:	1440002e 	bnez	v0,0xb900
    b848:	00000000 	nop
    b84c:	8ca60000 	lw	a2,0(a1)
    b850:	2cc20002 	sltiu	v0,a2,2
    b854:	1440002a 	bnez	v0,0xb900
    b858:	00000000 	nop
    b85c:	24020004 	li	v0,4
    b860:	10620020 	beq	v1,v0,0xb8e4
    b864:	00000000 	nop
    b868:	10c20029 	beq	a2,v0,0xb910
    b86c:	24070002 	li	a3,2
    b870:	10670025 	beq	v1,a3,0xb908
    b874:	00000000 	nop
    b878:	10c7001c 	beq	a2,a3,0xb8ec
    b87c:	8c820004 	lw	v0,4(a0)
    b880:	8ca30004 	lw	v1,4(a1)
    b884:	5462001a 	bnel	v1,v0,0xb8f0
    b888:	24040001 	li	a0,1
    b88c:	8c860008 	lw	a2,8(a0)
    b890:	8ca70008 	lw	a3,8(a1)
    b894:	00e6402a 	slt	t0,a3,a2
    b898:	15000029 	bnez	t0,0xb940
    b89c:	00c7302a 	slt	a2,a2,a3
    b8a0:	54c00024 	bnezl	a2,0xb934
    b8a4:	24040001 	li	a0,1
    b8a8:	8ca60014 	lw	a2,20(a1)
    b8ac:	8c830014 	lw	v1,20(a0)
    b8b0:	8c870010 	lw	a3,16(a0)
    b8b4:	00c3202b 	sltu	a0,a2,v1
    b8b8:	1480000c 	bnez	a0,0xb8ec
    b8bc:	8ca50010 	lw	a1,16(a1)
    b8c0:	10660029 	beq	v1,a2,0xb968
    b8c4:	00a7202b 	sltu	a0,a1,a3
    b8c8:	0066202b 	sltu	a0,v1,a2
    b8cc:	54800022 	bnezl	a0,0xb958
    b8d0:	2404ffff 	li	a0,-1
    b8d4:	10c3001e 	beq	a2,v1,0xb950
    b8d8:	00e5282b 	sltu	a1,a3,a1
    b8dc:	03e00008 	jr	ra
    b8e0:	00001021 	move	v0,zero
    b8e4:	10c30010 	beq	a2,v1,0xb928
    b8e8:	8c820004 	lw	v0,4(a0)
    b8ec:	24040001 	li	a0,1
    b8f0:	2403ffff 	li	v1,-1
    b8f4:	0082180a 	movz	v1,a0,v0
    b8f8:	03e00008 	jr	ra
    b8fc:	00601021 	move	v0,v1
    b900:	03e00008 	jr	ra
    b904:	24020001 	li	v0,1
    b908:	10c3fff4 	beq	a2,v1,0xb8dc
    b90c:	00000000 	nop
    b910:	8ca20004 	lw	v0,4(a1)
    b914:	2404ffff 	li	a0,-1
    b918:	24030001 	li	v1,1
    b91c:	0082180a 	movz	v1,a0,v0
    b920:	03e00008 	jr	ra
    b924:	00601021 	move	v0,v1
    b928:	8ca30004 	lw	v1,4(a1)
    b92c:	03e00008 	jr	ra
    b930:	00621023 	subu	v0,v1,v0
    b934:	2402ffff 	li	v0,-1
    b938:	03e00008 	jr	ra
    b93c:	0083100b 	movn	v0,a0,v1
    b940:	2404ffff 	li	a0,-1
    b944:	24020001 	li	v0,1
    b948:	03e00008 	jr	ra
    b94c:	0083100b 	movn	v0,a0,v1
    b950:	10a0ffe2 	beqz	a1,0xb8dc
    b954:	2404ffff 	li	a0,-1
    b958:	24030001 	li	v1,1
    b95c:	0082180a 	movz	v1,a0,v0
    b960:	03e00008 	jr	ra
    b964:	00601021 	move	v0,v1
    b968:	5080ffd8 	beqzl	a0,0xb8cc
    b96c:	0066202b 	sltu	a0,v1,a2
    b970:	1000ffdf 	b	0xb8f0
    b974:	24040001 	li	a0,1
    b978:	3c020001 	lui	v0,0x1
    b97c:	8c42c42c 	lw	v0,-15316(v0)
    b980:	2403ffff 	li	v1,-1
    b984:	10430011 	beq	v0,v1,0xb9cc
    b988:	00000000 	nop
    b98c:	27bdfff0 	addiu	sp,sp,-16
    b990:	afb00004 	sw	s0,4(sp)
    b994:	3c100001 	lui	s0,0x1
    b998:	afb10008 	sw	s1,8(sp)
    b99c:	afbf000c 	sw	ra,12(sp)
    b9a0:	2610c42c 	addiu	s0,s0,-15316
    b9a4:	2411ffff 	li	s1,-1
    b9a8:	0040f809 	jalr	v0
    b9ac:	2610fffc 	addiu	s0,s0,-4
    b9b0:	8e020000 	lw	v0,0(s0)
    b9b4:	1451fffc 	bne	v0,s1,0xb9a8
    b9b8:	8fbf000c 	lw	ra,12(sp)
    b9bc:	8fb10008 	lw	s1,8(sp)
    b9c0:	8fb00004 	lw	s0,4(sp)
    b9c4:	03e00008 	jr	ra
    b9c8:	27bd0010 	addiu	sp,sp,16
    b9cc:	03e00008 	jr	ra
    b9d0:	00000000 	nop
    b9d4:	27bdfff8 	addiu	sp,sp,-8
    b9d8:	afbf0004 	sw	ra,4(sp)
    b9dc:	8fbf0004 	lw	ra,4(sp)
    b9e0:	03e00008 	jr	ra
    b9e4:	27bd0008 	addiu	sp,sp,8
Disassembly of section .rel.text:

00000000 <.rel.text>:
       0:	00000028 	0x28
       4:	00000004 	sllv	zero,zero,zero
       8:	00000048 	0x48
       c:	00000004 	sllv	zero,zero,zero
      10:	00000070 	tge	zero,zero,0x1
      14:	00000005 	0x5
      18:	00000078 	0x78
      1c:	00000006 	srlv	zero,zero,zero
      20:	00000088 	0x88
      24:	00000004 	sllv	zero,zero,zero
      28:	00000094 	0x94
      2c:	00000004 	sllv	zero,zero,zero
      30:	00000090 	0x90
      34:	00000005 	0x5
      38:	00000098 	0x98
      3c:	00000006 	srlv	zero,zero,zero
      40:	000000a0 	0xa0
      44:	00000004 	sllv	zero,zero,zero
      48:	000000a8 	0xa8
      4c:	00000004 	sllv	zero,zero,zero
      50:	000000e4 	0xe4
      54:	00000005 	0x5
      58:	000000e8 	0xe8
      5c:	00000006 	srlv	zero,zero,zero
      60:	000000f4 	teq	zero,zero,0x3
      64:	00000006 	srlv	zero,zero,zero
      68:	00000128 	0x128
      6c:	00000004 	sllv	zero,zero,zero
      70:	00000120 	0x120
      74:	00000005 	0x5
      78:	0000012c 	0x12c
      7c:	00000006 	srlv	zero,zero,zero
      80:	00000138 	0x138
      84:	00000004 	sllv	zero,zero,zero
      88:	00000158 	0x158
      8c:	00000005 	0x5
      90:	0000015c 	0x15c
      94:	00000006 	srlv	zero,zero,zero
      98:	00000188 	0x188
      9c:	00000005 	0x5
      a0:	00000190 	0x190
      a4:	00000006 	srlv	zero,zero,zero
      a8:	00000194 	0x194
      ac:	00000004 	sllv	zero,zero,zero
      b0:	0000019c 	0x19c
      b4:	00000005 	0x5
      b8:	000001a4 	0x1a4
      bc:	00000006 	srlv	zero,zero,zero
      c0:	000001a0 	0x1a0
      c4:	00000005 	0x5
      c8:	000001a8 	0x1a8
      cc:	00000006 	srlv	zero,zero,zero
      d0:	000001d0 	0x1d0
      d4:	00000005 	0x5
      d8:	000001d8 	0x1d8
      dc:	00000006 	srlv	zero,zero,zero
      e0:	000001d4 	0x1d4
      e4:	00000005 	0x5
      e8:	000001dc 	0x1dc
      ec:	00000006 	srlv	zero,zero,zero
      f0:	00000220 	0x220
      f4:	00000005 	0x5
      f8:	00000224 	0x224
      fc:	00000006 	srlv	zero,zero,zero
     100:	00000240 	sll	zero,zero,0x9
     104:	00000005 	0x5
     108:	00000244 	0x244
     10c:	00000006 	srlv	zero,zero,zero
     110:	0000023c 	0x23c
     114:	00000005 	0x5
     118:	0000024c 	syscall	0x9
     11c:	00000006 	srlv	zero,zero,zero
     120:	00000254 	0x254
     124:	00000006 	srlv	zero,zero,zero
     128:	00000260 	0x260
     12c:	00000005 	0x5
     130:	00000268 	0x268
     134:	00000006 	srlv	zero,zero,zero
     138:	00000284 	0x284
     13c:	00000006 	srlv	zero,zero,zero
     140:	00000248 	0x248
     144:	00000005 	0x5
     148:	00000288 	0x288
     14c:	00000006 	srlv	zero,zero,zero
     150:	00000298 	0x298
     154:	00000004 	sllv	zero,zero,zero
     158:	000002b0 	tge	zero,zero,0xa
     15c:	00000005 	0x5
     160:	000002b8 	0x2b8
     164:	00000006 	srlv	zero,zero,zero
     168:	000002c0 	sll	zero,zero,0xb
     16c:	00000006 	srlv	zero,zero,zero
     170:	00000300 	sll	zero,zero,0xc
     174:	00000005 	0x5
     178:	0000030c 	syscall	0xc
     17c:	00000006 	srlv	zero,zero,zero
     180:	00000304 	0x304
     184:	00000005 	0x5
     188:	00000318 	0x318
     18c:	00000006 	srlv	zero,zero,zero
     190:	00000320 	0x320
     194:	00000004 	sllv	zero,zero,zero
     198:	00000328 	0x328
     19c:	00000004 	sllv	zero,zero,zero
     1a0:	00000352 	0x352
     1a4:	00000004 	sllv	zero,zero,zero
     1a8:	0000035a 	0x35a
     1ac:	00000005 	0x5
     1b0:	00000362 	0x362
     1b4:	00000006 	srlv	zero,zero,zero
     1b8:	0000035e 	0x35e
     1bc:	00000004 	sllv	zero,zero,zero
     1c0:	00000366 	0x366
     1c4:	00000004 	sllv	zero,zero,zero
     1c8:	00000378 	0x378
     1cc:	00000005 	0x5
     1d0:	0000037c 	0x37c
     1d4:	00000006 	srlv	zero,zero,zero
     1d8:	00000384 	0x384
     1dc:	00000005 	0x5
     1e0:	0000038c 	syscall	0xe
     1e4:	00000006 	srlv	zero,zero,zero
     1e8:	00000380 	sll	zero,zero,0xe
     1ec:	00000005 	0x5
     1f0:	00000394 	0x394
     1f4:	00000006 	srlv	zero,zero,zero
     1f8:	000004a4 	0x4a4
     1fc:	00000005 	0x5
     200:	000004a8 	0x4a8
     204:	00000006 	srlv	zero,zero,zero
     208:	000004bc 	0x4bc
     20c:	00000006 	srlv	zero,zero,zero
     210:	000004c0 	sll	zero,zero,0x13
     214:	00000005 	0x5
     218:	000004c8 	0x4c8
     21c:	00000006 	srlv	zero,zero,zero
     220:	000004d0 	0x4d0
     224:	00000006 	srlv	zero,zero,zero
     228:	000004cc 	syscall	0x13
     22c:	00000005 	0x5
     230:	000004d8 	0x4d8
     234:	00000006 	srlv	zero,zero,zero
     238:	000004e0 	0x4e0
     23c:	00000004 	sllv	zero,zero,zero
     240:	000004dc 	0x4dc
     244:	00000005 	0x5
     248:	000004e4 	0x4e4
     24c:	00000006 	srlv	zero,zero,zero
     250:	000004ec 	0x4ec
     254:	00000005 	0x5
     258:	000004fc 	0x4fc
     25c:	00000006 	srlv	zero,zero,zero
     260:	00000510 	0x510
     264:	00000004 	sllv	zero,zero,zero
     268:	000004c4 	0x4c4
     26c:	00000005 	0x5
     270:	00000518 	0x518
     274:	00000006 	srlv	zero,zero,zero
     278:	00000524 	0x524
     27c:	00000004 	sllv	zero,zero,zero
     280:	00000530 	tge	zero,zero,0x14
     284:	00000004 	sllv	zero,zero,zero
     288:	0000052c 	0x52c
     28c:	00000005 	0x5
     290:	00000534 	teq	zero,zero,0x14
     294:	00000006 	srlv	zero,zero,zero
     298:	0000053c 	0x53c
     29c:	00000005 	0x5
     2a0:	0000054c 	syscall	0x15
     2a4:	00000006 	srlv	zero,zero,zero
     2a8:	00000558 	0x558
     2ac:	00000004 	sllv	zero,zero,zero
     2b0:	00000570 	tge	zero,zero,0x15
     2b4:	00000005 	0x5
     2b8:	00000574 	teq	zero,zero,0x15
     2bc:	00000006 	srlv	zero,zero,zero
     2c0:	00000588 	0x588
     2c4:	00000004 	sllv	zero,zero,zero
     2c8:	0000058c 	syscall	0x16
     2cc:	00000006 	srlv	zero,zero,zero
     2d0:	00000590 	0x590
     2d4:	00000005 	0x5
     2d8:	00000598 	0x598
     2dc:	00000006 	srlv	zero,zero,zero
     2e0:	0000059c 	0x59c
     2e4:	00000005 	0x5
     2e8:	000005a4 	0x5a4
     2ec:	00000006 	srlv	zero,zero,zero
     2f0:	000005a8 	0x5a8
     2f4:	00000005 	0x5
     2f8:	000005b0 	tge	zero,zero,0x16
     2fc:	00000006 	srlv	zero,zero,zero
     300:	000005c0 	sll	zero,zero,0x17
     304:	00000005 	0x5
     308:	000005c8 	0x5c8
     30c:	00000006 	srlv	zero,zero,zero
     310:	000005cc 	syscall	0x17
     314:	00000005 	0x5
     318:	000005d4 	0x5d4
     31c:	00000006 	srlv	zero,zero,zero
     320:	000005d8 	0x5d8
     324:	00000005 	0x5
     328:	000005e0 	0x5e0
     32c:	00000006 	srlv	zero,zero,zero
     330:	000005f0 	tge	zero,zero,0x17
     334:	00000005 	0x5
     338:	000005f4 	teq	zero,zero,0x17
     33c:	00000006 	srlv	zero,zero,zero
     340:	00000600 	sll	zero,zero,0x18
     344:	00000005 	0x5
     348:	00000604 	0x604
     34c:	00000006 	srlv	zero,zero,zero
     350:	00000610 	0x610
     354:	00000005 	0x5
     358:	00000618 	0x618
     35c:	00000006 	srlv	zero,zero,zero
     360:	0000061c 	0x61c
     364:	00000005 	0x5
     368:	00000624 	0x624
     36c:	00000006 	srlv	zero,zero,zero
     370:	00000628 	0x628
     374:	00000005 	0x5
     378:	0000062c 	0x62c
     37c:	00000006 	srlv	zero,zero,zero
     380:	00000630 	tge	zero,zero,0x18
     384:	00000005 	0x5
     388:	0000063c 	0x63c
     38c:	00000006 	srlv	zero,zero,zero
     390:	00000668 	0x668
     394:	00000005 	0x5
     398:	0000066c 	0x66c
     39c:	00000006 	srlv	zero,zero,zero
     3a0:	00000670 	tge	zero,zero,0x19
     3a4:	00000005 	0x5
     3a8:	00000674 	teq	zero,zero,0x19
     3ac:	00000006 	srlv	zero,zero,zero
     3b0:	00000694 	0x694
     3b4:	00000005 	0x5
     3b8:	00000698 	0x698
     3bc:	00000006 	srlv	zero,zero,zero
     3c0:	000006a0 	0x6a0
     3c4:	00000005 	0x5
     3c8:	000006a4 	0x6a4
     3cc:	00000006 	srlv	zero,zero,zero
     3d0:	0000070c 	syscall	0x1c
     3d4:	00000005 	0x5
     3d8:	00000710 	0x710
     3dc:	00000006 	srlv	zero,zero,zero
     3e0:	00000714 	0x714
     3e4:	00000005 	0x5
     3e8:	00000718 	0x718
     3ec:	00000006 	srlv	zero,zero,zero
     3f0:	00000734 	teq	zero,zero,0x1c
     3f4:	00000005 	0x5
     3f8:	00000738 	0x738
     3fc:	00000006 	srlv	zero,zero,zero
     400:	0000073c 	0x73c
     404:	00000005 	0x5
     408:	00000744 	0x744
     40c:	00000006 	srlv	zero,zero,zero
     410:	00000748 	0x748
     414:	00000005 	0x5
     418:	0000074c 	syscall	0x1d
     41c:	00000006 	srlv	zero,zero,zero
     420:	000007b4 	teq	zero,zero,0x1e
     424:	00000005 	0x5
     428:	000007b8 	0x7b8
     42c:	00000006 	srlv	zero,zero,zero
     430:	00000650 	0x650
     434:	00000005 	0x5
     438:	00000820 	add	at,zero,zero
     43c:	00000006 	srlv	zero,zero,zero
     440:	00000658 	0x658
     444:	00000005 	0x5
     448:	00000878 	0x878
     44c:	00000006 	srlv	zero,zero,zero
     450:	000008c4 	0x8c4
     454:	00000005 	0x5
     458:	000008cc 	syscall	0x23
     45c:	00000006 	srlv	zero,zero,zero
     460:	000008f0 	tge	zero,zero,0x23
     464:	00000004 	sllv	zero,zero,zero
     468:	00000910 	0x910
     46c:	00000005 	0x5
     470:	00000914 	0x914
     474:	00000006 	srlv	zero,zero,zero
     478:	00000924 	0x924
     47c:	00000005 	0x5
     480:	0000092c 	0x92c
     484:	00000006 	srlv	zero,zero,zero
     488:	00000944 	0x944
     48c:	00000005 	0x5
     490:	00000954 	0x954
     494:	00000006 	srlv	zero,zero,zero
     498:	00000960 	0x960
     49c:	00000004 	sllv	zero,zero,zero
     4a0:	00000970 	tge	zero,zero,0x25
     4a4:	00000005 	0x5
     4a8:	00000988 	0x988
     4ac:	00000006 	srlv	zero,zero,zero
     4b0:	0000098c 	syscall	0x26
     4b4:	00000005 	0x5
     4b8:	00000990 	0x990
     4bc:	00000006 	srlv	zero,zero,zero
     4c0:	0000099c 	0x99c
     4c4:	00000004 	sllv	zero,zero,zero
     4c8:	000009a0 	0x9a0
     4cc:	00000006 	srlv	zero,zero,zero
     4d0:	00000a0c 	syscall	0x28
     4d4:	00000006 	srlv	zero,zero,zero
     4d8:	00000a10 	0xa10
     4dc:	00000006 	srlv	zero,zero,zero
     4e0:	00000a14 	0xa14
     4e4:	00000006 	srlv	zero,zero,zero
     4e8:	00000a24 	0xa24
     4ec:	00000004 	sllv	zero,zero,zero
     4f0:	00000a3c 	0xa3c
     4f4:	00000006 	srlv	zero,zero,zero
     4f8:	00000a68 	0xa68
     4fc:	00000006 	srlv	zero,zero,zero
     500:	00000aa0 	0xaa0
     504:	00000006 	srlv	zero,zero,zero
     508:	00000ab0 	tge	zero,zero,0x2a
     50c:	00000006 	srlv	zero,zero,zero
     510:	00000994 	0x994
     514:	00000005 	0x5
     518:	00000ab4 	teq	zero,zero,0x2a
     51c:	00000006 	srlv	zero,zero,zero
     520:	000009f8 	0x9f8
     524:	00000005 	0x5
     528:	00000ab8 	0xab8
     52c:	00000006 	srlv	zero,zero,zero
     530:	000009dc 	0x9dc
     534:	00000005 	0x5
     538:	00000ac8 	0xac8
     53c:	00000006 	srlv	zero,zero,zero
     540:	00000ad4 	0xad4
     544:	00000004 	sllv	zero,zero,zero
     548:	000004ac 	0x4ac
     54c:	00000005 	0x5
     550:	00000aec 	0xaec
     554:	00000006 	srlv	zero,zero,zero
     558:	000009f4 	teq	zero,zero,0x27
     55c:	00000005 	0x5
     560:	00000af0 	tge	zero,zero,0x2b
     564:	00000006 	srlv	zero,zero,zero
     568:	0000057c 	0x57c
     56c:	00000005 	0x5
     570:	00000afc 	0xafc
     574:	00000006 	srlv	zero,zero,zero
     578:	00000a04 	0xa04
     57c:	00000005 	0x5
     580:	00000b00 	sll	at,zero,0xc
     584:	00000006 	srlv	zero,zero,zero
     588:	00000b20 	0xb20
     58c:	00000004 	sllv	zero,zero,zero
     590:	000009ec 	0x9ec
     594:	00000005 	0x5
     598:	00000b2c 	0xb2c
     59c:	00000006 	srlv	zero,zero,zero
     5a0:	00000b70 	tge	zero,zero,0x2d
     5a4:	00000005 	0x5
     5a8:	00000b74 	teq	zero,zero,0x2d
     5ac:	00000006 	srlv	zero,zero,zero
     5b0:	00000b7c 	0xb7c
     5b4:	00000005 	0x5
     5b8:	00000b80 	sll	at,zero,0xe
     5bc:	00000006 	srlv	zero,zero,zero
     5c0:	00000b8c 	syscall	0x2e
     5c4:	00000004 	sllv	zero,zero,zero
     5c8:	00000b9c 	0xb9c
     5cc:	00000005 	0x5
     5d0:	00000ba8 	0xba8
     5d4:	00000006 	srlv	zero,zero,zero
     5d8:	00000bac 	0xbac
     5dc:	00000005 	0x5
     5e0:	00000bb4 	teq	zero,zero,0x2e
     5e4:	00000006 	srlv	zero,zero,zero
     5e8:	00000bb8 	0xbb8
     5ec:	00000005 	0x5
     5f0:	00000bbc 	0xbbc
     5f4:	00000006 	srlv	zero,zero,zero
     5f8:	00000bc8 	0xbc8
     5fc:	00000004 	sllv	zero,zero,zero
     600:	00000bd8 	0xbd8
     604:	00000005 	0x5
     608:	00000bdc 	0xbdc
     60c:	00000006 	srlv	zero,zero,zero
     610:	00000bf4 	teq	zero,zero,0x2f
     614:	00000004 	sllv	zero,zero,zero
     618:	00000c0c 	syscall	0x30
     61c:	00000004 	sllv	zero,zero,zero
     620:	00000c54 	0xc54
     624:	00000004 	sllv	zero,zero,zero
     628:	00000c60 	0xc60
     62c:	00000004 	sllv	zero,zero,zero
     630:	00000c80 	sll	at,zero,0x12
     634:	00000004 	sllv	zero,zero,zero
     638:	00000c98 	0xc98
     63c:	00000004 	sllv	zero,zero,zero
     640:	00000ca0 	0xca0
     644:	00000005 	0x5
     648:	00000ca4 	0xca4
     64c:	00000006 	srlv	zero,zero,zero
     650:	00000cbc 	0xcbc
     654:	00000004 	sllv	zero,zero,zero
     658:	00000d28 	0xd28
     65c:	00000004 	sllv	zero,zero,zero
     660:	00000d68 	0xd68
     664:	00000004 	sllv	zero,zero,zero
     668:	00000dc4 	0xdc4
     66c:	00000005 	0x5
     670:	00000dcc 	syscall	0x37
     674:	00000006 	srlv	zero,zero,zero
     678:	00000dc8 	0xdc8
     67c:	00000004 	sllv	zero,zero,zero
     680:	00000dec 	0xdec
     684:	00000004 	sllv	zero,zero,zero
     688:	00000dfc 	0xdfc
     68c:	00000004 	sllv	zero,zero,zero
     690:	00000e04 	0xe04
     694:	00000004 	sllv	zero,zero,zero
     698:	00000e14 	0xe14
     69c:	00000004 	sllv	zero,zero,zero
     6a0:	00000e24 	0xe24
     6a4:	00000004 	sllv	zero,zero,zero
     6a8:	00000e40 	sll	at,zero,0x19
     6ac:	00000004 	sllv	zero,zero,zero
     6b0:	00000e4c 	syscall	0x39
     6b4:	00000004 	sllv	zero,zero,zero
     6b8:	00000e54 	0xe54
     6bc:	00000005 	0x5
     6c0:	00000e58 	0xe58
     6c4:	00000006 	srlv	zero,zero,zero
     6c8:	00000e64 	0xe64
     6cc:	00000005 	0x5
     6d0:	00000e68 	0xe68
     6d4:	00000006 	srlv	zero,zero,zero
     6d8:	00000e7c 	0xe7c
     6dc:	00000005 	0x5
     6e0:	00000e80 	sll	at,zero,0x1a
     6e4:	00000006 	srlv	zero,zero,zero
     6e8:	00000e90 	0xe90
     6ec:	00000005 	0x5
     6f0:	00000e98 	0xe98
     6f4:	00000006 	srlv	zero,zero,zero
     6f8:	00000ea8 	0xea8
     6fc:	00000005 	0x5
     700:	00000eac 	0xeac
     704:	00000006 	srlv	zero,zero,zero
     708:	00000ec4 	0xec4
     70c:	00000005 	0x5
     710:	00000ec8 	0xec8
     714:	00000006 	srlv	zero,zero,zero
     718:	00000ef8 	0xef8
     71c:	00000005 	0x5
     720:	00000efc 	0xefc
     724:	00000006 	srlv	zero,zero,zero
     728:	00000f0c 	syscall	0x3c
     72c:	00000004 	sllv	zero,zero,zero
     730:	00000f20 	0xf20
     734:	00000005 	0x5
     738:	00000f24 	0xf24
     73c:	00000006 	srlv	zero,zero,zero
     740:	00000f28 	0xf28
     744:	00000005 	0x5
     748:	00000f2c 	0xf2c
     74c:	00000006 	srlv	zero,zero,zero
     750:	00000f48 	0xf48
     754:	00000005 	0x5
     758:	00000f4c 	syscall	0x3d
     75c:	00000006 	srlv	zero,zero,zero
     760:	00000f5c 	0xf5c
     764:	00000005 	0x5
     768:	00000f60 	0xf60
     76c:	00000006 	srlv	zero,zero,zero
     770:	00000f78 	0xf78
     774:	00000005 	0x5
     778:	00000f7c 	0xf7c
     77c:	00000006 	srlv	zero,zero,zero
     780:	00000f80 	sll	at,zero,0x1e
     784:	00000004 	sllv	zero,zero,zero
     788:	00000f88 	0xf88
     78c:	00000005 	0x5
     790:	00000f90 	0xf90
     794:	00000006 	srlv	zero,zero,zero
     798:	00000f94 	0xf94
     79c:	00000004 	sllv	zero,zero,zero
     7a0:	00000fa0 	0xfa0
     7a4:	00000005 	0x5
     7a8:	00000fa4 	0xfa4
     7ac:	00000006 	srlv	zero,zero,zero
     7b0:	00000fa8 	0xfa8
     7b4:	00000005 	0x5
     7b8:	00000fac 	0xfac
     7bc:	00000006 	srlv	zero,zero,zero
     7c0:	00000fb0 	tge	zero,zero,0x3e
     7c4:	00000005 	0x5
     7c8:	00000fb4 	teq	zero,zero,0x3e
     7cc:	00000006 	srlv	zero,zero,zero
     7d0:	00000fc0 	sll	at,zero,0x1f
     7d4:	00000005 	0x5
     7d8:	00000fc4 	0xfc4
     7dc:	00000006 	srlv	zero,zero,zero
     7e0:	00000fd8 	0xfd8
     7e4:	00000004 	sllv	zero,zero,zero
     7e8:	00000fe8 	0xfe8
     7ec:	00000005 	0x5
     7f0:	00000fec 	0xfec
     7f4:	00000006 	srlv	zero,zero,zero
     7f8:	00000ff4 	teq	zero,zero,0x3f
     7fc:	00000004 	sllv	zero,zero,zero
     800:	00001000 	sll	v0,zero,0x0
     804:	00000005 	0x5
     808:	00001004 	sllv	v0,zero,zero
     80c:	00000006 	srlv	zero,zero,zero
     810:	00001008 	0x1008
     814:	00000004 	sllv	zero,zero,zero
     818:	00001010 	mfhi	v0
     81c:	00000004 	sllv	zero,zero,zero
     820:	00001020 	add	v0,zero,zero
     824:	00000005 	0x5
     828:	00001024 	and	v0,zero,zero
     82c:	00000006 	srlv	zero,zero,zero
     830:	00001030 	tge	zero,zero,0x40
     834:	00000005 	0x5
     838:	00001034 	teq	zero,zero,0x40
     83c:	00000006 	srlv	zero,zero,zero
     840:	0000103c 	0x103c
     844:	00000004 	sllv	zero,zero,zero
     848:	0000104c 	syscall	0x41
     84c:	00000005 	0x5
     850:	00001050 	0x1050
     854:	00000006 	srlv	zero,zero,zero
     858:	00001054 	0x1054
     85c:	00000005 	0x5
     860:	00001058 	0x1058
     864:	00000006 	srlv	zero,zero,zero
     868:	00001064 	0x1064
     86c:	00000005 	0x5
     870:	00001068 	0x1068
     874:	00000006 	srlv	zero,zero,zero
     878:	00001070 	tge	zero,zero,0x41
     87c:	00000004 	sllv	zero,zero,zero
     880:	00001080 	sll	v0,zero,0x2
     884:	00000005 	0x5
     888:	00001084 	0x1084
     88c:	00000006 	srlv	zero,zero,zero
     890:	00001088 	0x1088
     894:	00000005 	0x5
     898:	0000108c 	syscall	0x42
     89c:	00000006 	srlv	zero,zero,zero
     8a0:	00001098 	0x1098
     8a4:	00000005 	0x5
     8a8:	0000109c 	0x109c
     8ac:	00000006 	srlv	zero,zero,zero
     8b0:	000010bc 	0x10bc
     8b4:	00000004 	sllv	zero,zero,zero
     8b8:	000010c4 	0x10c4
     8bc:	00000005 	0x5
     8c0:	000010c8 	0x10c8
     8c4:	00000006 	srlv	zero,zero,zero
     8c8:	000010fc 	0x10fc
     8cc:	00000005 	0x5
     8d0:	00001100 	sll	v0,zero,0x4
     8d4:	00000006 	srlv	zero,zero,zero
     8d8:	0000111c 	0x111c
     8dc:	00000004 	sllv	zero,zero,zero
     8e0:	00001138 	0x1138
     8e4:	00000004 	sllv	zero,zero,zero
     8e8:	00001140 	sll	v0,zero,0x5
     8ec:	00000004 	sllv	zero,zero,zero
     8f0:	00001184 	0x1184
     8f4:	00000005 	0x5
     8f8:	00001188 	0x1188
     8fc:	00000006 	srlv	zero,zero,zero
     900:	000011a0 	0x11a0
     904:	00000004 	sllv	zero,zero,zero
     908:	000011d0 	0x11d0
     90c:	00000005 	0x5
     910:	000011d4 	0x11d4
     914:	00000006 	srlv	zero,zero,zero
     918:	000011f8 	0x11f8
     91c:	00000004 	sllv	zero,zero,zero
     920:	00001220 	0x1220
     924:	00000004 	sllv	zero,zero,zero
     928:	00001228 	0x1228
     92c:	00000004 	sllv	zero,zero,zero
     930:	00001258 	0x1258
     934:	00000004 	sllv	zero,zero,zero
     938:	00001288 	0x1288
     93c:	00000005 	0x5
     940:	0000128c 	syscall	0x4a
     944:	00000006 	srlv	zero,zero,zero
     948:	000012e0 	0x12e0
     94c:	00000004 	sllv	zero,zero,zero
     950:	00001300 	sll	v0,zero,0xc
     954:	00000004 	sllv	zero,zero,zero
     958:	000013f4 	teq	zero,zero,0x4f
     95c:	00000005 	0x5
     960:	000013f8 	0x13f8
     964:	00000006 	srlv	zero,zero,zero
     968:	00001420 	0x1420
     96c:	00000005 	0x5
     970:	00001424 	0x1424
     974:	00000006 	srlv	zero,zero,zero
     978:	00001438 	0x1438
     97c:	00000004 	sllv	zero,zero,zero
     980:	000014f0 	tge	zero,zero,0x53
     984:	00000005 	0x5
     988:	000014f4 	teq	zero,zero,0x53
     98c:	00000006 	srlv	zero,zero,zero
     990:	00001504 	0x1504
     994:	00000005 	0x5
     998:	00001508 	0x1508
     99c:	00000006 	srlv	zero,zero,zero
     9a0:	00001604 	0x1604
     9a4:	00000004 	sllv	zero,zero,zero
     9a8:	00001690 	0x1690
     9ac:	00000005 	0x5
     9b0:	00001698 	0x1698
     9b4:	00000006 	srlv	zero,zero,zero
     9b8:	000016a0 	0x16a0
     9bc:	00000005 	0x5
     9c0:	000016a8 	0x16a8
     9c4:	00000006 	srlv	zero,zero,zero
     9c8:	000016a4 	0x16a4
     9cc:	00000004 	sllv	zero,zero,zero
     9d0:	000016b0 	tge	zero,zero,0x5a
     9d4:	00000005 	0x5
     9d8:	000016b8 	0x16b8
     9dc:	00000006 	srlv	zero,zero,zero
     9e0:	000016b4 	teq	zero,zero,0x5a
     9e4:	00000004 	sllv	zero,zero,zero
     9e8:	00001704 	0x1704
     9ec:	00000004 	sllv	zero,zero,zero
     9f0:	00001714 	0x1714
     9f4:	00000005 	0x5
     9f8:	00001718 	0x1718
     9fc:	00000006 	srlv	zero,zero,zero
     a00:	00001734 	teq	zero,zero,0x5c
     a04:	00000005 	0x5
     a08:	00001738 	0x1738
     a0c:	00000006 	srlv	zero,zero,zero
     a10:	00001890 	0x1890
     a14:	00000004 	sllv	zero,zero,zero
     a18:	000018b8 	0x18b8
     a1c:	00000004 	sllv	zero,zero,zero
     a20:	000018f4 	teq	zero,zero,0x63
     a24:	00000005 	0x5
     a28:	000018f8 	0x18f8
     a2c:	00000006 	srlv	zero,zero,zero
     a30:	000019dc 	0x19dc
     a34:	00000004 	sllv	zero,zero,zero
     a38:	00001a28 	0x1a28
     a3c:	00000004 	sllv	zero,zero,zero
     a40:	00001a60 	0x1a60
     a44:	00000005 	0x5
     a48:	00001a64 	0x1a64
     a4c:	00000006 	srlv	zero,zero,zero
     a50:	00001a68 	0x1a68
     a54:	00000005 	0x5
     a58:	00001a6c 	0x1a6c
     a5c:	00000006 	srlv	zero,zero,zero
     a60:	00001a90 	0x1a90
     a64:	00000004 	sllv	zero,zero,zero
     a68:	00001ab4 	teq	zero,zero,0x6a
     a6c:	00000005 	0x5
     a70:	00001ab8 	0x1ab8
     a74:	00000006 	srlv	zero,zero,zero
     a78:	00001ad0 	0x1ad0
     a7c:	00000005 	0x5
     a80:	00001ad4 	0x1ad4
     a84:	00000006 	srlv	zero,zero,zero
     a88:	00001b1c 	0x1b1c
     a8c:	00000004 	sllv	zero,zero,zero
     a90:	00001b98 	0x1b98
     a94:	00000005 	0x5
     a98:	00001b9c 	0x1b9c
     a9c:	00000006 	srlv	zero,zero,zero
     aa0:	00001bac 	0x1bac
     aa4:	00000005 	0x5
     aa8:	00001bb0 	tge	zero,zero,0x6e
     aac:	00000006 	srlv	zero,zero,zero
     ab0:	00001bb4 	teq	zero,zero,0x6e
     ab4:	00000005 	0x5
     ab8:	00001bb8 	0x1bb8
     abc:	00000006 	srlv	zero,zero,zero
     ac0:	00001bc8 	0x1bc8
     ac4:	00000005 	0x5
     ac8:	00001bcc 	syscall	0x6f
     acc:	00000006 	srlv	zero,zero,zero
     ad0:	00001bf0 	tge	zero,zero,0x6f
     ad4:	00000004 	sllv	zero,zero,zero
     ad8:	00001c14 	0x1c14
     adc:	00000004 	sllv	zero,zero,zero
     ae0:	00001db0 	tge	zero,zero,0x76
     ae4:	00000004 	sllv	zero,zero,zero
     ae8:	00001df0 	tge	zero,zero,0x77
     aec:	00000004 	sllv	zero,zero,zero
     af0:	00001e3c 	0x1e3c
     af4:	00000005 	0x5
     af8:	00001e40 	sll	v1,zero,0x19
     afc:	00000006 	srlv	zero,zero,zero
     b00:	00001ee0 	0x1ee0
     b04:	00000005 	0x5
     b08:	00001ee4 	0x1ee4
     b0c:	00000006 	srlv	zero,zero,zero
     b10:	00001f38 	0x1f38
     b14:	00000004 	sllv	zero,zero,zero
     b18:	000020b0 	tge	zero,zero,0x82
     b1c:	00000005 	0x5
     b20:	000020b4 	teq	zero,zero,0x82
     b24:	00000006 	srlv	zero,zero,zero
     b28:	000020b8 	0x20b8
     b2c:	00000004 	sllv	zero,zero,zero
     b30:	000020d8 	0x20d8
     b34:	00000005 	0x5
     b38:	000020dc 	0x20dc
     b3c:	00000006 	srlv	zero,zero,zero
     b40:	00002130 	tge	zero,zero,0x84
     b44:	00000004 	sllv	zero,zero,zero
     b48:	00002140 	sll	a0,zero,0x5
     b4c:	00000004 	sllv	zero,zero,zero
     b50:	00002258 	0x2258
     b54:	00000005 	0x5
     b58:	0000225c 	0x225c
     b5c:	00000006 	srlv	zero,zero,zero
     b60:	000022a8 	0x22a8
     b64:	00000004 	sllv	zero,zero,zero
     b68:	000022d4 	0x22d4
     b6c:	00000004 	sllv	zero,zero,zero
     b70:	00002590 	0x2590
     b74:	00000005 	0x5
     b78:	00002594 	0x2594
     b7c:	00000006 	srlv	zero,zero,zero
     b80:	000026ac 	0x26ac
     b84:	00000004 	sllv	zero,zero,zero
     b88:	0000279c 	0x279c
     b8c:	00000004 	sllv	zero,zero,zero
     b90:	0000287c 	0x287c
     b94:	00000005 	0x5
     b98:	00002880 	sll	a1,zero,0x2
     b9c:	00000006 	srlv	zero,zero,zero
     ba0:	00002920 	0x2920
     ba4:	00000004 	sllv	zero,zero,zero
     ba8:	00002940 	sll	a1,zero,0x5
     bac:	00000004 	sllv	zero,zero,zero
     bb0:	00002960 	0x2960
     bb4:	00000005 	0x5
     bb8:	00002964 	0x2964
     bbc:	00000006 	srlv	zero,zero,zero
     bc0:	00002968 	0x2968
     bc4:	00000005 	0x5
     bc8:	0000296c 	0x296c
     bcc:	00000006 	srlv	zero,zero,zero
     bd0:	00002a88 	0x2a88
     bd4:	00000005 	0x5
     bd8:	00002a8c 	syscall	0xaa
     bdc:	00000006 	srlv	zero,zero,zero
     be0:	00002b84 	0x2b84
     be4:	00000004 	sllv	zero,zero,zero
     be8:	00002ba4 	0x2ba4
     bec:	00000004 	sllv	zero,zero,zero
     bf0:	00002c2c 	0x2c2c
     bf4:	00000004 	sllv	zero,zero,zero
     bf8:	00002c48 	0x2c48
     bfc:	00000005 	0x5
     c00:	00002c4c 	syscall	0xb1
     c04:	00000006 	srlv	zero,zero,zero
     c08:	00002cdc 	0x2cdc
     c0c:	00000005 	0x5
     c10:	00002ce0 	0x2ce0
     c14:	00000006 	srlv	zero,zero,zero
     c18:	00002d38 	0x2d38
     c1c:	00000004 	sllv	zero,zero,zero
     c20:	00002d68 	0x2d68
     c24:	00000005 	0x5
     c28:	00002d6c 	0x2d6c
     c2c:	00000006 	srlv	zero,zero,zero
     c30:	00002dc8 	0x2dc8
     c34:	00000004 	sllv	zero,zero,zero
     c38:	00002e4c 	syscall	0xb9
     c3c:	00000005 	0x5
     c40:	00002e50 	0x2e50
     c44:	00000006 	srlv	zero,zero,zero
     c48:	00002eb0 	tge	zero,zero,0xba
     c4c:	00000004 	sllv	zero,zero,zero
     c50:	00002fa8 	0x2fa8
     c54:	00000004 	sllv	zero,zero,zero
     c58:	00003020 	add	a2,zero,zero
     c5c:	00000004 	sllv	zero,zero,zero
     c60:	00003040 	sll	a2,zero,0x1
     c64:	00000005 	0x5
     c68:	00003044 	0x3044
     c6c:	00000006 	srlv	zero,zero,zero
     c70:	000030b0 	tge	zero,zero,0xc2
     c74:	00000004 	sllv	zero,zero,zero
     c78:	0000312c 	0x312c
     c7c:	00000004 	sllv	zero,zero,zero
     c80:	00003164 	0x3164
     c84:	00000004 	sllv	zero,zero,zero
     c88:	0000318c 	syscall	0xc6
     c8c:	00000005 	0x5
     c90:	00003190 	0x3190
     c94:	00000006 	srlv	zero,zero,zero
     c98:	000031e4 	0x31e4
     c9c:	00000004 	sllv	zero,zero,zero
     ca0:	00003234 	teq	zero,zero,0xc8
     ca4:	00000004 	sllv	zero,zero,zero
     ca8:	00003380 	sll	a2,zero,0xe
     cac:	00000005 	0x5
     cb0:	00003384 	0x3384
     cb4:	00000006 	srlv	zero,zero,zero
     cb8:	000033e4 	0x33e4
     cbc:	00000004 	sllv	zero,zero,zero
     cc0:	00003408 	0x3408
     cc4:	00000004 	sllv	zero,zero,zero
     cc8:	00003448 	0x3448
     ccc:	00000004 	sllv	zero,zero,zero
     cd0:	00003490 	0x3490
     cd4:	00000004 	sllv	zero,zero,zero
     cd8:	000034d0 	0x34d0
     cdc:	00000004 	sllv	zero,zero,zero
     ce0:	000034e8 	0x34e8
     ce4:	00000005 	0x5
     ce8:	000034ec 	0x34ec
     cec:	00000006 	srlv	zero,zero,zero
     cf0:	000034f0 	tge	zero,zero,0xd3
     cf4:	00000005 	0x5
     cf8:	000034f4 	teq	zero,zero,0xd3
     cfc:	00000006 	srlv	zero,zero,zero
     d00:	00003600 	sll	a2,zero,0x18
     d04:	00000004 	sllv	zero,zero,zero
     d08:	0000362c 	0x362c
     d0c:	00000004 	sllv	zero,zero,zero
     d10:	00003668 	0x3668
     d14:	00000004 	sllv	zero,zero,zero
     d18:	0000369c 	0x369c
     d1c:	00000004 	sllv	zero,zero,zero
     d20:	000036c0 	sll	a2,zero,0x1b
     d24:	00000005 	0x5
     d28:	000036c4 	0x36c4
     d2c:	00000006 	srlv	zero,zero,zero
     d30:	00003770 	tge	zero,zero,0xdd
     d34:	00000004 	sllv	zero,zero,zero
     d38:	00003790 	0x3790
     d3c:	00000004 	sllv	zero,zero,zero
     d40:	000037bc 	0x37bc
     d44:	00000004 	sllv	zero,zero,zero
     d48:	000037f4 	teq	zero,zero,0xdf
     d4c:	00000005 	0x5
     d50:	000037f8 	0x37f8
     d54:	00000006 	srlv	zero,zero,zero
     d58:	00003914 	0x3914
     d5c:	00000004 	sllv	zero,zero,zero
     d60:	00003a88 	0x3a88
     d64:	00000005 	0x5
     d68:	00003a8c 	syscall	0xea
     d6c:	00000006 	srlv	zero,zero,zero
     d70:	00003ab4 	teq	zero,zero,0xea
     d74:	00000004 	sllv	zero,zero,zero
     d78:	00003ad8 	0x3ad8
     d7c:	00000004 	sllv	zero,zero,zero
     d80:	00003b74 	teq	zero,zero,0xed
     d84:	00000004 	sllv	zero,zero,zero
     d88:	00003bb0 	tge	zero,zero,0xee
     d8c:	00000004 	sllv	zero,zero,zero
     d90:	00003bec 	0x3bec
     d94:	00000004 	sllv	zero,zero,zero
     d98:	00003ca4 	0x3ca4
     d9c:	00000005 	0x5
     da0:	00003ca8 	0x3ca8
     da4:	00000006 	srlv	zero,zero,zero
     da8:	00003d00 	sll	a3,zero,0x14
     dac:	00000004 	sllv	zero,zero,zero
     db0:	00003d24 	0x3d24
     db4:	00000004 	sllv	zero,zero,zero
     db8:	00003d4c 	syscall	0xf5
     dbc:	00000004 	sllv	zero,zero,zero
     dc0:	00003d74 	teq	zero,zero,0xf5
     dc4:	00000004 	sllv	zero,zero,zero
     dc8:	00003df0 	tge	zero,zero,0xf7
     dcc:	00000005 	0x5
     dd0:	00003df4 	teq	zero,zero,0xf7
     dd4:	00000006 	srlv	zero,zero,zero
     dd8:	00003e4c 	syscall	0xf9
     ddc:	00000004 	sllv	zero,zero,zero
     de0:	00003e98 	0x3e98
     de4:	00000005 	0x5
     de8:	00003e9c 	0x3e9c
     dec:	00000006 	srlv	zero,zero,zero
     df0:	00003ee4 	0x3ee4
     df4:	00000004 	sllv	zero,zero,zero
     df8:	00003f40 	sll	a3,zero,0x1d
     dfc:	00000004 	sllv	zero,zero,zero
     e00:	00003fa8 	0x3fa8
     e04:	00000004 	sllv	zero,zero,zero
     e08:	00003fc4 	0x3fc4
     e0c:	00000005 	0x5
     e10:	00003fc8 	0x3fc8
     e14:	00000006 	srlv	zero,zero,zero
     e18:	00004050 	0x4050
     e1c:	00000004 	sllv	zero,zero,zero
     e20:	00004060 	0x4060
     e24:	00000004 	sllv	zero,zero,zero
     e28:	00004074 	teq	zero,zero,0x101
     e2c:	00000004 	sllv	zero,zero,zero
     e30:	000044c4 	0x44c4
     e34:	00000005 	0x5
     e38:	000044cc 	syscall	0x113
     e3c:	00000006 	srlv	zero,zero,zero
     e40:	000044c8 	0x44c8
     e44:	00000004 	sllv	zero,zero,zero
     e48:	000044dc 	0x44dc
     e4c:	00000005 	0x5
     e50:	000044e0 	0x44e0
     e54:	00000006 	srlv	zero,zero,zero
     e58:	000044e4 	0x44e4
     e5c:	00000004 	sllv	zero,zero,zero
     e60:	000045d8 	0x45d8
     e64:	00000005 	0x5
     e68:	000045e0 	0x45e0
     e6c:	00000006 	srlv	zero,zero,zero
     e70:	000045dc 	0x45dc
     e74:	00000004 	sllv	zero,zero,zero
     e78:	000045f0 	tge	zero,zero,0x117
     e7c:	00000005 	0x5
     e80:	000045f4 	teq	zero,zero,0x117
     e84:	00000006 	srlv	zero,zero,zero
     e88:	000045f8 	0x45f8
     e8c:	00000004 	sllv	zero,zero,zero
     e90:	00004710 	0x4710
     e94:	00000004 	sllv	zero,zero,zero
     e98:	00004740 	sll	t0,zero,0x1d
     e9c:	00000004 	sllv	zero,zero,zero
     ea0:	000047ec 	0x47ec
     ea4:	00000004 	sllv	zero,zero,zero
     ea8:	000047fc 	0x47fc
     eac:	00000004 	sllv	zero,zero,zero
     eb0:	0000480c 	syscall	0x120
     eb4:	00000004 	sllv	zero,zero,zero
     eb8:	00004814 	0x4814
     ebc:	00000004 	sllv	zero,zero,zero
     ec0:	0000481c 	0x481c
     ec4:	00000005 	0x5
     ec8:	00004820 	add	t1,zero,zero
     ecc:	00000006 	srlv	zero,zero,zero
     ed0:	00004824 	and	t1,zero,zero
     ed4:	00000004 	sllv	zero,zero,zero
     ed8:	0000483c 	0x483c
     edc:	00000004 	sllv	zero,zero,zero
     ee0:	00004854 	0x4854
     ee4:	00000004 	sllv	zero,zero,zero
     ee8:	000049b0 	tge	zero,zero,0x126
     eec:	00000004 	sllv	zero,zero,zero
     ef0:	00004b30 	tge	zero,zero,0x12c
     ef4:	00000004 	sllv	zero,zero,zero
     ef8:	00004b68 	0x4b68
     efc:	00000004 	sllv	zero,zero,zero
     f00:	00004b8c 	syscall	0x12e
     f04:	00000005 	0x5
     f08:	00004b90 	0x4b90
     f0c:	00000006 	srlv	zero,zero,zero
     f10:	00004b98 	0x4b98
     f14:	00000005 	0x5
     f18:	00004b9c 	0x4b9c
     f1c:	00000006 	srlv	zero,zero,zero
     f20:	00004be8 	0x4be8
     f24:	00000004 	sllv	zero,zero,zero
     f28:	00004c2c 	0x4c2c
     f2c:	00000004 	sllv	zero,zero,zero
     f30:	00004c44 	0x4c44
     f34:	00000005 	0x5
     f38:	00004c48 	0x4c48
     f3c:	00000006 	srlv	zero,zero,zero
     f40:	00004c4c 	syscall	0x131
     f44:	00000005 	0x5
     f48:	00004c50 	0x4c50
     f4c:	00000006 	srlv	zero,zero,zero
     f50:	00004c58 	0x4c58
     f54:	00000004 	sllv	zero,zero,zero
     f58:	00004c60 	0x4c60
     f5c:	00000005 	0x5
     f60:	00004c64 	0x4c64
     f64:	00000006 	srlv	zero,zero,zero
     f68:	00004c68 	0x4c68
     f6c:	00000005 	0x5
     f70:	00004c6c 	0x4c6c
     f74:	00000006 	srlv	zero,zero,zero
     f78:	00004c74 	teq	zero,zero,0x131
     f7c:	00000004 	sllv	zero,zero,zero
     f80:	00004c7c 	0x4c7c
     f84:	00000005 	0x5
     f88:	00004c80 	sll	t1,zero,0x12
     f8c:	00000006 	srlv	zero,zero,zero
     f90:	00004c84 	0x4c84
     f94:	00000005 	0x5
     f98:	00004c88 	0x4c88
     f9c:	00000006 	srlv	zero,zero,zero
     fa0:	00004c90 	0x4c90
     fa4:	00000004 	sllv	zero,zero,zero
     fa8:	00004ca0 	0x4ca0
     fac:	00000004 	sllv	zero,zero,zero
     fb0:	00004ca8 	0x4ca8
     fb4:	00000005 	0x5
     fb8:	00004cac 	0x4cac
     fbc:	00000006 	srlv	zero,zero,zero
     fc0:	00004cb0 	tge	zero,zero,0x132
     fc4:	00000005 	0x5
     fc8:	00004cb4 	teq	zero,zero,0x132
     fcc:	00000006 	srlv	zero,zero,zero
     fd0:	00004cbc 	0x4cbc
     fd4:	00000004 	sllv	zero,zero,zero
     fd8:	00004cd0 	0x4cd0
     fdc:	00000004 	sllv	zero,zero,zero
     fe0:	00004ce4 	0x4ce4
     fe4:	00000004 	sllv	zero,zero,zero
     fe8:	00004cfc 	0x4cfc
     fec:	00000004 	sllv	zero,zero,zero
     ff0:	00004d0c 	syscall	0x134
     ff4:	00000004 	sllv	zero,zero,zero
     ff8:	00004d20 	0x4d20
     ffc:	00000004 	sllv	zero,zero,zero
    1000:	00004d50 	0x4d50
    1004:	00000005 	0x5
    1008:	00004d54 	0x4d54
    100c:	00000006 	srlv	zero,zero,zero
    1010:	00004d68 	0x4d68
    1014:	00000004 	sllv	zero,zero,zero
    1018:	00004e3c 	0x4e3c
    101c:	00000004 	sllv	zero,zero,zero
    1020:	00004e70 	tge	zero,zero,0x139
    1024:	00000005 	0x5
    1028:	00004e74 	teq	zero,zero,0x139
    102c:	00000006 	srlv	zero,zero,zero
    1030:	00004e94 	0x4e94
    1034:	00000005 	0x5
    1038:	00004e98 	0x4e98
    103c:	00000006 	srlv	zero,zero,zero
    1040:	00004ec0 	sll	t1,zero,0x1b
    1044:	00000004 	sllv	zero,zero,zero
    1048:	00004ee4 	0x4ee4
    104c:	00000004 	sllv	zero,zero,zero
    1050:	00004f00 	sll	t1,zero,0x1c
    1054:	00000005 	0x5
    1058:	00004f04 	0x4f04
    105c:	00000006 	srlv	zero,zero,zero
    1060:	00004f08 	0x4f08
    1064:	00000005 	0x5
    1068:	00004f0c 	syscall	0x13c
    106c:	00000006 	srlv	zero,zero,zero
    1070:	00004f10 	0x4f10
    1074:	00000004 	sllv	zero,zero,zero
    1078:	00004f20 	0x4f20
    107c:	00000004 	sllv	zero,zero,zero
    1080:	00004f34 	teq	zero,zero,0x13c
    1084:	00000004 	sllv	zero,zero,zero
    1088:	00004f3c 	0x4f3c
    108c:	00000005 	0x5
    1090:	00004f40 	sll	t1,zero,0x1d
    1094:	00000006 	srlv	zero,zero,zero
    1098:	00004f44 	0x4f44
    109c:	00000005 	0x5
    10a0:	00004f48 	0x4f48
    10a4:	00000006 	srlv	zero,zero,zero
    10a8:	00004f50 	0x4f50
    10ac:	00000004 	sllv	zero,zero,zero
    10b0:	00004f80 	sll	t1,zero,0x1e
    10b4:	00000004 	sllv	zero,zero,zero
    10b8:	00004f8c 	syscall	0x13e
    10bc:	00000004 	sllv	zero,zero,zero
    10c0:	00004fa0 	0x4fa0
    10c4:	00000004 	sllv	zero,zero,zero
    10c8:	00004fc0 	sll	t1,zero,0x1f
    10cc:	00000005 	0x5
    10d0:	00004fc4 	0x4fc4
    10d4:	00000006 	srlv	zero,zero,zero
    10d8:	00004fe8 	0x4fe8
    10dc:	00000005 	0x5
    10e0:	00004fec 	0x4fec
    10e4:	00000006 	srlv	zero,zero,zero
    10e8:	00004ff0 	tge	zero,zero,0x13f
    10ec:	00000005 	0x5
    10f0:	00004ff8 	0x4ff8
    10f4:	00000006 	srlv	zero,zero,zero
    10f8:	00004ff4 	teq	zero,zero,0x13f
    10fc:	00000004 	sllv	zero,zero,zero
    1100:	00005008 	0x5008
    1104:	00000004 	sllv	zero,zero,zero
    1108:	00005028 	0x5028
    110c:	00000004 	sllv	zero,zero,zero
    1110:	00005038 	0x5038
    1114:	00000005 	0x5
    1118:	0000503c 	0x503c
    111c:	00000006 	srlv	zero,zero,zero
    1120:	00005040 	sll	t2,zero,0x1
    1124:	00000005 	0x5
    1128:	00005044 	0x5044
    112c:	00000006 	srlv	zero,zero,zero
    1130:	00005048 	0x5048
    1134:	00000004 	sllv	zero,zero,zero
    1138:	0000505c 	0x505c
    113c:	00000004 	sllv	zero,zero,zero
    1140:	0000507c 	0x507c
    1144:	00000005 	0x5
    1148:	00005080 	sll	t2,zero,0x2
    114c:	00000006 	srlv	zero,zero,zero
    1150:	00005084 	0x5084
    1154:	00000005 	0x5
    1158:	00005088 	0x5088
    115c:	00000006 	srlv	zero,zero,zero
    1160:	00005094 	0x5094
    1164:	00000005 	0x5
    1168:	00005098 	0x5098
    116c:	00000006 	srlv	zero,zero,zero
    1170:	0000509c 	0x509c
    1174:	00000005 	0x5
    1178:	000050a0 	0x50a0
    117c:	00000006 	srlv	zero,zero,zero
    1180:	000050d4 	0x50d4
    1184:	00000004 	sllv	zero,zero,zero
    1188:	000050e8 	0x50e8
    118c:	00000004 	sllv	zero,zero,zero
    1190:	00005110 	0x5110
    1194:	00000004 	sllv	zero,zero,zero
    1198:	0000512c 	0x512c
    119c:	00000004 	sllv	zero,zero,zero
    11a0:	00005140 	sll	t2,zero,0x5
    11a4:	00000004 	sllv	zero,zero,zero
    11a8:	0000514c 	syscall	0x145
    11ac:	00000004 	sllv	zero,zero,zero
    11b0:	00005164 	0x5164
    11b4:	00000004 	sllv	zero,zero,zero
    11b8:	0000518c 	syscall	0x146
    11bc:	00000004 	sllv	zero,zero,zero
    11c0:	000051c0 	sll	t2,zero,0x7
    11c4:	00000004 	sllv	zero,zero,zero
    11c8:	0000525c 	0x525c
    11cc:	00000005 	0x5
    11d0:	00005260 	0x5260
    11d4:	00000006 	srlv	zero,zero,zero
    11d8:	00005294 	0x5294
    11dc:	00000005 	0x5
    11e0:	00005298 	0x5298
    11e4:	00000006 	srlv	zero,zero,zero
    11e8:	000052a0 	0x52a0
    11ec:	00000005 	0x5
    11f0:	000052a4 	0x52a4
    11f4:	00000006 	srlv	zero,zero,zero
    11f8:	0000531c 	0x531c
    11fc:	00000005 	0x5
    1200:	00005320 	0x5320
    1204:	00000006 	srlv	zero,zero,zero
    1208:	0000534c 	syscall	0x14d
    120c:	00000005 	0x5
    1210:	00005350 	0x5350
    1214:	00000006 	srlv	zero,zero,zero
    1218:	00005354 	0x5354
    121c:	00000005 	0x5
    1220:	00005358 	0x5358
    1224:	00000006 	srlv	zero,zero,zero
    1228:	0000535c 	0x535c
    122c:	00000004 	sllv	zero,zero,zero
    1230:	00005374 	teq	zero,zero,0x14d
    1234:	00000004 	sllv	zero,zero,zero
    1238:	000053a8 	0x53a8
    123c:	00000004 	sllv	zero,zero,zero
    1240:	000053b4 	teq	zero,zero,0x14e
    1244:	00000004 	sllv	zero,zero,zero
    1248:	000053c0 	sll	t2,zero,0xf
    124c:	00000004 	sllv	zero,zero,zero
    1250:	000053d4 	0x53d4
    1254:	00000004 	sllv	zero,zero,zero
    1258:	000053e8 	0x53e8
    125c:	00000004 	sllv	zero,zero,zero
    1260:	00005418 	0x5418
    1264:	00000005 	0x5
    1268:	0000541c 	0x541c
    126c:	00000006 	srlv	zero,zero,zero
    1270:	00005420 	0x5420
    1274:	00000005 	0x5
    1278:	00005424 	0x5424
    127c:	00000006 	srlv	zero,zero,zero
    1280:	0000542c 	0x542c
    1284:	00000004 	sllv	zero,zero,zero
    1288:	00005448 	0x5448
    128c:	00000004 	sllv	zero,zero,zero
    1290:	0000545c 	0x545c
    1294:	00000005 	0x5
    1298:	00005460 	0x5460
    129c:	00000006 	srlv	zero,zero,zero
    12a0:	00005468 	0x5468
    12a4:	00000005 	0x5
    12a8:	0000546c 	0x546c
    12ac:	00000006 	srlv	zero,zero,zero
    12b0:	00005484 	0x5484
    12b4:	00000004 	sllv	zero,zero,zero
    12b8:	000054a0 	0x54a0
    12bc:	00000004 	sllv	zero,zero,zero
    12c0:	000054bc 	0x54bc
    12c4:	00000004 	sllv	zero,zero,zero
    12c8:	000054c8 	0x54c8
    12cc:	00000004 	sllv	zero,zero,zero
    12d0:	000054d4 	0x54d4
    12d4:	00000004 	sllv	zero,zero,zero
    12d8:	000054e8 	0x54e8
    12dc:	00000004 	sllv	zero,zero,zero
    12e0:	000054fc 	0x54fc
    12e4:	00000004 	sllv	zero,zero,zero
    12e8:	00005538 	0x5538
    12ec:	00000004 	sllv	zero,zero,zero
    12f0:	00005554 	0x5554
    12f4:	00000004 	sllv	zero,zero,zero
    12f8:	00005570 	tge	zero,zero,0x155
    12fc:	00000004 	sllv	zero,zero,zero
    1300:	00005630 	tge	zero,zero,0x158
    1304:	00000004 	sllv	zero,zero,zero
    1308:	00005704 	0x5704
    130c:	00000004 	sllv	zero,zero,zero
    1310:	00005734 	teq	zero,zero,0x15c
    1314:	00000005 	0x5
    1318:	00005738 	0x5738
    131c:	00000006 	srlv	zero,zero,zero
    1320:	000057c4 	0x57c4
    1324:	00000004 	sllv	zero,zero,zero
    1328:	000057d8 	0x57d8
    132c:	00000004 	sllv	zero,zero,zero
    1330:	000057e8 	0x57e8
    1334:	00000004 	sllv	zero,zero,zero
    1338:	0000580c 	syscall	0x160
    133c:	00000004 	sllv	zero,zero,zero
    1340:	00005884 	0x5884
    1344:	00000004 	sllv	zero,zero,zero
    1348:	000058a0 	0x58a0
    134c:	00000004 	sllv	zero,zero,zero
    1350:	000058e8 	0x58e8
    1354:	00000004 	sllv	zero,zero,zero
    1358:	000058f8 	0x58f8
    135c:	00000004 	sllv	zero,zero,zero
    1360:	00005938 	0x5938
    1364:	00000004 	sllv	zero,zero,zero
    1368:	00005948 	0x5948
    136c:	00000004 	sllv	zero,zero,zero
    1370:	00005988 	0x5988
    1374:	00000004 	sllv	zero,zero,zero
    1378:	000059ac 	0x59ac
    137c:	00000004 	sllv	zero,zero,zero
    1380:	000059b8 	0x59b8
    1384:	00000004 	sllv	zero,zero,zero
    1388:	000059d4 	0x59d4
    138c:	00000004 	sllv	zero,zero,zero
    1390:	000059f8 	0x59f8
    1394:	00000004 	sllv	zero,zero,zero
    1398:	00005a18 	0x5a18
    139c:	00000004 	sllv	zero,zero,zero
    13a0:	00005a50 	0x5a50
    13a4:	00000004 	sllv	zero,zero,zero
    13a8:	00005a90 	0x5a90
    13ac:	00000004 	sllv	zero,zero,zero
    13b0:	00005aa4 	0x5aa4
    13b4:	00000004 	sllv	zero,zero,zero
    13b8:	00005ab8 	0x5ab8
    13bc:	00000004 	sllv	zero,zero,zero
    13c0:	00005ad4 	0x5ad4
    13c4:	00000004 	sllv	zero,zero,zero
    13c8:	00005ae4 	0x5ae4
    13cc:	00000004 	sllv	zero,zero,zero
    13d0:	00005b44 	0x5b44
    13d4:	00000004 	sllv	zero,zero,zero
    13d8:	00005b60 	0x5b60
    13dc:	00000004 	sllv	zero,zero,zero
    13e0:	00005b78 	0x5b78
    13e4:	00000004 	sllv	zero,zero,zero
    13e8:	00005b8c 	syscall	0x16e
    13ec:	00000004 	sllv	zero,zero,zero
    13f0:	00005ba8 	0x5ba8
    13f4:	00000004 	sllv	zero,zero,zero
    13f8:	00005be0 	0x5be0
    13fc:	00000004 	sllv	zero,zero,zero
    1400:	00005bf0 	tge	zero,zero,0x16f
    1404:	00000004 	sllv	zero,zero,zero
    1408:	00005c1c 	0x5c1c
    140c:	00000004 	sllv	zero,zero,zero
    1410:	00005c38 	0x5c38
    1414:	00000004 	sllv	zero,zero,zero
    1418:	00005c54 	0x5c54
    141c:	00000004 	sllv	zero,zero,zero
    1420:	00005c88 	0x5c88
    1424:	00000004 	sllv	zero,zero,zero
    1428:	00005c98 	0x5c98
    142c:	00000005 	0x5
    1430:	00005c9c 	0x5c9c
    1434:	00000006 	srlv	zero,zero,zero
    1438:	00005ca4 	0x5ca4
    143c:	00000005 	0x5
    1440:	00005ca8 	0x5ca8
    1444:	00000006 	srlv	zero,zero,zero
    1448:	00005d30 	tge	zero,zero,0x174
    144c:	00000004 	sllv	zero,zero,zero
    1450:	00005d94 	0x5d94
    1454:	00000005 	0x5
    1458:	00005d98 	0x5d98
    145c:	00000006 	srlv	zero,zero,zero
    1460:	00005d9c 	0x5d9c
    1464:	00000005 	0x5
    1468:	00005da0 	0x5da0
    146c:	00000006 	srlv	zero,zero,zero
    1470:	00005db0 	tge	zero,zero,0x176
    1474:	00000004 	sllv	zero,zero,zero
    1478:	00005e08 	0x5e08
    147c:	00000004 	sllv	zero,zero,zero
    1480:	00005e1c 	0x5e1c
    1484:	00000004 	sllv	zero,zero,zero
    1488:	00005e24 	0x5e24
    148c:	00000005 	0x5
    1490:	00005e28 	0x5e28
    1494:	00000006 	srlv	zero,zero,zero
    1498:	00005e2c 	0x5e2c
    149c:	00000005 	0x5
    14a0:	00005e30 	tge	zero,zero,0x178
    14a4:	00000006 	srlv	zero,zero,zero
    14a8:	00005e38 	0x5e38
    14ac:	00000004 	sllv	zero,zero,zero
    14b0:	00005e4c 	syscall	0x179
    14b4:	00000005 	0x5
    14b8:	00005e50 	0x5e50
    14bc:	00000006 	srlv	zero,zero,zero
    14c0:	00005e54 	0x5e54
    14c4:	00000005 	0x5
    14c8:	00005e58 	0x5e58
    14cc:	00000006 	srlv	zero,zero,zero
    14d0:	00005e60 	0x5e60
    14d4:	00000004 	sllv	zero,zero,zero
    14d8:	00005e7c 	0x5e7c
    14dc:	00000004 	sllv	zero,zero,zero
    14e0:	00005e9c 	0x5e9c
    14e4:	00000004 	sllv	zero,zero,zero
    14e8:	00005ef4 	teq	zero,zero,0x17b
    14ec:	00000005 	0x5
    14f0:	00005ef8 	0x5ef8
    14f4:	00000006 	srlv	zero,zero,zero
    14f8:	00005f08 	0x5f08
    14fc:	00000004 	sllv	zero,zero,zero
    1500:	00005f1c 	0x5f1c
    1504:	00000005 	0x5
    1508:	00005f20 	0x5f20
    150c:	00000006 	srlv	zero,zero,zero
    1510:	00005f48 	0x5f48
    1514:	00000004 	sllv	zero,zero,zero
    1518:	00005f84 	0x5f84
    151c:	00000004 	sllv	zero,zero,zero
    1520:	00005f94 	0x5f94
    1524:	00000004 	sllv	zero,zero,zero
    1528:	00005fe4 	0x5fe4
    152c:	00000004 	sllv	zero,zero,zero
    1530:	00006000 	sll	t4,zero,0x0
    1534:	00000004 	sllv	zero,zero,zero
    1538:	00006010 	mfhi	t4
    153c:	00000004 	sllv	zero,zero,zero
    1540:	00006024 	and	t4,zero,zero
    1544:	00000004 	sllv	zero,zero,zero
    1548:	0000604c 	syscall	0x181
    154c:	00000005 	0x5
    1550:	00006050 	0x6050
    1554:	00000006 	srlv	zero,zero,zero
    1558:	00006054 	0x6054
    155c:	00000005 	0x5
    1560:	00006058 	0x6058
    1564:	00000006 	srlv	zero,zero,zero
    1568:	00006080 	sll	t4,zero,0x2
    156c:	00000004 	sllv	zero,zero,zero
    1570:	00006094 	0x6094
    1574:	00000004 	sllv	zero,zero,zero
    1578:	000060a0 	0x60a0
    157c:	00000004 	sllv	zero,zero,zero
    1580:	000060bc 	0x60bc
    1584:	00000004 	sllv	zero,zero,zero
    1588:	000060dc 	0x60dc
    158c:	00000005 	0x5
    1590:	000060e0 	0x60e0
    1594:	00000006 	srlv	zero,zero,zero
    1598:	000060e4 	0x60e4
    159c:	00000005 	0x5
    15a0:	000060e8 	0x60e8
    15a4:	00000006 	srlv	zero,zero,zero
    15a8:	000060f0 	tge	zero,zero,0x183
    15ac:	00000004 	sllv	zero,zero,zero
    15b0:	00006104 	0x6104
    15b4:	00000004 	sllv	zero,zero,zero
    15b8:	00006114 	0x6114
    15bc:	00000005 	0x5
    15c0:	00006118 	0x6118
    15c4:	00000006 	srlv	zero,zero,zero
    15c8:	0000611c 	0x611c
    15cc:	00000005 	0x5
    15d0:	00006120 	0x6120
    15d4:	00000006 	srlv	zero,zero,zero
    15d8:	00006124 	0x6124
    15dc:	00000004 	sllv	zero,zero,zero
    15e0:	00006138 	0x6138
    15e4:	00000004 	sllv	zero,zero,zero
    15e8:	000061d0 	0x61d0
    15ec:	00000005 	0x5
    15f0:	000061d4 	0x61d4
    15f4:	00000006 	srlv	zero,zero,zero
    15f8:	000061d8 	0x61d8
    15fc:	00000005 	0x5
    1600:	000061dc 	0x61dc
    1604:	00000006 	srlv	zero,zero,zero
    1608:	000061e0 	0x61e0
    160c:	00000004 	sllv	zero,zero,zero
    1610:	000061f0 	tge	zero,zero,0x187
    1614:	00000004 	sllv	zero,zero,zero
    1618:	00006204 	0x6204
    161c:	00000004 	sllv	zero,zero,zero
    1620:	00006214 	0x6214
    1624:	00000005 	0x5
    1628:	00006218 	0x6218
    162c:	00000006 	srlv	zero,zero,zero
    1630:	0000621c 	0x621c
    1634:	00000005 	0x5
    1638:	00006220 	0x6220
    163c:	00000006 	srlv	zero,zero,zero
    1640:	00006230 	tge	zero,zero,0x188
    1644:	00000004 	sllv	zero,zero,zero
    1648:	0000630c 	syscall	0x18c
    164c:	00000005 	0x5
    1650:	00006310 	0x6310
    1654:	00000006 	srlv	zero,zero,zero
    1658:	00006328 	0x6328
    165c:	00000004 	sllv	zero,zero,zero
    1660:	00006360 	0x6360
    1664:	00000004 	sllv	zero,zero,zero
    1668:	00006378 	0x6378
    166c:	00000004 	sllv	zero,zero,zero
    1670:	000063a0 	0x63a0
    1674:	00000004 	sllv	zero,zero,zero
    1678:	000063b4 	teq	zero,zero,0x18e
    167c:	00000005 	0x5
    1680:	000063b8 	0x63b8
    1684:	00000006 	srlv	zero,zero,zero
    1688:	000063d4 	0x63d4
    168c:	00000004 	sllv	zero,zero,zero
    1690:	00006400 	sll	t4,zero,0x10
    1694:	00000004 	sllv	zero,zero,zero
    1698:	00006420 	0x6420
    169c:	00000005 	0x5
    16a0:	00006424 	0x6424
    16a4:	00000006 	srlv	zero,zero,zero
    16a8:	0000642c 	0x642c
    16ac:	00000005 	0x5
    16b0:	00006434 	teq	zero,zero,0x190
    16b4:	00000006 	srlv	zero,zero,zero
    16b8:	00006454 	0x6454
    16bc:	00000004 	sllv	zero,zero,zero
    16c0:	00006470 	tge	zero,zero,0x191
    16c4:	00000005 	0x5
    16c8:	00006474 	teq	zero,zero,0x191
    16cc:	00000006 	srlv	zero,zero,zero
    16d0:	000064a4 	0x64a4
    16d4:	00000005 	0x5
    16d8:	000064a8 	0x64a8
    16dc:	00000006 	srlv	zero,zero,zero
    16e0:	00006538 	0x6538
    16e4:	00000004 	sllv	zero,zero,zero
    16e8:	00006554 	0x6554
    16ec:	00000005 	0x5
    16f0:	00006558 	0x6558
    16f4:	00000006 	srlv	zero,zero,zero
    16f8:	00006614 	0x6614
    16fc:	00000004 	sllv	zero,zero,zero
    1700:	00006678 	0x6678
    1704:	00000005 	0x5
    1708:	0000667c 	0x667c
    170c:	00000006 	srlv	zero,zero,zero
    1710:	0000668c 	syscall	0x19a
    1714:	00000005 	0x5
    1718:	00006690 	0x6690
    171c:	00000006 	srlv	zero,zero,zero
    1720:	00006694 	0x6694
    1724:	00000004 	sllv	zero,zero,zero
    1728:	00006770 	tge	zero,zero,0x19d
    172c:	00000005 	0x5
    1730:	00006774 	teq	zero,zero,0x19d
    1734:	00000006 	srlv	zero,zero,zero
    1738:	00006780 	sll	t4,zero,0x1e
    173c:	00000004 	sllv	zero,zero,zero
    1740:	00006790 	0x6790
    1744:	00000005 	0x5
    1748:	00006794 	0x6794
    174c:	00000006 	srlv	zero,zero,zero
    1750:	000067a8 	0x67a8
    1754:	00000005 	0x5
    1758:	000067b0 	tge	zero,zero,0x19e
    175c:	00000006 	srlv	zero,zero,zero
    1760:	000067b4 	teq	zero,zero,0x19e
    1764:	00000005 	0x5
    1768:	000067b8 	0x67b8
    176c:	00000006 	srlv	zero,zero,zero
    1770:	000067bc 	0x67bc
    1774:	00000004 	sllv	zero,zero,zero
    1778:	000067cc 	syscall	0x19f
    177c:	00000005 	0x5
    1780:	000067d0 	0x67d0
    1784:	00000006 	srlv	zero,zero,zero
    1788:	000067d4 	0x67d4
    178c:	00000004 	sllv	zero,zero,zero
    1790:	000067ec 	0x67ec
    1794:	00000005 	0x5
    1798:	000067f4 	teq	zero,zero,0x19f
    179c:	00000006 	srlv	zero,zero,zero
    17a0:	000067f8 	0x67f8
    17a4:	00000005 	0x5
    17a8:	00006800 	sll	t5,zero,0x0
    17ac:	00000006 	srlv	zero,zero,zero
    17b0:	0000680c 	syscall	0x1a0
    17b4:	00000005 	0x5
    17b8:	00006814 	0x6814
    17bc:	00000006 	srlv	zero,zero,zero
    17c0:	00006820 	add	t5,zero,zero
    17c4:	00000005 	0x5
    17c8:	00006828 	0x6828
    17cc:	00000006 	srlv	zero,zero,zero
    17d0:	00006824 	and	t5,zero,zero
    17d4:	00000004 	sllv	zero,zero,zero
    17d8:	0000682c 	max	t5,zero,zero
    17dc:	00000005 	0x5
    17e0:	00006834 	teq	zero,zero,0x1a0
    17e4:	00000006 	srlv	zero,zero,zero
    17e8:	00006ae8 	0x6ae8
    17ec:	00000004 	sllv	zero,zero,zero
    17f0:	00006b10 	0x6b10
    17f4:	00000004 	sllv	zero,zero,zero
    17f8:	00006c30 	tge	zero,zero,0x1b0
    17fc:	00000004 	sllv	zero,zero,zero
    1800:	00006c4c 	syscall	0x1b1
    1804:	00000004 	sllv	zero,zero,zero
    1808:	00006d04 	0x6d04
    180c:	00000004 	sllv	zero,zero,zero
    1810:	00006d40 	sll	t5,zero,0x15
    1814:	00000004 	sllv	zero,zero,zero
    1818:	00006d7c 	0x6d7c
    181c:	00000004 	sllv	zero,zero,zero
    1820:	00006f0c 	syscall	0x1bc
    1824:	00000004 	sllv	zero,zero,zero
    1828:	00006f88 	0x6f88
    182c:	00000004 	sllv	zero,zero,zero
    1830:	000071e8 	0x71e8
    1834:	00000004 	sllv	zero,zero,zero
    1838:	00007244 	0x7244
    183c:	00000004 	sllv	zero,zero,zero
    1840:	00007260 	0x7260
    1844:	00000005 	0x5
    1848:	00007264 	0x7264
    184c:	00000006 	srlv	zero,zero,zero
    1850:	00007274 	teq	zero,zero,0x1c9
    1854:	00000004 	sllv	zero,zero,zero
    1858:	00007284 	0x7284
    185c:	00000004 	sllv	zero,zero,zero
    1860:	00007308 	0x7308
    1864:	00000004 	sllv	zero,zero,zero
    1868:	00007514 	0x7514
    186c:	00000004 	sllv	zero,zero,zero
    1870:	0000763c 	0x763c
    1874:	00000004 	sllv	zero,zero,zero
    1878:	000076f8 	0x76f8
    187c:	00000004 	sllv	zero,zero,zero
    1880:	0000782c 	max	t7,zero,zero
    1884:	00000004 	sllv	zero,zero,zero
    1888:	00007854 	0x7854
    188c:	00000004 	sllv	zero,zero,zero
    1890:	000078dc 	0x78dc
    1894:	00000004 	sllv	zero,zero,zero
    1898:	00007910 	0x7910
    189c:	00000004 	sllv	zero,zero,zero
    18a0:	00007958 	0x7958
    18a4:	00000004 	sllv	zero,zero,zero
    18a8:	0000796c 	0x796c
    18ac:	00000004 	sllv	zero,zero,zero
    18b0:	000079b0 	tge	zero,zero,0x1e6
    18b4:	00000004 	sllv	zero,zero,zero
    18b8:	000079d4 	0x79d4
    18bc:	00000004 	sllv	zero,zero,zero
    18c0:	00007a08 	0x7a08
    18c4:	00000005 	0x5
    18c8:	00007a0c 	syscall	0x1e8
    18cc:	00000006 	srlv	zero,zero,zero
    18d0:	00007a10 	0x7a10
    18d4:	00000005 	0x5
    18d8:	00007a14 	0x7a14
    18dc:	00000006 	srlv	zero,zero,zero
    18e0:	00007a18 	0x7a18
    18e4:	00000005 	0x5
    18e8:	00007a1c 	0x7a1c
    18ec:	00000006 	srlv	zero,zero,zero
    18f0:	00007a20 	0x7a20
    18f4:	00000005 	0x5
    18f8:	00007a24 	0x7a24
    18fc:	00000006 	srlv	zero,zero,zero
    1900:	00007a38 	0x7a38
    1904:	00000004 	sllv	zero,zero,zero
    1908:	00007a64 	0x7a64
    190c:	00000005 	0x5
    1910:	00007a68 	0x7a68
    1914:	00000006 	srlv	zero,zero,zero
    1918:	00007bd8 	0x7bd8
    191c:	00000004 	sllv	zero,zero,zero
    1920:	00007bf4 	teq	zero,zero,0x1ef
    1924:	00000004 	sllv	zero,zero,zero
    1928:	00007bfc 	0x7bfc
    192c:	00000005 	0x5
    1930:	00007c00 	sll	t7,zero,0x10
    1934:	00000006 	srlv	zero,zero,zero
    1938:	00007c4c 	syscall	0x1f1
    193c:	00000004 	sllv	zero,zero,zero
    1940:	00007c70 	tge	zero,zero,0x1f1
    1944:	00000004 	sllv	zero,zero,zero
    1948:	00007c84 	0x7c84
    194c:	00000004 	sllv	zero,zero,zero
    1950:	00007ca8 	0x7ca8
    1954:	00000004 	sllv	zero,zero,zero
    1958:	00007cc4 	0x7cc4
    195c:	00000004 	sllv	zero,zero,zero
    1960:	00007d04 	0x7d04
    1964:	00000004 	sllv	zero,zero,zero
    1968:	00007dac 	0x7dac
    196c:	00000005 	0x5
    1970:	00007db0 	tge	zero,zero,0x1f6
    1974:	00000006 	srlv	zero,zero,zero
    1978:	00008190 	0x8190
    197c:	00000004 	sllv	zero,zero,zero
    1980:	000081b8 	0x81b8
    1984:	00000004 	sllv	zero,zero,zero
    1988:	00008228 	0x8228
    198c:	00000004 	sllv	zero,zero,zero
    1990:	00008278 	0x8278
    1994:	00000004 	sllv	zero,zero,zero
    1998:	00008330 	tge	zero,zero,0x20c
    199c:	00000004 	sllv	zero,zero,zero
    19a0:	00008348 	0x8348
    19a4:	00000004 	sllv	zero,zero,zero
    19a8:	00008388 	0x8388
    19ac:	00000004 	sllv	zero,zero,zero
    19b0:	0000839c 	0x839c
    19b4:	00000004 	sllv	zero,zero,zero
    19b8:	00008448 	0x8448
    19bc:	00000005 	0x5
    19c0:	0000844c 	syscall	0x211
    19c4:	00000006 	srlv	zero,zero,zero
    19c8:	00008530 	tge	zero,zero,0x214
    19cc:	00000005 	0x5
    19d0:	00008534 	teq	zero,zero,0x214
    19d4:	00000006 	srlv	zero,zero,zero
    19d8:	00008580 	sll	s0,zero,0x16
    19dc:	00000004 	sllv	zero,zero,zero
    19e0:	000085ac 	0x85ac
    19e4:	00000004 	sllv	zero,zero,zero
    19e8:	0000884c 	syscall	0x221
    19ec:	00000005 	0x5
    19f0:	00008850 	0x8850
    19f4:	00000006 	srlv	zero,zero,zero
    19f8:	0000896c 	0x896c
    19fc:	00000004 	sllv	zero,zero,zero
    1a00:	00008a30 	tge	zero,zero,0x228
    1a04:	00000004 	sllv	zero,zero,zero
    1a08:	00008a68 	0x8a68
    1a0c:	00000005 	0x5
    1a10:	00008a6c 	0x8a6c
    1a14:	00000006 	srlv	zero,zero,zero
    1a18:	00008b18 	0x8b18
    1a1c:	00000005 	0x5
    1a20:	00008b1c 	0x8b1c
    1a24:	00000006 	srlv	zero,zero,zero
    1a28:	00008cac 	0x8cac
    1a2c:	00000004 	sllv	zero,zero,zero
    1a30:	00008cd0 	0x8cd0
    1a34:	00000004 	sllv	zero,zero,zero
    1a38:	00008df8 	0x8df8
    1a3c:	00000005 	0x5
    1a40:	00008dfc 	0x8dfc
    1a44:	00000006 	srlv	zero,zero,zero
    1a48:	00008e48 	0x8e48
    1a4c:	00000004 	sllv	zero,zero,zero
    1a50:	00008ebc 	0x8ebc
    1a54:	00000005 	0x5
    1a58:	00008ec0 	sll	s1,zero,0x1b
    1a5c:	00000006 	srlv	zero,zero,zero
    1a60:	00008f08 	0x8f08
    1a64:	00000004 	sllv	zero,zero,zero
    1a68:	00008f88 	0x8f88
    1a6c:	00000004 	sllv	zero,zero,zero
    1a70:	00008ff8 	0x8ff8
    1a74:	00000004 	sllv	zero,zero,zero
    1a78:	00009068 	0x9068
    1a7c:	00000004 	sllv	zero,zero,zero
    1a80:	000090a0 	0x90a0
    1a84:	00000004 	sllv	zero,zero,zero
    1a88:	00009114 	0x9114
    1a8c:	00000004 	sllv	zero,zero,zero
    1a90:	00009164 	0x9164
    1a94:	00000004 	sllv	zero,zero,zero
    1a98:	0000918c 	syscall	0x246
    1a9c:	00000004 	sllv	zero,zero,zero
    1aa0:	00009234 	teq	zero,zero,0x248
    1aa4:	00000004 	sllv	zero,zero,zero
    1aa8:	00009254 	0x9254
    1aac:	00000004 	sllv	zero,zero,zero
    1ab0:	00009298 	0x9298
    1ab4:	00000004 	sllv	zero,zero,zero
    1ab8:	000092d0 	0x92d0
    1abc:	00000004 	sllv	zero,zero,zero
    1ac0:	00009308 	0x9308
    1ac4:	00000005 	0x5
    1ac8:	0000930c 	syscall	0x24c
    1acc:	00000006 	srlv	zero,zero,zero
    1ad0:	00009330 	tge	zero,zero,0x24c
    1ad4:	00000005 	0x5
    1ad8:	00009334 	teq	zero,zero,0x24c
    1adc:	00000006 	srlv	zero,zero,zero
    1ae0:	00009380 	sll	s2,zero,0xe
    1ae4:	00000005 	0x5
    1ae8:	00009384 	0x9384
    1aec:	00000006 	srlv	zero,zero,zero
    1af0:	000093e4 	0x93e4
    1af4:	00000004 	sllv	zero,zero,zero
    1af8:	00009464 	0x9464
    1afc:	00000004 	sllv	zero,zero,zero
    1b00:	0000960c 	syscall	0x258
    1b04:	00000004 	sllv	zero,zero,zero
    1b08:	0000964c 	syscall	0x259
    1b0c:	00000005 	0x5
    1b10:	00009650 	0x9650
    1b14:	00000006 	srlv	zero,zero,zero
    1b18:	000096d0 	0x96d0
    1b1c:	00000004 	sllv	zero,zero,zero
    1b20:	00009730 	tge	zero,zero,0x25c
    1b24:	00000004 	sllv	zero,zero,zero
    1b28:	00009738 	0x9738
    1b2c:	00000004 	sllv	zero,zero,zero
    1b30:	00009858 	0x9858
    1b34:	00000004 	sllv	zero,zero,zero
    1b38:	000098e0 	0x98e0
    1b3c:	00000004 	sllv	zero,zero,zero
    1b40:	0000990c 	syscall	0x264
    1b44:	00000004 	sllv	zero,zero,zero
    1b48:	000099e8 	0x99e8
    1b4c:	00000004 	sllv	zero,zero,zero
    1b50:	00009a44 	0x9a44
    1b54:	00000004 	sllv	zero,zero,zero
    1b58:	00009a88 	0x9a88
    1b5c:	00000004 	sllv	zero,zero,zero
    1b60:	00009acc 	syscall	0x26b
    1b64:	00000004 	sllv	zero,zero,zero
    1b68:	00009b78 	0x9b78
    1b6c:	00000004 	sllv	zero,zero,zero
    1b70:	00009d8c 	syscall	0x276
    1b74:	00000005 	0x5
    1b78:	00009d90 	0x9d90
    1b7c:	00000006 	srlv	zero,zero,zero
    1b80:	00009ed0 	0x9ed0
    1b84:	00000005 	0x5
    1b88:	00009ed4 	0x9ed4
    1b8c:	00000006 	srlv	zero,zero,zero
    1b90:	00009ff4 	teq	zero,zero,0x27f
    1b94:	00000005 	0x5
    1b98:	00009ff8 	0x9ff8
    1b9c:	00000006 	srlv	zero,zero,zero
    1ba0:	0000a314 	0xa314
    1ba4:	00000005 	0x5
    1ba8:	0000a318 	0xa318
    1bac:	00000006 	srlv	zero,zero,zero
    1bb0:	0000a434 	teq	zero,zero,0x290
    1bb4:	00000005 	0x5
    1bb8:	0000a438 	0xa438
    1bbc:	00000006 	srlv	zero,zero,zero
    1bc0:	0000a550 	0xa550
    1bc4:	00000005 	0x5
    1bc8:	0000a554 	0xa554
    1bcc:	00000006 	srlv	zero,zero,zero
    1bd0:	0000a9f4 	teq	zero,zero,0x2a7
    1bd4:	00000005 	0x5
    1bd8:	0000a9fc 	0xa9fc
    1bdc:	00000006 	srlv	zero,zero,zero
    1be0:	0000aba8 	0xaba8
    1be4:	00000004 	sllv	zero,zero,zero
    1be8:	0000abb4 	teq	zero,zero,0x2ae
    1bec:	00000004 	sllv	zero,zero,zero
    1bf0:	0000abc4 	0xabc4
    1bf4:	00000004 	sllv	zero,zero,zero
    1bf8:	0000abcc 	syscall	0x2af
    1bfc:	00000004 	sllv	zero,zero,zero
    1c00:	0000abfc 	0xabfc
    1c04:	00000004 	sllv	zero,zero,zero
    1c08:	0000ac08 	0xac08
    1c0c:	00000004 	sllv	zero,zero,zero
    1c10:	0000ac24 	0xac24
    1c14:	00000004 	sllv	zero,zero,zero
    1c18:	0000ac2c 	0xac2c
    1c1c:	00000004 	sllv	zero,zero,zero
    1c20:	0000ac5c 	0xac5c
    1c24:	00000004 	sllv	zero,zero,zero
    1c28:	0000ac68 	0xac68
    1c2c:	00000004 	sllv	zero,zero,zero
    1c30:	0000ac98 	0xac98
    1c34:	00000004 	sllv	zero,zero,zero
    1c38:	0000acec 	0xacec
    1c3c:	00000005 	0x5
    1c40:	0000acd0 	0xacd0
    1c44:	00000005 	0x5
    1c48:	0000acd8 	0xacd8
    1c4c:	00000006 	srlv	zero,zero,zero
    1c50:	0000ad04 	0xad04
    1c54:	00000004 	sllv	zero,zero,zero
    1c58:	0000af1c 	0xaf1c
    1c5c:	00000004 	sllv	zero,zero,zero
    1c60:	0000af28 	0xaf28
    1c64:	00000004 	sllv	zero,zero,zero
    1c68:	0000af44 	0xaf44
    1c6c:	00000004 	sllv	zero,zero,zero
    1c70:	0000af8c 	syscall	0x2be
    1c74:	00000005 	0x5
    1c78:	0000af94 	0xaf94
    1c7c:	00000006 	srlv	zero,zero,zero
    1c80:	0000b100 	sll	s6,zero,0x4
    1c84:	00000004 	sllv	zero,zero,zero
    1c88:	0000b10c 	syscall	0x2c4
    1c8c:	00000004 	sllv	zero,zero,zero
    1c90:	0000b134 	teq	zero,zero,0x2c4
    1c94:	00000004 	sllv	zero,zero,zero
    1c98:	0000b174 	teq	zero,zero,0x2c5
    1c9c:	00000004 	sllv	zero,zero,zero
    1ca0:	0000b180 	sll	s6,zero,0x6
    1ca4:	00000004 	sllv	zero,zero,zero
    1ca8:	0000b1a8 	0xb1a8
    1cac:	00000004 	sllv	zero,zero,zero
    1cb0:	0000b1e8 	0xb1e8
    1cb4:	00000004 	sllv	zero,zero,zero
    1cb8:	0000b1f4 	teq	zero,zero,0x2c7
    1cbc:	00000004 	sllv	zero,zero,zero
    1cc0:	0000b21c 	0xb21c
    1cc4:	00000004 	sllv	zero,zero,zero
    1cc8:	0000b254 	0xb254
    1ccc:	00000004 	sllv	zero,zero,zero
    1cd0:	0000b260 	0xb260
    1cd4:	00000004 	sllv	zero,zero,zero
    1cd8:	0000b288 	0xb288
    1cdc:	00000004 	sllv	zero,zero,zero
    1ce0:	0000b2c0 	sll	s6,zero,0xb
    1ce4:	00000004 	sllv	zero,zero,zero
    1ce8:	0000b2cc 	syscall	0x2cb
    1cec:	00000004 	sllv	zero,zero,zero
    1cf0:	0000b2f4 	teq	zero,zero,0x2cb
    1cf4:	00000004 	sllv	zero,zero,zero
    1cf8:	0000b33c 	0xb33c
    1cfc:	00000004 	sllv	zero,zero,zero
    1d00:	0000b3a4 	0xb3a4
    1d04:	00000006 	srlv	zero,zero,zero
    1d08:	0000b360 	0xb360
    1d0c:	00000005 	0x5
    1d10:	0000b3ac 	0xb3ac
    1d14:	00000006 	srlv	zero,zero,zero
    1d18:	0000b3c4 	0xb3c4
    1d1c:	00000004 	sllv	zero,zero,zero
    1d20:	0000b494 	0xb494
    1d24:	00000004 	sllv	zero,zero,zero
    1d28:	0000b4e8 	0xb4e8
    1d2c:	00000004 	sllv	zero,zero,zero
    1d30:	0000b978 	0xb978
    1d34:	00000005 	0x5
    1d38:	0000b97c 	0xb97c
    1d3c:	00000006 	srlv	zero,zero,zero
    1d40:	0000b994 	0xb994
    1d44:	00000005 	0x5
    1d48:	0000b9a0 	0xb9a0
    1d4c:	00000006 	srlv	zero,zero,zero
Disassembly of section .init:

0000b9e8 <.init>:
    b9e8:	27bdffe0 	addiu	sp,sp,-32
    b9ec:	afbf0014 	sw	ra,20(sp)
    b9f0:	0c0000bd 	jal	0x2f4
    b9f4:	00000000 	nop
    b9f8:	0c002e5e 	jal	0xb978
    b9fc:	00000000 	nop
    ba00:	8fbf0014 	lw	ra,20(sp)
    ba04:	03e00008 	jr	ra
    ba08:	27bd0020 	addiu	sp,sp,32
Disassembly of section .rel.init:

00000000 <.rel.init>:
   0:	0000b9f0 	tge	zero,zero,0x2e7
   4:	00000004 	sllv	zero,zero,zero
   8:	0000b9f8 	0xb9f8
   c:	00000004 	sllv	zero,zero,zero
Disassembly of section .fini:

0000ba0c <.fini>:
    ba0c:	27bdffe0 	addiu	sp,sp,-32
    ba10:	afbf0014 	sw	ra,20(sp)
    ba14:	0c000086 	jal	0x218
    ba18:	00000000 	nop
    ba1c:	8fbf0014 	lw	ra,20(sp)
    ba20:	03e00008 	jr	ra
    ba24:	27bd0020 	addiu	sp,sp,32
Disassembly of section .rel.fini:

00000000 <.rel.fini>:
   0:	0000ba14 	0xba14
   4:	00000004 	sllv	zero,zero,zero
Disassembly of section .sceStub.text:

0000ba28 <.sceStub.text>:
    ba28:	03e00008 	jr	ra
    ba2c:	00000000 	nop
    ba30:	03e00008 	jr	ra
    ba34:	00000000 	nop
    ba38:	03e00008 	jr	ra
    ba3c:	00000000 	nop
    ba40:	03e00008 	jr	ra
    ba44:	00000000 	nop
    ba48:	03e00008 	jr	ra
    ba4c:	00000000 	nop
    ba50:	03e00008 	jr	ra
    ba54:	00000000 	nop
    ba58:	03e00008 	jr	ra
    ba5c:	00000000 	nop
    ba60:	03e00008 	jr	ra
    ba64:	00000000 	nop
    ba68:	03e00008 	jr	ra
    ba6c:	00000000 	nop
    ba70:	03e00008 	jr	ra
    ba74:	00000000 	nop
    ba78:	03e00008 	jr	ra
    ba7c:	00000000 	nop
    ba80:	03e00008 	jr	ra
    ba84:	00000000 	nop
    ba88:	03e00008 	jr	ra
    ba8c:	00000000 	nop
    ba90:	03e00008 	jr	ra
    ba94:	00000000 	nop
    ba98:	03e00008 	jr	ra
    ba9c:	00000000 	nop
    baa0:	03e00008 	jr	ra
    baa4:	00000000 	nop
    baa8:	03e00008 	jr	ra
    baac:	00000000 	nop
Disassembly of section .lib.ent.top:

0000bab0 <.lib.ent.top>:
	...
Disassembly of section .lib.ent:

0000babc <.lib.ent>:
    babc:	00000000 	nop
    bac0:	80000000 	lb	zero,0(zero)
    bac4:	00010104 	0x10104
    bac8:	0000bbc0 	sll	s7,zero,0xf
Disassembly of section .rel.lib.ent:

00000000 <.rel.lib.ent>:
   0:	0000bac8 	0xbac8
   4:	00000002 	srl	zero,zero,0x0
Disassembly of section .lib.ent.btm:

0000bacc <.lib.ent.btm>:
	...
Disassembly of section .lib.stub.top:

0000bad8 <.lib.stub.top>:
	...
Disassembly of section .lib.stub:

0000bae4 <.lib.stub>:
    bae4:	0000bbd4 	0xbbd4
    bae8:	40010000 	mfc0	at,$0
    baec:	00020005 	0x20005
    baf0:	0000bc64 	0xbc64
    baf4:	0000ba28 	0xba28
    baf8:	0000bbe4 	0xbbe4
    bafc:	40010000 	mfc0	at,$0
    bb00:	00010005 	0x10005
    bb04:	0000bc6c 	0xbc6c
    bb08:	0000ba38 	0xba38
    bb0c:	0000bbf4 	teq	zero,zero,0x2ef
    bb10:	40010000 	mfc0	at,$0
    bb14:	00030005 	0x30005
    bb18:	0000bc70 	tge	zero,zero,0x2f1
    bb1c:	0000ba40 	sll	s7,zero,0x9
    bb20:	0000bc0c 	syscall	0x2f0
    bb24:	40010000 	mfc0	at,$0
    bb28:	00010005 	0x10005
    bb2c:	0000bc7c 	0xbc7c
    bb30:	0000ba58 	0xba58
    bb34:	0000bc24 	0xbc24
    bb38:	40010000 	mfc0	at,$0
    bb3c:	00030005 	0x30005
    bb40:	0000bc80 	sll	s7,zero,0x12
    bb44:	0000ba60 	0xba60
    bb48:	0000bc38 	0xbc38
    bb4c:	40000000 	mfc0	zero,$0
    bb50:	00040005 	0x40005
    bb54:	0000bc8c 	syscall	0x2f2
    bb58:	0000ba78 	0xba78
    bb5c:	0000bc50 	0xbc50
    bb60:	40010000 	mfc0	at,$0
    bb64:	00030005 	0x30005
    bb68:	0000bc9c 	0xbc9c
    bb6c:	0000ba98 	0xba98
Disassembly of section .rel.lib.stub:

00000000 <.rel.lib.stub>:
   0:	0000bae4 	0xbae4
   4:	00000002 	srl	zero,zero,0x0
   8:	0000baf0 	tge	zero,zero,0x2eb
   c:	00000002 	srl	zero,zero,0x0
  10:	0000baf4 	teq	zero,zero,0x2eb
  14:	00000002 	srl	zero,zero,0x0
  18:	0000baf8 	0xbaf8
  1c:	00000002 	srl	zero,zero,0x0
  20:	0000bb04 	0xbb04
  24:	00000002 	srl	zero,zero,0x0
  28:	0000bb08 	0xbb08
  2c:	00000002 	srl	zero,zero,0x0
  30:	0000bb0c 	syscall	0x2ec
  34:	00000002 	srl	zero,zero,0x0
  38:	0000bb18 	0xbb18
  3c:	00000002 	srl	zero,zero,0x0
  40:	0000bb1c 	0xbb1c
  44:	00000002 	srl	zero,zero,0x0
  48:	0000bb20 	0xbb20
  4c:	00000002 	srl	zero,zero,0x0
  50:	0000bb2c 	0xbb2c
  54:	00000002 	srl	zero,zero,0x0
  58:	0000bb30 	tge	zero,zero,0x2ec
  5c:	00000002 	srl	zero,zero,0x0
  60:	0000bb34 	teq	zero,zero,0x2ec
  64:	00000002 	srl	zero,zero,0x0
  68:	0000bb40 	sll	s7,zero,0xd
  6c:	00000002 	srl	zero,zero,0x0
  70:	0000bb44 	0xbb44
  74:	00000002 	srl	zero,zero,0x0
  78:	0000bb48 	0xbb48
  7c:	00000002 	srl	zero,zero,0x0
  80:	0000bb54 	0xbb54
  84:	00000002 	srl	zero,zero,0x0
  88:	0000bb58 	0xbb58
  8c:	00000002 	srl	zero,zero,0x0
  90:	0000bb5c 	0xbb5c
  94:	00000002 	srl	zero,zero,0x0
  98:	0000bb68 	0xbb68
  9c:	00000002 	srl	zero,zero,0x0
  a0:	0000bb6c 	0xbb6c
  a4:	00000002 	srl	zero,zero,0x0
Disassembly of section .lib.stub.btm:

0000bb70 <.lib.stub.btm>:
	...
Disassembly of section .rodata.sceModuleInfo:

0000bb80 <.rodata.sceModuleInfo>:
    bb80:	01000000 	0x1000000
    bb84:	72617453 	0x72617453
    bb88:	74737564 	jalx	0x1cdd590
    bb8c:	00000000 	nop
	...
    bba0:	000154d0 	0x154d0
    bba4:	0000babc 	0xbabc
    bba8:	0000bad4 	0xbad4
    bbac:	0000bae4 	0xbae4
    bbb0:	0000bb74 	teq	zero,zero,0x2ed
	...
Disassembly of section .rel.rodata.sceModuleInfo:

00000000 <.rel.rodata.sceModuleInfo>:
   0:	0000bba0 	0xbba0
   4:	00000002 	srl	zero,zero,0x0
   8:	0000bba4 	0xbba4
   c:	00000002 	srl	zero,zero,0x0
  10:	0000bba8 	0xbba8
  14:	00000002 	srl	zero,zero,0x0
  18:	0000bbac 	0xbbac
  1c:	00000002 	srl	zero,zero,0x0
  20:	0000bbb0 	tge	zero,zero,0x2ee
  24:	00000002 	srl	zero,zero,0x0
Disassembly of section .rodata.sceResident:

0000bbc0 <.rodata.sceResident>:
    bbc0:	d632acdb 	lvr.q	R402.q,-21288(s1)
    bbc4:	f01d73a7 	vmmul.p	.p,.p,.p
    bbc8:	000000b0 	tge	zero,zero,0x2
    bbcc:	0000bb80 	sll	s7,zero,0xe
    bbd0:	00000000 	nop
    bbd4:	44656373 	0x44656373
    bbd8:	6c707369 	0x6c707369
    bbdc:	00007961 	0x7961
    bbe0:	00000000 	nop
    bbe4:	47656373 	c1	0x1656373
    bbe8:	73755f65 	0x73755f65
    bbec:	00007265 	0x7265
    bbf0:	00000000 	nop
    bbf4:	69466f49 	ldl	a2,28489(t2)
    bbf8:	674d656c 	0x674d656c
    bbfc:	726f4672 	0x726f4672
    bc00:	72657355 	0x72657355
	...
    bc0c:	75646f4d 	jalx	0x591bd34
    bc10:	674d656c 	0x674d656c
    bc14:	726f4672 	0x726f4672
    bc18:	72657355 	0x72657355
	...
    bc24:	69647453 	ldl	a0,29779(t3)
    bc28:	726f466f 	0x726f466f
    bc2c:	72657355 	0x72657355
	...
    bc38:	4d737953 	0x4d737953
    bc3c:	73556d65 	0x73556d65
    bc40:	6f467265 	vsge.s	S113.s,S423.s,S122.s
    bc44:	65735572 	0x65735572
    bc48:	00000072 	tlt	zero,zero,0x1
    bc4c:	00000000 	nop
    bc50:	65726854 	0x65726854
    bc54:	614d6461 	vsbn.s	S013.s,S103.s,S312.s
    bc58:	726f466e 	0x726f466e
    bc5c:	72657355 	0x72657355
    bc60:	00000000 	nop
Disassembly of section .rel.rodata.sceResident:

00000000 <.rel.rodata.sceResident>:
   0:	0000bbc8 	0xbbc8
   4:	00000002 	srl	zero,zero,0x0
   8:	0000bbcc 	syscall	0x2ef
   c:	00000002 	srl	zero,zero,0x0
Disassembly of section .rodata.sceNid:

0000bc64 <.rodata.sceNid>:
    bc64:	0e20f177 	jal	0x883c5dc
    bc68:	289d82fe 	slti	sp,a0,-32002
    bc6c:	e47e40e4 	swc1	$f30,16612(v1)
    bc70:	b29ddf9c 	sdl	sp,-8292(s4)
    bc74:	eb092469 	sv.s	S211.s,9320(t8)
    bc78:	55f4717d 	bnel	t7,s4,0x28270
    bc7c:	d675ebb8 	lvl.q	C510.q,-5192(s3)
    bc80:	172d316e 	bne	t9,t5,0x1823c
    bc84:	a6bab2e9 	sh	k0,-19735(s5)
    bc88:	f78ba90a 	svr.q	C230.q,-22264(gp)
    bc8c:	a291f107 	sb	s1,-3833(s4)
    bc90:	237dbd4f 	addi	sp,k1,-17073
    bc94:	b6d61d02 	0xb6d61d02
    bc98:	9d9a5ba1 	0x9d9a5ba1
    bc9c:	446d8de6 	0x446d8de6
    bca0:	f475845d 	svl.q	R501.q,-31652(v1)
    bca4:	aa73c935 	swl	s3,-14027(s3)
Disassembly of section .rodata:

0000bca8 <.rodata>:
    bca8:	72657375 	0x72657375
    bcac:	69616d5f 	ldl	at,27999(t3)
    bcb0:	0000006e 	0x6e
    bcb4:	00000043 	sra	zero,zero,0x1
    bcb8:	636f6c62 	0x636f6c62
    bcbc:	0000006b 	0x6b
    bcc0:	00464e49 	0x464e49
    bcc4:	00666e69 	0x666e69
    bcc8:	004e414e 	0x4e414e
    bccc:	006e616e 	0x6e616e
    bcd0:	33323130 	andi	s2,t9,0x3130
    bcd4:	37363534 	ori	s6,t9,0x3534
    bcd8:	42413938 	c0	0x413938
    bcdc:	46454443 	c1	0x454443
    bce0:	00000000 	nop
    bce4:	33323130 	andi	s2,t9,0x3130
    bce8:	37363534 	ori	s6,t9,0x3534
    bcec:	62613938 	0x62613938
    bcf0:	66656463 	0x66656463
    bcf4:	00000000 	nop
    bcf8:	6c756e28 	0x6c756e28
    bcfc:	0000296c 	0x296c
    bd00:	00000030 	tge	zero,zero
    bd04:	00002574 	teq	zero,zero,0x95
    bd08:	00002368 	0x2368
    bd0c:	00002368 	0x2368
    bd10:	00002568 	0x2568
    bd14:	00002368 	0x2368
    bd18:	00002368 	0x2368
    bd1c:	00002368 	0x2368
    bd20:	00002368 	0x2368
    bd24:	00002368 	0x2368
    bd28:	00002368 	0x2368
    bd2c:	00002544 	0x2544
    bd30:	00002534 	teq	zero,zero,0x94
    bd34:	00002368 	0x2368
    bd38:	00002528 	0x2528
    bd3c:	000024d8 	0x24d8
    bd40:	00002368 	0x2368
    bd44:	000024cc 	syscall	0x93
    bd48:	00002328 	0x2328
    bd4c:	00002328 	0x2328
    bd50:	00002328 	0x2328
    bd54:	00002328 	0x2328
    bd58:	00002328 	0x2328
    bd5c:	00002328 	0x2328
    bd60:	00002328 	0x2328
    bd64:	00002328 	0x2328
    bd68:	00002328 	0x2328
    bd6c:	00002368 	0x2368
    bd70:	00002368 	0x2368
    bd74:	00002368 	0x2368
    bd78:	00002368 	0x2368
    bd7c:	00002368 	0x2368
    bd80:	00002368 	0x2368
    bd84:	00002368 	0x2368
    bd88:	00002368 	0x2368
    bd8c:	00002368 	0x2368
    bd90:	00002368 	0x2368
    bd94:	00002998 	0x2998
    bd98:	000028e0 	0x28e0
    bd9c:	00002368 	0x2368
    bda0:	000028e0 	0x28e0
    bda4:	00002368 	0x2368
    bda8:	00002368 	0x2368
    bdac:	00002368 	0x2368
    bdb0:	00002368 	0x2368
    bdb4:	000028d4 	0x28d4
    bdb8:	00002368 	0x2368
    bdbc:	00002368 	0x2368
    bdc0:	000028a0 	0x28a0
    bdc4:	00002368 	0x2368
    bdc8:	00002368 	0x2368
    bdcc:	00002368 	0x2368
    bdd0:	00002368 	0x2368
    bdd4:	00002368 	0x2368
    bdd8:	00002ad0 	0x2ad0
    bddc:	00002368 	0x2368
    bde0:	00002368 	0x2368
    bde4:	00002a80 	sll	a1,zero,0xa
    bde8:	00002368 	0x2368
    bdec:	00002368 	0x2368
    bdf0:	00002368 	0x2368
    bdf4:	00002368 	0x2368
    bdf8:	00002368 	0x2368
    bdfc:	00002368 	0x2368
    be00:	00002368 	0x2368
    be04:	00002368 	0x2368
    be08:	00002368 	0x2368
    be0c:	00002368 	0x2368
    be10:	00002768 	0x2768
    be14:	000026ec 	0x26ec
    be18:	000028e0 	0x28e0
    be1c:	000028e0 	0x28e0
    be20:	000028e0 	0x28e0
    be24:	00002850 	0x2850
    be28:	000026ec 	0x26ec
    be2c:	00002368 	0x2368
    be30:	00002368 	0x2368
    be34:	0000283c 	0x283c
    be38:	00002368 	0x2368
    be3c:	000027f4 	teq	zero,zero,0x9f
    be40:	000027b4 	teq	zero,zero,0x9e
    be44:	00002868 	0x2868
    be48:	0000285c 	0x285c
    be4c:	00002368 	0x2368
    be50:	00002680 	sll	a0,zero,0x1a
    be54:	00002368 	0x2368
    be58:	00002640 	sll	a0,zero,0x19
    be5c:	00002368 	0x2368
    be60:	00002368 	0x2368
    be64:	00002588 	0x2588
    be68:	30303030 	andi	s0,at,0x3030
    be6c:	30303030 	andi	s0,at,0x3030
    be70:	30303030 	andi	s0,at,0x3030
    be74:	30303030 	andi	s0,at,0x3030
    be78:	20202020 	addi	zero,at,8224
    be7c:	20202020 	addi	zero,at,8224
    be80:	20202020 	addi	zero,at,8224
    be84:	20202020 	addi	zero,at,8224
    be88:	004e614e 	0x4e614e
    be8c:	69666e49 	ldl	a2,28233(t3)
    be90:	7974696e 	0x7974696e
	...
    be9c:	3ff80000 	0x3ff80000
    bea0:	636f4361 	0x636f4361
    bea4:	3fd287a7 	0x3fd287a7
    bea8:	8b60c8b3 	lwl	zero,-14157(k1)
    beac:	3fc68a28 	0x3fc68a28
    beb0:	509f79fb 	beql	a0,ra,0x2a6a0
    beb4:	3fd34413 	0x3fd34413
    beb8:	00000000 	nop
    bebc:	3ff00000 	0x3ff00000
    bec0:	00000000 	nop
    bec4:	40240000 	0x40240000
    bec8:	00000000 	nop
    becc:	401c0000 	mfc0	gp,$0
    bed0:	00000000 	nop
    bed4:	40140000 	mfc0	s4,$0
    bed8:	00000000 	nop
    bedc:	3fe00000 	0x3fe00000
    bee0:	49534f50 	0x49534f50
    bee4:	00000058 	0x58
    bee8:	0000002e 	msub	zero,zero
    beec:	0000bee8 	0xbee8
    bef0:	0000bce0 	0xbce0
    bef4:	0000bce0 	0xbce0
    bef8:	0000bce0 	0xbce0
    befc:	0000bce0 	0xbce0
    bf00:	0000bce0 	0xbce0
    bf04:	0000bce0 	0xbce0
    bf08:	0000bce0 	0xbce0
    bf0c:	0000bce0 	0xbce0
    bf10:	0000bce0 	0xbce0
    bf14:	7f7f7f7f 	0x7f7f7f7f
    bf18:	7f7f7f7f 	0x7f7f7f7f
    bf1c:	7f7f7f7f 	0x7f7f7f7f
    bf20:	00007f7f 	0x7f7f
    bf24:	00000000 	nop
    bf28:	00000005 	0x5
    bf2c:	00000019 	multu	zero,zero
    bf30:	0000007d 	0x7d
    bf34:	00000000 	nop
    bf38:	97d889bc 	lhu	t8,-30276(s8)
    bf3c:	3c9cd2b2 	0x3c9cd2b2
    bf40:	d5a8a733 	lvr.q	R200.q,-22736(t5)
    bf44:	3949f623 	xori	t1,t2,0xf623
    bf48:	44f4a73d 	0x44f4a73d
    bf4c:	32a50ffd 	andi	a1,s5,0xffd
    bf50:	cf8c979d 	lwc3	$12,-26723(gp)
    bf54:	255bba08 	addiu	k1,t2,-17912
    bf58:	64ac6f43 	0x64ac6f43
    bf5c:	0ac80628 	j	0xb2018a0
    bf60:	37e08000 	ori	zero,ra,0x8000
    bf64:	4341c379 	c0	0x141c379
    bf68:	b5056e17 	0xb5056e17
    bf6c:	4693b8b5 	c1	0x93b8b5
    bf70:	e93ff9f5 	sv.s	S731.s,-1548(t1)
    bf74:	4d384f03 	0x4d384f03
    bf78:	f9301d32 	sv.q	C400.q,7472(t1),wb
    bf7c:	5a827748 	0x5a827748
    bf80:	7f73bf3c 	0x7f73bf3c
    bf84:	75154fdd 	jalx	0x4553f74
    bf88:	00000000 	nop
    bf8c:	3ff00000 	0x3ff00000
    bf90:	00000000 	nop
    bf94:	40240000 	0x40240000
    bf98:	00000000 	nop
    bf9c:	40590000 	cfc0	t9,$0
    bfa0:	00000000 	nop
    bfa4:	408f4000 	mtc0	t7,$8
    bfa8:	00000000 	nop
    bfac:	40c38800 	ctc0	v1,$17
    bfb0:	00000000 	nop
    bfb4:	40f86a00 	0x40f86a00
    bfb8:	00000000 	nop
    bfbc:	412e8480 	0x412e8480
    bfc0:	00000000 	nop
    bfc4:	416312d0 	0x416312d0
    bfc8:	00000000 	nop
    bfcc:	4197d784 	0x4197d784
    bfd0:	00000000 	nop
    bfd4:	41cdcd65 	0x41cdcd65
    bfd8:	20000000 	addi	zero,zero,0
    bfdc:	4202a05f 	c0	0x2a05f
    bfe0:	e8000000 	sv.s	S000.s,0(zero)
    bfe4:	42374876 	c0	0x374876
    bfe8:	a2000000 	sb	zero,0(s0)
    bfec:	426d1a94 	c0	0x6d1a94
    bff0:	e5400000 	swc1	$f0,0(t2)
    bff4:	42a2309c 	c0	0xa2309c
    bff8:	1e900000 	0x1e900000
    bffc:	42d6bcc4 	c0	0xd6bcc4
    c000:	26340000 	addiu	s4,s1,0
    c004:	430c6bf5 	c0	0x10c6bf5
    c008:	37e08000 	ori	zero,ra,0x8000
    c00c:	4341c379 	c0	0x141c379
    c010:	85d8a000 	lh	t8,-24576(t6)
    c014:	43763457 	c0	0x1763457
    c018:	674ec800 	0x674ec800
    c01c:	43abc16d 	c0	0x1abc16d
    c020:	60913d00 	vsub.s	S000.s,S711.s,S410.s
    c024:	43e158e4 	c0	0x1e158e4
    c028:	78b58c40 	0x78b58c40
    c02c:	4415af1d 	0x4415af1d
    c030:	d6e2ef50 	lvl.q	C020.q,-4272(s7)
    c034:	444b1ae4 	0x444b1ae4
    c038:	064dd592 	0x64dd592
    c03c:	4480f0cf 	0x4480f0cf
    c040:	c7e14af6 	lwc1	$f1,19190(ra)
    c044:	44b52d02 	0x44b52d02
    c048:	79d99db4 	0x79d99db4
    c04c:	44ea7843 	0x44ea7843
    c050:	00008830 	tge	zero,zero,0x220
    c054:	00008640 	sll	s0,zero,0x19
    c058:	00008640 	sll	s0,zero,0x19
    c05c:	00008824 	and	s1,zero,zero
    c060:	00008640 	sll	s0,zero,0x19
    c064:	00008640 	sll	s0,zero,0x19
    c068:	00008640 	sll	s0,zero,0x19
    c06c:	00008640 	sll	s0,zero,0x19
    c070:	00008640 	sll	s0,zero,0x19
    c074:	00008640 	sll	s0,zero,0x19
    c078:	00008800 	sll	s1,zero,0x0
    c07c:	000087f0 	tge	zero,zero,0x21f
    c080:	00008640 	sll	s0,zero,0x19
    c084:	000087e4 	0x87e4
    c088:	00008794 	0x8794
    c08c:	00008640 	sll	s0,zero,0x19
    c090:	00008788 	0x8788
    c094:	00008600 	sll	s0,zero,0x18
    c098:	00008600 	sll	s0,zero,0x18
    c09c:	00008600 	sll	s0,zero,0x18
    c0a0:	00008600 	sll	s0,zero,0x18
    c0a4:	00008600 	sll	s0,zero,0x18
    c0a8:	00008600 	sll	s0,zero,0x18
    c0ac:	00008600 	sll	s0,zero,0x18
    c0b0:	00008600 	sll	s0,zero,0x18
    c0b4:	00008600 	sll	s0,zero,0x18
    c0b8:	00008640 	sll	s0,zero,0x19
    c0bc:	00008640 	sll	s0,zero,0x19
    c0c0:	00008640 	sll	s0,zero,0x19
    c0c4:	00008640 	sll	s0,zero,0x19
    c0c8:	00008640 	sll	s0,zero,0x19
    c0cc:	00008640 	sll	s0,zero,0x19
    c0d0:	00008640 	sll	s0,zero,0x19
    c0d4:	00008640 	sll	s0,zero,0x19
    c0d8:	00008640 	sll	s0,zero,0x19
    c0dc:	00008640 	sll	s0,zero,0x19
    c0e0:	00008bc4 	0x8bc4
    c0e4:	00008640 	sll	s0,zero,0x19
    c0e8:	00008640 	sll	s0,zero,0x19
    c0ec:	00008640 	sll	s0,zero,0x19
    c0f0:	00008640 	sll	s0,zero,0x19
    c0f4:	00008640 	sll	s0,zero,0x19
    c0f8:	00008640 	sll	s0,zero,0x19
    c0fc:	00008640 	sll	s0,zero,0x19
    c100:	00008640 	sll	s0,zero,0x19
    c104:	00008640 	sll	s0,zero,0x19
    c108:	00008640 	sll	s0,zero,0x19
    c10c:	00008b90 	0x8b90
    c110:	00008640 	sll	s0,zero,0x19
    c114:	00008640 	sll	s0,zero,0x19
    c118:	00008640 	sll	s0,zero,0x19
    c11c:	00008640 	sll	s0,zero,0x19
    c120:	00008640 	sll	s0,zero,0x19
    c124:	00008b5c 	0x8b5c
    c128:	00008640 	sll	s0,zero,0x19
    c12c:	00008640 	sll	s0,zero,0x19
    c130:	00008b10 	0x8b10
    c134:	00008640 	sll	s0,zero,0x19
    c138:	00008640 	sll	s0,zero,0x19
    c13c:	00008640 	sll	s0,zero,0x19
    c140:	00008640 	sll	s0,zero,0x19
    c144:	00008640 	sll	s0,zero,0x19
    c148:	00008640 	sll	s0,zero,0x19
    c14c:	00008640 	sll	s0,zero,0x19
    c150:	00008640 	sll	s0,zero,0x19
    c154:	00008640 	sll	s0,zero,0x19
    c158:	00008640 	sll	s0,zero,0x19
    c15c:	00008a00 	sll	s1,zero,0x8
    c160:	000089c0 	sll	s1,zero,0x7
    c164:	00008640 	sll	s0,zero,0x19
    c168:	00008640 	sll	s0,zero,0x19
    c16c:	00008640 	sll	s0,zero,0x19
    c170:	000089b4 	teq	zero,zero,0x226
    c174:	000089c0 	sll	s1,zero,0x7
    c178:	00008640 	sll	s0,zero,0x19
    c17c:	00008640 	sll	s0,zero,0x19
    c180:	000089a0 	0x89a0
    c184:	00008640 	sll	s0,zero,0x19
    c188:	00008ac8 	0x8ac8
    c18c:	00008a88 	0x8a88
    c190:	00008a54 	0x8a54
    c194:	00008a48 	0x8a48
    c198:	00008640 	sll	s0,zero,0x19
    c19c:	0000893c 	0x893c
    c1a0:	00008640 	sll	s0,zero,0x19
    c1a4:	000088fc 	0x88fc
    c1a8:	00008640 	sll	s0,zero,0x19
    c1ac:	00008640 	sll	s0,zero,0x19
    c1b0:	00008844 	0x8844
    c1b4:	30303030 	andi	s0,at,0x3030
    c1b8:	30303030 	andi	s0,at,0x3030
    c1bc:	30303030 	andi	s0,at,0x3030
    c1c0:	30303030 	andi	s0,at,0x3030
    c1c4:	20202020 	addi	zero,at,8224
    c1c8:	20202020 	addi	zero,at,8224
    c1cc:	20202020 	addi	zero,at,8224
    c1d0:	20202020 	addi	zero,at,8224
	...
    c1dc:	c1e00000 	ll	zero,0(t7)
	...
    c1f8:	02020100 	0x2020100
    c1fc:	03030303 	0x3030303
    c200:	04040404 	0x4040404
    c204:	04040404 	0x4040404
    c208:	05050505 	0x5050505
    c20c:	05050505 	0x5050505
    c210:	05050505 	0x5050505
    c214:	05050505 	0x5050505
    c218:	06060606 	0x6060606
    c21c:	06060606 	0x6060606
    c220:	06060606 	0x6060606
    c224:	06060606 	0x6060606
    c228:	06060606 	0x6060606
    c22c:	06060606 	0x6060606
    c230:	06060606 	0x6060606
    c234:	06060606 	0x6060606
    c238:	07070707 	0x7070707
    c23c:	07070707 	0x7070707
    c240:	07070707 	0x7070707
    c244:	07070707 	0x7070707
    c248:	07070707 	0x7070707
    c24c:	07070707 	0x7070707
    c250:	07070707 	0x7070707
    c254:	07070707 	0x7070707
    c258:	07070707 	0x7070707
    c25c:	07070707 	0x7070707
    c260:	07070707 	0x7070707
    c264:	07070707 	0x7070707
    c268:	07070707 	0x7070707
    c26c:	07070707 	0x7070707
    c270:	07070707 	0x7070707
    c274:	07070707 	0x7070707
    c278:	08080808 	j	0x202020
    c27c:	08080808 	j	0x202020
    c280:	08080808 	j	0x202020
    c284:	08080808 	j	0x202020
    c288:	08080808 	j	0x202020
    c28c:	08080808 	j	0x202020
    c290:	08080808 	j	0x202020
    c294:	08080808 	j	0x202020
    c298:	08080808 	j	0x202020
    c29c:	08080808 	j	0x202020
    c2a0:	08080808 	j	0x202020
    c2a4:	08080808 	j	0x202020
    c2a8:	08080808 	j	0x202020
    c2ac:	08080808 	j	0x202020
    c2b0:	08080808 	j	0x202020
    c2b4:	08080808 	j	0x202020
    c2b8:	08080808 	j	0x202020
    c2bc:	08080808 	j	0x202020
    c2c0:	08080808 	j	0x202020
    c2c4:	08080808 	j	0x202020
    c2c8:	08080808 	j	0x202020
    c2cc:	08080808 	j	0x202020
    c2d0:	08080808 	j	0x202020
    c2d4:	08080808 	j	0x202020
    c2d8:	08080808 	j	0x202020
    c2dc:	08080808 	j	0x202020
    c2e0:	08080808 	j	0x202020
    c2e4:	08080808 	j	0x202020
    c2e8:	08080808 	j	0x202020
    c2ec:	08080808 	j	0x202020
    c2f0:	08080808 	j	0x202020
    c2f4:	08080808 	j	0x202020
Disassembly of section .rel.rodata:

00000000 <.rel.rodata>:
   0:	0000bd04 	0xbd04
   4:	00000002 	srl	zero,zero,0x0
   8:	0000bd08 	0xbd08
   c:	00000002 	srl	zero,zero,0x0
  10:	0000bd0c 	syscall	0x2f4
  14:	00000002 	srl	zero,zero,0x0
  18:	0000bd10 	0xbd10
  1c:	00000002 	srl	zero,zero,0x0
  20:	0000bd14 	0xbd14
  24:	00000002 	srl	zero,zero,0x0
  28:	0000bd18 	0xbd18
  2c:	00000002 	srl	zero,zero,0x0
  30:	0000bd1c 	0xbd1c
  34:	00000002 	srl	zero,zero,0x0
  38:	0000bd20 	0xbd20
  3c:	00000002 	srl	zero,zero,0x0
  40:	0000bd24 	0xbd24
  44:	00000002 	srl	zero,zero,0x0
  48:	0000bd28 	0xbd28
  4c:	00000002 	srl	zero,zero,0x0
  50:	0000bd2c 	0xbd2c
  54:	00000002 	srl	zero,zero,0x0
  58:	0000bd30 	tge	zero,zero,0x2f4
  5c:	00000002 	srl	zero,zero,0x0
  60:	0000bd34 	teq	zero,zero,0x2f4
  64:	00000002 	srl	zero,zero,0x0
  68:	0000bd38 	0xbd38
  6c:	00000002 	srl	zero,zero,0x0
  70:	0000bd3c 	0xbd3c
  74:	00000002 	srl	zero,zero,0x0
  78:	0000bd40 	sll	s7,zero,0x15
  7c:	00000002 	srl	zero,zero,0x0
  80:	0000bd44 	0xbd44
  84:	00000002 	srl	zero,zero,0x0
  88:	0000bd48 	0xbd48
  8c:	00000002 	srl	zero,zero,0x0
  90:	0000bd4c 	syscall	0x2f5
  94:	00000002 	srl	zero,zero,0x0
  98:	0000bd50 	0xbd50
  9c:	00000002 	srl	zero,zero,0x0
  a0:	0000bd54 	0xbd54
  a4:	00000002 	srl	zero,zero,0x0
  a8:	0000bd58 	0xbd58
  ac:	00000002 	srl	zero,zero,0x0
  b0:	0000bd5c 	0xbd5c
  b4:	00000002 	srl	zero,zero,0x0
  b8:	0000bd60 	0xbd60
  bc:	00000002 	srl	zero,zero,0x0
  c0:	0000bd64 	0xbd64
  c4:	00000002 	srl	zero,zero,0x0
  c8:	0000bd68 	0xbd68
  cc:	00000002 	srl	zero,zero,0x0
  d0:	0000bd6c 	0xbd6c
  d4:	00000002 	srl	zero,zero,0x0
  d8:	0000bd70 	tge	zero,zero,0x2f5
  dc:	00000002 	srl	zero,zero,0x0
  e0:	0000bd74 	teq	zero,zero,0x2f5
  e4:	00000002 	srl	zero,zero,0x0
  e8:	0000bd78 	0xbd78
  ec:	00000002 	srl	zero,zero,0x0
  f0:	0000bd7c 	0xbd7c
  f4:	00000002 	srl	zero,zero,0x0
  f8:	0000bd80 	sll	s7,zero,0x16
  fc:	00000002 	srl	zero,zero,0x0
 100:	0000bd84 	0xbd84
 104:	00000002 	srl	zero,zero,0x0
 108:	0000bd88 	0xbd88
 10c:	00000002 	srl	zero,zero,0x0
 110:	0000bd8c 	syscall	0x2f6
 114:	00000002 	srl	zero,zero,0x0
 118:	0000bd90 	0xbd90
 11c:	00000002 	srl	zero,zero,0x0
 120:	0000bd94 	0xbd94
 124:	00000002 	srl	zero,zero,0x0
 128:	0000bd98 	0xbd98
 12c:	00000002 	srl	zero,zero,0x0
 130:	0000bd9c 	0xbd9c
 134:	00000002 	srl	zero,zero,0x0
 138:	0000bda0 	0xbda0
 13c:	00000002 	srl	zero,zero,0x0
 140:	0000bda4 	0xbda4
 144:	00000002 	srl	zero,zero,0x0
 148:	0000bda8 	0xbda8
 14c:	00000002 	srl	zero,zero,0x0
 150:	0000bdac 	0xbdac
 154:	00000002 	srl	zero,zero,0x0
 158:	0000bdb0 	tge	zero,zero,0x2f6
 15c:	00000002 	srl	zero,zero,0x0
 160:	0000bdb4 	teq	zero,zero,0x2f6
 164:	00000002 	srl	zero,zero,0x0
 168:	0000bdb8 	0xbdb8
 16c:	00000002 	srl	zero,zero,0x0
 170:	0000bdbc 	0xbdbc
 174:	00000002 	srl	zero,zero,0x0
 178:	0000bdc0 	sll	s7,zero,0x17
 17c:	00000002 	srl	zero,zero,0x0
 180:	0000bdc4 	0xbdc4
 184:	00000002 	srl	zero,zero,0x0
 188:	0000bdc8 	0xbdc8
 18c:	00000002 	srl	zero,zero,0x0
 190:	0000bdcc 	syscall	0x2f7
 194:	00000002 	srl	zero,zero,0x0
 198:	0000bdd0 	0xbdd0
 19c:	00000002 	srl	zero,zero,0x0
 1a0:	0000bdd4 	0xbdd4
 1a4:	00000002 	srl	zero,zero,0x0
 1a8:	0000bdd8 	0xbdd8
 1ac:	00000002 	srl	zero,zero,0x0
 1b0:	0000bddc 	0xbddc
 1b4:	00000002 	srl	zero,zero,0x0
 1b8:	0000bde0 	0xbde0
 1bc:	00000002 	srl	zero,zero,0x0
 1c0:	0000bde4 	0xbde4
 1c4:	00000002 	srl	zero,zero,0x0
 1c8:	0000bde8 	0xbde8
 1cc:	00000002 	srl	zero,zero,0x0
 1d0:	0000bdec 	0xbdec
 1d4:	00000002 	srl	zero,zero,0x0
 1d8:	0000bdf0 	tge	zero,zero,0x2f7
 1dc:	00000002 	srl	zero,zero,0x0
 1e0:	0000bdf4 	teq	zero,zero,0x2f7
 1e4:	00000002 	srl	zero,zero,0x0
 1e8:	0000bdf8 	0xbdf8
 1ec:	00000002 	srl	zero,zero,0x0
 1f0:	0000bdfc 	0xbdfc
 1f4:	00000002 	srl	zero,zero,0x0
 1f8:	0000be00 	sll	s7,zero,0x18
 1fc:	00000002 	srl	zero,zero,0x0
 200:	0000be04 	0xbe04
 204:	00000002 	srl	zero,zero,0x0
 208:	0000be08 	0xbe08
 20c:	00000002 	srl	zero,zero,0x0
 210:	0000be0c 	syscall	0x2f8
 214:	00000002 	srl	zero,zero,0x0
 218:	0000be10 	0xbe10
 21c:	00000002 	srl	zero,zero,0x0
 220:	0000be14 	0xbe14
 224:	00000002 	srl	zero,zero,0x0
 228:	0000be18 	0xbe18
 22c:	00000002 	srl	zero,zero,0x0
 230:	0000be1c 	0xbe1c
 234:	00000002 	srl	zero,zero,0x0
 238:	0000be20 	0xbe20
 23c:	00000002 	srl	zero,zero,0x0
 240:	0000be24 	0xbe24
 244:	00000002 	srl	zero,zero,0x0
 248:	0000be28 	0xbe28
 24c:	00000002 	srl	zero,zero,0x0
 250:	0000be2c 	0xbe2c
 254:	00000002 	srl	zero,zero,0x0
 258:	0000be30 	tge	zero,zero,0x2f8
 25c:	00000002 	srl	zero,zero,0x0
 260:	0000be34 	teq	zero,zero,0x2f8
 264:	00000002 	srl	zero,zero,0x0
 268:	0000be38 	0xbe38
 26c:	00000002 	srl	zero,zero,0x0
 270:	0000be3c 	0xbe3c
 274:	00000002 	srl	zero,zero,0x0
 278:	0000be40 	sll	s7,zero,0x19
 27c:	00000002 	srl	zero,zero,0x0
 280:	0000be44 	0xbe44
 284:	00000002 	srl	zero,zero,0x0
 288:	0000be48 	0xbe48
 28c:	00000002 	srl	zero,zero,0x0
 290:	0000be4c 	syscall	0x2f9
 294:	00000002 	srl	zero,zero,0x0
 298:	0000be50 	0xbe50
 29c:	00000002 	srl	zero,zero,0x0
 2a0:	0000be54 	0xbe54
 2a4:	00000002 	srl	zero,zero,0x0
 2a8:	0000be58 	0xbe58
 2ac:	00000002 	srl	zero,zero,0x0
 2b0:	0000be5c 	0xbe5c
 2b4:	00000002 	srl	zero,zero,0x0
 2b8:	0000be60 	0xbe60
 2bc:	00000002 	srl	zero,zero,0x0
 2c0:	0000be64 	0xbe64
 2c4:	00000002 	srl	zero,zero,0x0
 2c8:	0000beec 	0xbeec
 2cc:	00000002 	srl	zero,zero,0x0
 2d0:	0000bef0 	tge	zero,zero,0x2fb
 2d4:	00000002 	srl	zero,zero,0x0
 2d8:	0000bef4 	teq	zero,zero,0x2fb
 2dc:	00000002 	srl	zero,zero,0x0
 2e0:	0000bef8 	0xbef8
 2e4:	00000002 	srl	zero,zero,0x0
 2e8:	0000befc 	0xbefc
 2ec:	00000002 	srl	zero,zero,0x0
 2f0:	0000bf00 	sll	s7,zero,0x1c
 2f4:	00000002 	srl	zero,zero,0x0
 2f8:	0000bf04 	0xbf04
 2fc:	00000002 	srl	zero,zero,0x0
 300:	0000bf08 	0xbf08
 304:	00000002 	srl	zero,zero,0x0
 308:	0000bf0c 	syscall	0x2fc
 30c:	00000002 	srl	zero,zero,0x0
 310:	0000bf10 	0xbf10
 314:	00000002 	srl	zero,zero,0x0
 318:	0000c050 	0xc050
 31c:	00000002 	srl	zero,zero,0x0
 320:	0000c054 	0xc054
 324:	00000002 	srl	zero,zero,0x0
 328:	0000c058 	0xc058
 32c:	00000002 	srl	zero,zero,0x0
 330:	0000c05c 	0xc05c
 334:	00000002 	srl	zero,zero,0x0
 338:	0000c060 	0xc060
 33c:	00000002 	srl	zero,zero,0x0
 340:	0000c064 	0xc064
 344:	00000002 	srl	zero,zero,0x0
 348:	0000c068 	0xc068
 34c:	00000002 	srl	zero,zero,0x0
 350:	0000c06c 	0xc06c
 354:	00000002 	srl	zero,zero,0x0
 358:	0000c070 	tge	zero,zero,0x301
 35c:	00000002 	srl	zero,zero,0x0
 360:	0000c074 	teq	zero,zero,0x301
 364:	00000002 	srl	zero,zero,0x0
 368:	0000c078 	0xc078
 36c:	00000002 	srl	zero,zero,0x0
 370:	0000c07c 	0xc07c
 374:	00000002 	srl	zero,zero,0x0
 378:	0000c080 	sll	t8,zero,0x2
 37c:	00000002 	srl	zero,zero,0x0
 380:	0000c084 	0xc084
 384:	00000002 	srl	zero,zero,0x0
 388:	0000c088 	0xc088
 38c:	00000002 	srl	zero,zero,0x0
 390:	0000c08c 	syscall	0x302
 394:	00000002 	srl	zero,zero,0x0
 398:	0000c090 	0xc090
 39c:	00000002 	srl	zero,zero,0x0
 3a0:	0000c094 	0xc094
 3a4:	00000002 	srl	zero,zero,0x0
 3a8:	0000c098 	0xc098
 3ac:	00000002 	srl	zero,zero,0x0
 3b0:	0000c09c 	0xc09c
 3b4:	00000002 	srl	zero,zero,0x0
 3b8:	0000c0a0 	0xc0a0
 3bc:	00000002 	srl	zero,zero,0x0
 3c0:	0000c0a4 	0xc0a4
 3c4:	00000002 	srl	zero,zero,0x0
 3c8:	0000c0a8 	0xc0a8
 3cc:	00000002 	srl	zero,zero,0x0
 3d0:	0000c0ac 	0xc0ac
 3d4:	00000002 	srl	zero,zero,0x0
 3d8:	0000c0b0 	tge	zero,zero,0x302
 3dc:	00000002 	srl	zero,zero,0x0
 3e0:	0000c0b4 	teq	zero,zero,0x302
 3e4:	00000002 	srl	zero,zero,0x0
 3e8:	0000c0b8 	0xc0b8
 3ec:	00000002 	srl	zero,zero,0x0
 3f0:	0000c0bc 	0xc0bc
 3f4:	00000002 	srl	zero,zero,0x0
 3f8:	0000c0c0 	sll	t8,zero,0x3
 3fc:	00000002 	srl	zero,zero,0x0
 400:	0000c0c4 	0xc0c4
 404:	00000002 	srl	zero,zero,0x0
 408:	0000c0c8 	0xc0c8
 40c:	00000002 	srl	zero,zero,0x0
 410:	0000c0cc 	syscall	0x303
 414:	00000002 	srl	zero,zero,0x0
 418:	0000c0d0 	0xc0d0
 41c:	00000002 	srl	zero,zero,0x0
 420:	0000c0d4 	0xc0d4
 424:	00000002 	srl	zero,zero,0x0
 428:	0000c0d8 	0xc0d8
 42c:	00000002 	srl	zero,zero,0x0
 430:	0000c0dc 	0xc0dc
 434:	00000002 	srl	zero,zero,0x0
 438:	0000c0e0 	0xc0e0
 43c:	00000002 	srl	zero,zero,0x0
 440:	0000c0e4 	0xc0e4
 444:	00000002 	srl	zero,zero,0x0
 448:	0000c0e8 	0xc0e8
 44c:	00000002 	srl	zero,zero,0x0
 450:	0000c0ec 	0xc0ec
 454:	00000002 	srl	zero,zero,0x0
 458:	0000c0f0 	tge	zero,zero,0x303
 45c:	00000002 	srl	zero,zero,0x0
 460:	0000c0f4 	teq	zero,zero,0x303
 464:	00000002 	srl	zero,zero,0x0
 468:	0000c0f8 	0xc0f8
 46c:	00000002 	srl	zero,zero,0x0
 470:	0000c0fc 	0xc0fc
 474:	00000002 	srl	zero,zero,0x0
 478:	0000c100 	sll	t8,zero,0x4
 47c:	00000002 	srl	zero,zero,0x0
 480:	0000c104 	0xc104
 484:	00000002 	srl	zero,zero,0x0
 488:	0000c108 	0xc108
 48c:	00000002 	srl	zero,zero,0x0
 490:	0000c10c 	syscall	0x304
 494:	00000002 	srl	zero,zero,0x0
 498:	0000c110 	0xc110
 49c:	00000002 	srl	zero,zero,0x0
 4a0:	0000c114 	0xc114
 4a4:	00000002 	srl	zero,zero,0x0
 4a8:	0000c118 	0xc118
 4ac:	00000002 	srl	zero,zero,0x0
 4b0:	0000c11c 	0xc11c
 4b4:	00000002 	srl	zero,zero,0x0
 4b8:	0000c120 	0xc120
 4bc:	00000002 	srl	zero,zero,0x0
 4c0:	0000c124 	0xc124
 4c4:	00000002 	srl	zero,zero,0x0
 4c8:	0000c128 	0xc128
 4cc:	00000002 	srl	zero,zero,0x0
 4d0:	0000c12c 	0xc12c
 4d4:	00000002 	srl	zero,zero,0x0
 4d8:	0000c130 	tge	zero,zero,0x304
 4dc:	00000002 	srl	zero,zero,0x0
 4e0:	0000c134 	teq	zero,zero,0x304
 4e4:	00000002 	srl	zero,zero,0x0
 4e8:	0000c138 	0xc138
 4ec:	00000002 	srl	zero,zero,0x0
 4f0:	0000c13c 	0xc13c
 4f4:	00000002 	srl	zero,zero,0x0
 4f8:	0000c140 	sll	t8,zero,0x5
 4fc:	00000002 	srl	zero,zero,0x0
 500:	0000c144 	0xc144
 504:	00000002 	srl	zero,zero,0x0
 508:	0000c148 	0xc148
 50c:	00000002 	srl	zero,zero,0x0
 510:	0000c14c 	syscall	0x305
 514:	00000002 	srl	zero,zero,0x0
 518:	0000c150 	0xc150
 51c:	00000002 	srl	zero,zero,0x0
 520:	0000c154 	0xc154
 524:	00000002 	srl	zero,zero,0x0
 528:	0000c158 	0xc158
 52c:	00000002 	srl	zero,zero,0x0
 530:	0000c15c 	0xc15c
 534:	00000002 	srl	zero,zero,0x0
 538:	0000c160 	0xc160
 53c:	00000002 	srl	zero,zero,0x0
 540:	0000c164 	0xc164
 544:	00000002 	srl	zero,zero,0x0
 548:	0000c168 	0xc168
 54c:	00000002 	srl	zero,zero,0x0
 550:	0000c16c 	0xc16c
 554:	00000002 	srl	zero,zero,0x0
 558:	0000c170 	tge	zero,zero,0x305
 55c:	00000002 	srl	zero,zero,0x0
 560:	0000c174 	teq	zero,zero,0x305
 564:	00000002 	srl	zero,zero,0x0
 568:	0000c178 	0xc178
 56c:	00000002 	srl	zero,zero,0x0
 570:	0000c17c 	0xc17c
 574:	00000002 	srl	zero,zero,0x0
 578:	0000c180 	sll	t8,zero,0x6
 57c:	00000002 	srl	zero,zero,0x0
 580:	0000c184 	0xc184
 584:	00000002 	srl	zero,zero,0x0
 588:	0000c188 	0xc188
 58c:	00000002 	srl	zero,zero,0x0
 590:	0000c18c 	syscall	0x306
 594:	00000002 	srl	zero,zero,0x0
 598:	0000c190 	0xc190
 59c:	00000002 	srl	zero,zero,0x0
 5a0:	0000c194 	0xc194
 5a4:	00000002 	srl	zero,zero,0x0
 5a8:	0000c198 	0xc198
 5ac:	00000002 	srl	zero,zero,0x0
 5b0:	0000c19c 	0xc19c
 5b4:	00000002 	srl	zero,zero,0x0
 5b8:	0000c1a0 	0xc1a0
 5bc:	00000002 	srl	zero,zero,0x0
 5c0:	0000c1a4 	0xc1a4
 5c4:	00000002 	srl	zero,zero,0x0
 5c8:	0000c1a8 	0xc1a8
 5cc:	00000002 	srl	zero,zero,0x0
 5d0:	0000c1ac 	0xc1ac
 5d4:	00000002 	srl	zero,zero,0x0
 5d8:	0000c1b0 	tge	zero,zero,0x306
 5dc:	00000002 	srl	zero,zero,0x0
Disassembly of section .eh_frame:

0000c2f8 <.eh_frame>:
    c2f8:	0000000c 	syscall
    c2fc:	00000000 	nop
    c300:	7c010003 	0x7c010003
    c304:	001d0c1f 	0x1d0c1f
    c308:	0000000c 	syscall
    c30c:	00000014 	0x14
    c310:	00009d4c 	syscall	0x275
    c314:	00000580 	sll	zero,zero,0x16
    c318:	0000000c 	syscall
    c31c:	00000024 	and	zero,zero,zero
    c320:	0000a2cc 	syscall	0x28b
    c324:	00000550 	0x550
    c328:	00000000 	nop
Disassembly of section .rel.eh_frame:

00000000 <.rel.eh_frame>:
   0:	0000c310 	0xc310
   4:	00000002 	srl	zero,zero,0x0
   8:	0000c320 	0xc320
   c:	00000002 	srl	zero,zero,0x0
Disassembly of section .ctors:

0000c42c <.ctors>:
    c42c:	ffffffff 	vsync	0xffff
    c430:	00000000 	nop
Disassembly of section .dtors:

0000c434 <.dtors>:
    c434:	ffffffff 	vsync	0xffff
    c438:	00000000 	nop
Disassembly of section .data:

0000c440 <.data>:
    c440:	00000001 	0x1
    c444:	fffffc00 	vsync	0xfc00
    c448:	80004000 	lb	zero,16384(zero)
    c44c:	00000001 	0x1
    c450:	00000003 	sra	zero,zero,0x0
    c454:	04000000 	bltz	zero,0xc458
    c458:	00000001 	0x1
    c45c:	ffffffff 	vsync	0xffff
	...
    c468:	81a5423c 	lb	a1,16956(t5)
    c46c:	3c4299a5 	0x3c4299a5
    c470:	ffdb7e3c 	sdc3	$27,32316(s8)
    c474:	3c66dbff 	0x3c66dbff
    c478:	fefefe6c 	sdc3	$30,-404(s7)
    c47c:	0010387c 	0x10387c
    c480:	fe7c3810 	sdc3	$28,14352(s3)
    c484:	0010387c 	0x10387c
    c488:	fe543810 	sdc3	$20,14352(s2)
    c48c:	00381054 	0x381054
    c490:	fe7c3810 	sdc3	$28,14352(s3)
    c494:	003810fe 	0x3810fe
    c498:	30000000 	andi	zero,zero,0x0
    c49c:	00000030 	tge	zero,zero
    c4a0:	e7ffffff 	swc1	$f31,-1(ra)
    c4a4:	ffffffe7 	vsync	0xffe7
    c4a8:	82824438 	lb	v0,17464(s4)
    c4ac:	00384482 	ror	t0,t8,0x12
    c4b0:	7d7dbbc7 	0x7d7dbbc7
    c4b4:	ffc7bb7d 	sdc3	$7,-17539(s8)
    c4b8:	7905030f 	0x7905030f
    c4bc:	70888888 	lwxs	s1,t0(a0)
    c4c0:	44444438 	0x44444438
    c4c4:	107c1038 	beq	v1,gp,0x105a8
    c4c8:	24242830 	addiu	a0,at,10288
    c4cc:	c0e02028 	ll	zero,8232(a3)
    c4d0:	243c243c 	addiu	gp,at,9276
    c4d4:	18dce424 	0x18dce424
    c4d8:	ee385410 	swc3	$24,21520(s1)
    c4dc:	00105438 	0x105438
    c4e0:	7c101010 	0x7c101010
    c4e4:	10101010 	beq	zero,s0,0x10528
    c4e8:	ff101010 	sdc3	$16,4112(t8)
    c4ec:	00000000 	nop
    c4f0:	ff000000 	sdc3	$0,0(t8)
    c4f4:	10101010 	beq	zero,s0,0x10538
    c4f8:	f0101010 	0xf0101010
    c4fc:	10101010 	beq	zero,s0,0x10540
    c500:	1f101010 	0x1f101010
    c504:	10101010 	beq	zero,s0,0x10548
    c508:	ff101010 	sdc3	$16,4112(t8)
    c50c:	10101010 	beq	zero,s0,0x10550
    c510:	10101010 	beq	zero,s0,0x10554
    c514:	10101010 	beq	zero,s0,0x10558
    c518:	ff000000 	sdc3	$0,0(t8)
    c51c:	00000000 	nop
    c520:	1f000000 	bgtz	t8,0xc524
    c524:	10101010 	beq	zero,s0,0x10568
    c528:	f0000000 	0xf0000000
    c52c:	10101010 	beq	zero,s0,0x10570
    c530:	1f101010 	0x1f101010
    c534:	00000000 	nop
    c538:	f0101010 	0xf0101010
    c53c:	00000000 	nop
    c540:	18244281 	0x18244281
    c544:	81422418 	lb	v0,9240(t2)
    c548:	08040201 	j	0x100804
    c54c:	80402010 	lb	zero,8208(v0)
    c550:	10204080 	beqz	at,0x1c754
    c554:	01020408 	0x1020408
    c558:	ff101000 	sdc3	$16,4096(t8)
    c55c:	00001010 	mfhi	v0
	...
    c568:	20202020 	addi	zero,at,8224
    c56c:	00200000 	0x200000
    c570:	00505050 	0x505050
    c574:	00000000 	nop
    c578:	50f85050 	beql	a3,t8,0x206bc
    c57c:	005050f8 	0x5050f8
    c580:	70a07820 	0x70a07820
    c584:	0020f028 	0x20f028
    c588:	2010c8c0 	addi	s0,zero,-14144
    c58c:	00189840 	sll	s3,t8,0x1
    c590:	a840a040 	swl	zero,-24512(v0)
    c594:	00609890 	0x609890
    c598:	00402010 	0x402010
    c59c:	00000000 	nop
    c5a0:	40402010 	0x40402010
    c5a4:	00102040 	sll	a0,s0,0x1
    c5a8:	10102040 	beq	zero,s0,0x146ac
    c5ac:	00402010 	0x402010
    c5b0:	2070a820 	addi	s0,v1,-22496
    c5b4:	0020a870 	tge	at,zero,0x2a1
    c5b8:	f8202000 	sv.q	C000.q,8192(at)
    c5bc:	00002020 	add	a0,zero,zero
    c5c0:	00000000 	nop
    c5c4:	40202000 	0x40202000
    c5c8:	78000000 	0x78000000
	...
    c5d4:	00606000 	0x606000
    c5d8:	10080000 	beq	zero,t0,0xc5dc
    c5dc:	00804020 	add	t0,a0,zero
    c5e0:	a8988870 	swl	t8,-30608(a0)
    c5e4:	007088c8 	0x7088c8
    c5e8:	20a06020 	addi	zero,a1,24608
    c5ec:	00f82020 	add	a0,a3,t8
    c5f0:	10088870 	beq	zero,t0,0xfffee7b4
    c5f4:	00f88060 	0xf88060
    c5f8:	30088870 	andi	t0,zero,0x8870
    c5fc:	00708808 	0x708808
    c600:	90503010 	lbu	s0,12304(v0)
    c604:	001010f8 	0x1010f8
    c608:	10e080f8 	beqz	a3,0xfffec9ec
    c60c:	00e01008 	0xe01008
    c610:	f0804030 	vhtfm2.p	R400.p,M002.p,C000.p
    c614:	00708888 	0x708888
    c618:	201088f8 	addi	s0,zero,-30472
    c61c:	00202020 	add	a0,at,zero
    c620:	70888870 	0x70888870
    c624:	00708888 	0x708888
    c628:	78888870 	0x78888870
    c62c:	00601008 	0x601008
    c630:	00200000 	0x200000
    c634:	00002000 	sll	a0,zero,0x0
    c638:	00200000 	0x200000
    c63c:	40202000 	0x40202000
    c640:	c0603018 	ll	zero,12312(v1)
    c644:	00183060 	0x183060
    c648:	00f80000 	0xf80000
    c64c:	000000f8 	0xf8
    c650:	183060c0 	0x183060c0
    c654:	00c06030 	tge	a2,zero,0x180
    c658:	10088870 	beq	zero,t0,0xfffee81c
    c65c:	00200020 	add	zero,at,zero
    c660:	68088870 	ldl	t0,-30608(zero)
    c664:	0070a8a8 	0x70a8a8
    c668:	88885020 	lwl	t0,20512(a0)
    c66c:	008888f8 	0x8888f8
    c670:	704848f0 	0x704848f0
    c674:	00f04848 	0xf04848
    c678:	80804830 	lb	zero,18480(a0)
    c67c:	00304880 	0x304880
    c680:	484850e0 	0x484850e0
    c684:	00e05048 	0xe05048
    c688:	f08080f8 	0xf08080f8
    c68c:	00f88080 	0xf88080
    c690:	f08080f8 	0xf08080f8
    c694:	00808080 	0x808080
    c698:	b8808870 	swr	zero,-30608(a0)
    c69c:	00708888 	0x708888
    c6a0:	f8888888 	sv.q	C200.q,-30584(a0)
    c6a4:	00888888 	0x888888
    c6a8:	20202070 	addi	zero,at,8304
    c6ac:	00702020 	add	a0,v1,s0
    c6b0:	10101038 	beq	zero,s0,0x10794
    c6b4:	00609090 	0x609090
    c6b8:	c0a09088 	ll	zero,-28536(a1)
    c6bc:	008890a0 	0x8890a0
    c6c0:	80808080 	lb	zero,-32640(a0)
    c6c4:	00f88080 	0xf88080
    c6c8:	a8a8d888 	swl	t0,-10104(a1)
    c6cc:	00888888 	0x888888
    c6d0:	a8c8c888 	swl	t0,-14200(a2)
    c6d4:	00889898 	0x889898
    c6d8:	88888870 	lwl	t0,-30608(a0)
    c6dc:	00708888 	0x708888
    c6e0:	f08888f0 	0xf08888f0
    c6e4:	00808080 	0x808080
    c6e8:	88888870 	lwl	t0,-30608(a0)
    c6ec:	006890a8 	0x6890a8
    c6f0:	f08888f0 	0xf08888f0
    c6f4:	008890a0 	0x8890a0
    c6f8:	70808870 	0x70808870
    c6fc:	00708808 	0x708808
    c700:	202020f8 	addi	zero,at,8440
    c704:	00202020 	add	a0,at,zero
    c708:	88888888 	lwl	t0,-30584(a0)
    c70c:	00708888 	0x708888
    c710:	88888888 	lwl	t0,-30584(a0)
    c714:	00205050 	0x205050
    c718:	a8888888 	swl	t0,-30584(a0)
    c71c:	0088d8a8 	0x88d8a8
    c720:	20508888 	addi	s0,v0,-30584
    c724:	00888850 	0x888850
    c728:	70888888 	lwxs	s1,t0(a0)
    c72c:	00202020 	add	a0,at,zero
    c730:	201008f8 	addi	s0,zero,2296
    c734:	00f88040 	0xf88040
    c738:	40404070 	0x40404070
    c73c:	00704040 	0x704040
    c740:	40800000 	mtc0	zero,$0
    c744:	00081020 	add	v0,zero,t0
    c748:	10101070 	beq	zero,s0,0x1090c
    c74c:	00701010 	0x701010
    c750:	00885020 	add	t2,a0,t0
	...
    c75c:	00f80000 	0xf80000
    c760:	00102040 	sll	a0,s0,0x1
    c764:	00000000 	nop
    c768:	08700000 	j	0x1c00000
    c76c:	00788878 	0x788878
    c770:	c8b08080 	lv.s	S400.s,-32640(a1)
    c774:	00b0c888 	0xb0c888
    c778:	88700000 	lwl	s0,0(v1)
    c77c:	00708880 	0x708880
    c780:	98680808 	lwr	t0,2056(v1)
    c784:	00689888 	0x689888
    c788:	88700000 	lwl	s0,0(v1)
    c78c:	007080f8 	0x7080f8
    c790:	f8202810 	sv.q	C000.q,10256(at)
    c794:	00202020 	add	a0,at,zero
    c798:	98680000 	lwr	t0,0(v1)
    c79c:	70086898 	0x70086898
    c7a0:	88f08080 	lwl	s0,-32640(a3)
    c7a4:	00888888 	0x888888
    c7a8:	20600020 	addi	zero,v1,32
    c7ac:	00702020 	add	a0,v1,s0
    c7b0:	10300010 	beq	at,s0,0xc7f4
    c7b4:	60901010 	vsub.s	S400.s,S400.s,S400.s
    c7b8:	50484040 	beql	v0,t0,0x1c8bc
    c7bc:	00485060 	0x485060
    c7c0:	20202060 	addi	zero,at,8288
    c7c4:	00702020 	add	a0,v1,s0
    c7c8:	a8d00000 	swl	s0,0(a2)
    c7cc:	00a8a8a8 	0xa8a8a8
    c7d0:	c8b00000 	lv.s	S400.s,0(a1)
    c7d4:	00888888 	0x888888
    c7d8:	88700000 	lwl	s0,0(v1)
    c7dc:	00708888 	0x708888
    c7e0:	c8b00000 	lv.s	S400.s,0(a1)
    c7e4:	8080b0c8 	lb	zero,-20280(a0)
    c7e8:	98680000 	lwr	t0,0(v1)
    c7ec:	08086898 	j	0x21a260
    c7f0:	c8b00000 	lv.s	S400.s,0(a1)
    c7f4:	00808080 	0x808080
    c7f8:	80780000 	lb	t8,0(v1)
    c7fc:	00f008f0 	tge	a3,s0,0x23
    c800:	40f04040 	0x40f04040
    c804:	00304840 	0x304840
    c808:	90900000 	lbu	s0,0(a0)
    c80c:	00689090 	0x689090
    c810:	88880000 	lwl	t0,0(a0)
    c814:	00205088 	0x205088
    c818:	a8880000 	swl	t0,0(a0)
    c81c:	0050a8a8 	0x50a8a8
    c820:	50880000 	beql	a0,t0,0xc824
    c824:	00885020 	add	t2,a0,t0
    c828:	88880000 	lwl	t0,0(a0)
    c82c:	70086898 	0x70086898
    c830:	10f80000 	beq	a3,t8,0xc834
    c834:	00f84020 	add	t0,a3,t8
    c838:	40202018 	0x40202018
    c83c:	00182020 	add	a0,zero,t8
    c840:	00202020 	add	a0,at,zero
    c844:	00202020 	add	a0,at,zero
    c848:	102020c0 	beqz	at,0x14b4c
    c84c:	00c02020 	add	a0,a2,zero
    c850:	0010a840 	sll	s5,s0,0x1
    c854:	00000000 	nop
    c858:	50200000 	beqzl	at,0xc85c
    c85c:	000000f8 	0xf8
    c860:	80808870 	lb	zero,-30608(a0)
    c864:	60207088 	vadd.p	C200.p,R420.p,R000.p
    c868:	90000090 	lbu	zero,144(zero)
    c86c:	00689090 	0x689090
    c870:	88702010 	lwl	s0,8208(v1)
    c874:	007080f8 	0x7080f8
    c878:	08705020 	j	0x1c14080
    c87c:	00788878 	0x788878
    c880:	08700048 	j	0x1c00120
    c884:	00788878 	0x788878
    c888:	08701020 	j	0x1c04080
    c88c:	00788878 	0x788878
    c890:	08700020 	j	0x1c00080
    c894:	00788878 	0x788878
    c898:	80807000 	lb	zero,28672(a0)
    c89c:	60107080 	vadd.p	C000.p,R420.p,C400.p
    c8a0:	88705020 	lwl	s0,20512(v1)
    c8a4:	007080f8 	0x7080f8
    c8a8:	88700050 	lwl	s0,80(v1)
    c8ac:	007080f8 	0x7080f8
    c8b0:	88701020 	lwl	s0,4128(v1)
    c8b4:	007080f8 	0x7080f8
    c8b8:	60000050 	vadd.s	S402.s,S000.s,S000.s
    c8bc:	00702020 	add	a0,v1,s0
    c8c0:	60005020 	vadd.s	S001.s,S402.s,S000.s
    c8c4:	00702020 	add	a0,v1,s0
    c8c8:	60002040 	vadd.s	S002.s,S001.s,S000.s
    c8cc:	00702020 	add	a0,v1,s0
    c8d0:	50200050 	beqzl	at,0xca14
    c8d4:	0088f888 	0x88f888
    c8d8:	50200020 	beqzl	at,0xc95c
    c8dc:	0088f888 	0x88f888
    c8e0:	80f82010 	lb	t8,8208(a3)
    c8e4:	00f880f0 	tge	a3,t8,0x203
    c8e8:	126c0000 	beq	s3,t4,0xc8ec
    c8ec:	006e907e 	0x6e907e
    c8f0:	9c90503e 	0x9c90503e
    c8f4:	009e90f0 	tge	a0,s8,0x243
    c8f8:	60009060 	vadd.t	R010.t,C400.t,C000.t
    c8fc:	00609090 	0x609090
    c900:	60000090 	vadd.p	C400.p,C000.p,C000.p
    c904:	00609090 	0x609090
    c908:	60002040 	vadd.s	S002.s,S001.s,S000.s
    c90c:	00609090 	0x609090
    c910:	a000a040 	sb	zero,-24512(zero)
    c914:	0050a0a0 	0x50a0a0
    c918:	a0002040 	sb	zero,8256(zero)
    c91c:	0050a0a0 	0x50a0a0
    c920:	90900090 	lbu	s0,144(a0)
    c924:	e01050b0 	sc	s0,20656(zero)
    c928:	88700050 	lwl	s0,80(v1)
    c92c:	00708888 	0x708888
    c930:	88880050 	lwl	t0,80(a0)
    c934:	00708888 	0x708888
    c938:	80782020 	lb	t8,8224(v1)
    c93c:	20207880 	addi	zero,at,30848
    c940:	f8202418 	sv.q	C000.q,9240(at)
    c944:	005ce220 	0x5ce220
    c948:	f8205088 	sv.q	C000.q,20616(at)
    c94c:	0020f820 	add	ra,at,zero
    c950:	c8a0a0c0 	lv.s	S000.s,-24384(a1)
    c954:	8c88889c 	lw	t0,-30564(a0)
    c958:	f8202018 	sv.q	C000.q,8216(at)
    c95c:	40202020 	0x40202020
    c960:	08702010 	j	0x1c08040
    c964:	00788878 	0x788878
    c968:	60002010 	vadd.s	S400.s,S001.s,S000.s
    c96c:	00702020 	add	a0,v1,s0
    c970:	60004020 	vadd.s	S001.s,S002.s,S000.s
    c974:	00609090 	0x609090
    c978:	90004020 	lbu	zero,16416(zero)
    c97c:	00689090 	0x689090
    c980:	a000a050 	sb	zero,-24496(zero)
    c984:	009090d0 	0x9090d0
    c988:	c8005028 	lv.s	S000.s,20520(zero)
    c98c:	008898a8 	0x8898a8
    c990:	78087000 	0x78087000
    c994:	f8007888 	sv.q	C000.q,30856(zero)
    c998:	90906000 	lbu	s0,24576(a0)
    c99c:	f0006090 	vmmul.p	M400.p,M002.p,M000.p
    c9a0:	40200020 	0x40200020
    c9a4:	00708880 	0x708880
    c9a8:	f8000000 	sv.q	C000.q,0(zero)
    c9ac:	00008080 	sll	s0,zero,0x2
    c9b0:	f8000000 	sv.q	C000.q,0(zero)
    c9b4:	00000808 	0x808
    c9b8:	a8908884 	swl	s0,-30588(a0)
    c9bc:	1c088454 	0x1c088454
    c9c0:	a8908884 	swl	s0,-30588(a0)
    c9c4:	083ca858 	j	0xf2a160
    c9c8:	20000020 	addi	zero,zero,32
    c9cc:	00202020 	add	a0,at,zero
    c9d0:	48240000 	0x48240000
    c9d4:	00244890 	0x244890
    c9d8:	48900000 	mtc2	s0,$0
    c9dc:	00904824 	and	t1,a0,s0
    c9e0:	50205028 	beqzl	at,0x20a84
    c9e4:	0088f888 	0x88f888
    c9e8:	08705028 	j	0x1c140a0
    c9ec:	00788878 	0x788878
    c9f0:	70005028 	0x70005028
    c9f4:	00702020 	add	a0,v1,s0
    c9f8:	20005028 	addi	zero,zero,20520
    c9fc:	00702020 	add	a0,v1,s0
    ca00:	70005028 	0x70005028
    ca04:	00708888 	0x708888
    ca08:	6000a050 	vadd.t	C401.t,R000.t,C000.t
    ca0c:	00609090 	0x609090
    ca10:	88005028 	lwl	zero,20520(zero)
    ca14:	00708888 	0x708888
    ca18:	a000a050 	sb	zero,-24496(zero)
    ca1c:	0050a0a0 	0x50a0a0
    ca20:	484848fc 	0x484848fc
    ca24:	205008e8 	addi	s0,v0,2280
    ca28:	50005000 	beqzl	zero,0x20a2c
    ca2c:	20105050 	addi	s0,zero,20560
    ca30:	54c844c0 	bnel	a2,t0,0x1dd34
    ca34:	049e54ec 	0x49e54ec
    ca38:	0040a810 	0x40a810
    ca3c:	00000000 	nop
    ca40:	88502000 	lwl	s0,8192(v0)
    ca44:	00002050 	0x2050
    ca48:	40201088 	0x40201088
    ca4c:	00002880 	sll	a1,zero,0x2
    ca50:	68a8a87c 	ldl	t0,-22404(a1)
    ca54:	00282828 	0x282828
    ca58:	48304038 	0x48304038
    ca5c:	70083048 	0x70083048
    ca60:	00000000 	nop
    ca64:	ffff0000 	vnop
    ca68:	f0f0f0f0 	0xf0f0f0f0
    ca6c:	0f0f0f0f 	jal	0xc3c3c3c
    ca70:	ffff0000 	vnop
    ca74:	ffffffff 	vsync	0xffff
    ca78:	0000ffff 	0xffff
    ca7c:	00000000 	nop
    ca80:	3c000000 	lui	zero,0x0
    ca84:	0000003c 	0x3c
    ca88:	ffffffff 	vsync	0xffff
    ca8c:	0000ffff 	0xffff
    ca90:	c0c0c0c0 	ll	zero,-16192(a2)
    ca94:	c0c0c0c0 	ll	zero,-16192(a2)
    ca98:	0f0f0f0f 	jal	0xc3c3c3c
    ca9c:	f0f0f0f0 	0xf0f0f0f0
    caa0:	fcfcfcfc 	sdc3	$28,-772(a3)
    caa4:	fcfcfcfc 	sdc3	$28,-772(a3)
    caa8:	03030303 	0x3030303
    caac:	03030303 	0x3030303
    cab0:	3f3f3f3f 	0x3f3f3f3f
    cab4:	3f3f3f3f 	0x3f3f3f3f
    cab8:	88442211 	lwl	a0,8721(v0)
    cabc:	88442211 	lwl	a0,8721(v0)
    cac0:	11224488 	beq	t1,v0,0x1dce4
    cac4:	11224488 	beq	t1,v0,0x1dce8
    cac8:	10387cfe 	beq	at,t8,0x2bec4
    cacc:	00000000 	nop
    cad0:	00000000 	nop
    cad4:	fe7c3810 	sdc3	$28,14352(s3)
    cad8:	f0e0c080 	0xf0e0c080
    cadc:	0080c0e0 	0x80c0e0
    cae0:	0f070301 	jal	0xc1c0c04
    cae4:	00010307 	0x10307
    cae8:	183c7eff 	0x183c7eff
    caec:	ff7e3c18 	sdc3	$30,15384(k1)
    caf0:	ffe7c381 	sdc3	$7,-15487(ra)
    caf4:	81c3e7ff 	lb	v1,-6145(t6)
    caf8:	f0f0f0f0 	0xf0f0f0f0
	...
    cb04:	0f0f0f0f 	jal	0xc3c3c3c
    cb08:	0f0f0f0f 	jal	0xc3c3c3c
    cb0c:	00000000 	nop
    cb10:	00000000 	nop
    cb14:	f0f0f0f0 	0xf0f0f0f0
    cb18:	cccc3333 	lwc3	$12,13107(a2)
    cb1c:	cccc3333 	lwc3	$12,13107(a2)
    cb20:	50202000 	beqzl	at,0x14b24
    cb24:	00f88850 	0xf88850
    cb28:	20702020 	addi	s0,v1,8224
    cb2c:	00202070 	tge	at,zero,0x81
    cb30:	50000000 	beqzl	zero,0xcb34
    cb34:	0050a888 	0x50a888
    cb38:	ffffffff 	vsync	0xffff
    cb3c:	ffffffff 	vsync	0xffff
    cb40:	00000000 	nop
    cb44:	ffffffff 	vsync	0xffff
    cb48:	f0f0f0f0 	0xf0f0f0f0
    cb4c:	f0f0f0f0 	0xf0f0f0f0
    cb50:	0f0f0f0f 	jal	0xc3c3c3c
    cb54:	0f0f0f0f 	jal	0xc3c3c3c
    cb58:	ffffffff 	vsync	0xffff
    cb5c:	00000000 	nop
    cb60:	90680000 	lbu	t0,0(v1)
    cb64:	00689090 	0x689090
    cb68:	70484830 	0x70484830
    cb6c:	c0704848 	ll	s0,18504(v1)
    cb70:	808088f8 	lb	zero,-30472(a0)
    cb74:	00808080 	0x808080
    cb78:	505050f8 	beql	v0,s0,0x20f5c
    cb7c:	00985050 	0x985050
    cb80:	204088f8 	addi	zero,v0,-30472
    cb84:	00f88840 	0xf88840
    cb88:	90780000 	lbu	t8,0(v1)
    cb8c:	00609090 	0x609090
    cb90:	50505000 	beql	v0,s0,0x20b94
    cb94:	80806850 	lb	zero,26704(a0)
    cb98:	20a05000 	addi	zero,a1,20480
    cb9c:	00202020 	add	a0,at,zero
    cba0:	a87020f8 	swl	s0,8440(v1)
    cba4:	f82070a8 	sv.q	C000.q,28840(at)
    cba8:	f8885020 	sv.q	C200.q,20512(a0)
    cbac:	00205088 	0x205088
    cbb0:	88888870 	lwl	t0,-30608(a0)
    cbb4:	00d85050 	0xd85050
    cbb8:	20404030 	addi	zero,v0,16432
    cbbc:	20505050 	addi	s0,v0,20560
    cbc0:	50000000 	beqzl	zero,0xcbc4
    cbc4:	0050a8a8 	0x50a8a8
    cbc8:	a8a87008 	swl	t0,28680(a1)
    cbcc:	008070a8 	0x8070a8
    cbd0:	f8804038 	sv.q	C000.q,16440(a0)
    cbd4:	00384080 	0x384080
    cbd8:	88888870 	lwl	t0,-30608(a0)
    cbdc:	00888888 	0x888888
    cbe0:	f800f800 	sv.q	C000.q,-2048(zero)
    cbe4:	0000f800 	sll	ra,zero,0x0
    cbe8:	20f82020 	addi	t8,a3,8224
    cbec:	00f80020 	add	zero,a3,t8
    cbf0:	300830c0 	andi	t0,zero,0x30c0
    cbf4:	00f800c0 	0xf800c0
    cbf8:	60806018 	vsub.s	S600.s,S003.s,S000.s
    cbfc:	00f80018 	mult	a3,t8
    cc00:	20202810 	addi	zero,at,10256
    cc04:	20202020 	addi	zero,at,8224
    cc08:	20202020 	addi	zero,at,8224
    cc0c:	40a02020 	0x40a02020
    cc10:	f8002000 	sv.q	C000.q,8192(zero)
    cc14:	00002000 	sll	a0,zero,0x0
    cc18:	00a05000 	0xa05000
    cc1c:	0000a050 	0xa050
    cc20:	24241800 	addiu	a0,at,6144
    cc24:	00000018 	mult	zero,zero
    cc28:	78783000 	0x78783000
    cc2c:	00000030 	tge	zero,zero
    cc30:	00000000 	nop
    cc34:	00000030 	tge	zero,zero
    cc38:	2020203e 	addi	zero,at,8254
    cc3c:	002060a0 	0x2060a0
    cc40:	505050a0 	beql	v0,s0,0x20ec4
    cc44:	00000000 	nop
    cc48:	4020a040 	0x4020a040
    cc4c:	000000e0 	0xe0
    cc50:	38383800 	xori	t8,at,0x3800
    cc54:	00383838 	0x383838
	...
    cc64:	0000cf4c 	syscall	0x33d
    cc68:	0000cfb4 	teq	zero,zero,0x33e
    cc6c:	0000d01c 	0xd01c
	...
    cc94:	0000bcb4 	teq	zero,zero,0x2f2
	...
    cd08:	00000001 	0x1
    cd0c:	00000000 	nop
    cd10:	abcd330e 	swl	t5,13070(s8)
    cd14:	e66d1234 	swc1	$f13,4660(s3)
    cd18:	0005deec 	0x5deec
    cd1c:	0000000b 	movn	zero,zero,zero
	...
    d088:	ffffffff 	vsync	0xffff
    d08c:	00020000 	sll	zero,v0,0x0
	...
    d098:	0000d090 	0xd090
    d09c:	0000d090 	0xd090
    d0a0:	0000d098 	0xd098
    d0a4:	0000d098 	0xd098
    d0a8:	0000d0a0 	0xd0a0
    d0ac:	0000d0a0 	0xd0a0
    d0b0:	0000d0a8 	0xd0a8
    d0b4:	0000d0a8 	0xd0a8
    d0b8:	0000d0b0 	tge	zero,zero,0x342
    d0bc:	0000d0b0 	tge	zero,zero,0x342
    d0c0:	0000d0b8 	0xd0b8
    d0c4:	0000d0b8 	0xd0b8
    d0c8:	0000d0c0 	sll	k0,zero,0x3
    d0cc:	0000d0c0 	sll	k0,zero,0x3
    d0d0:	0000d0c8 	0xd0c8
    d0d4:	0000d0c8 	0xd0c8
    d0d8:	0000d0d0 	0xd0d0
    d0dc:	0000d0d0 	0xd0d0
    d0e0:	0000d0d8 	0xd0d8
    d0e4:	0000d0d8 	0xd0d8
    d0e8:	0000d0e0 	0xd0e0
    d0ec:	0000d0e0 	0xd0e0
    d0f0:	0000d0e8 	0xd0e8
    d0f4:	0000d0e8 	0xd0e8
    d0f8:	0000d0f0 	tge	zero,zero,0x343
    d0fc:	0000d0f0 	tge	zero,zero,0x343
    d100:	0000d0f8 	0xd0f8
    d104:	0000d0f8 	0xd0f8
    d108:	0000d100 	sll	k0,zero,0x4
    d10c:	0000d100 	sll	k0,zero,0x4
    d110:	0000d108 	0xd108
    d114:	0000d108 	0xd108
    d118:	0000d110 	0xd110
    d11c:	0000d110 	0xd110
    d120:	0000d118 	0xd118
    d124:	0000d118 	0xd118
    d128:	0000d120 	0xd120
    d12c:	0000d120 	0xd120
    d130:	0000d128 	0xd128
    d134:	0000d128 	0xd128
    d138:	0000d130 	tge	zero,zero,0x344
    d13c:	0000d130 	tge	zero,zero,0x344
    d140:	0000d138 	0xd138
    d144:	0000d138 	0xd138
    d148:	0000d140 	sll	k0,zero,0x5
    d14c:	0000d140 	sll	k0,zero,0x5
    d150:	0000d148 	0xd148
    d154:	0000d148 	0xd148
    d158:	0000d150 	0xd150
    d15c:	0000d150 	0xd150
    d160:	0000d158 	0xd158
    d164:	0000d158 	0xd158
    d168:	0000d160 	0xd160
    d16c:	0000d160 	0xd160
    d170:	0000d168 	0xd168
    d174:	0000d168 	0xd168
    d178:	0000d170 	tge	zero,zero,0x345
    d17c:	0000d170 	tge	zero,zero,0x345
    d180:	0000d178 	0xd178
    d184:	0000d178 	0xd178
    d188:	0000d180 	sll	k0,zero,0x6
    d18c:	0000d180 	sll	k0,zero,0x6
    d190:	0000d188 	0xd188
    d194:	0000d188 	0xd188
    d198:	0000d190 	0xd190
    d19c:	0000d190 	0xd190
    d1a0:	0000d198 	0xd198
    d1a4:	0000d198 	0xd198
    d1a8:	0000d1a0 	0xd1a0
    d1ac:	0000d1a0 	0xd1a0
    d1b0:	0000d1a8 	0xd1a8
    d1b4:	0000d1a8 	0xd1a8
    d1b8:	0000d1b0 	tge	zero,zero,0x346
    d1bc:	0000d1b0 	tge	zero,zero,0x346
    d1c0:	0000d1b8 	0xd1b8
    d1c4:	0000d1b8 	0xd1b8
    d1c8:	0000d1c0 	sll	k0,zero,0x7
    d1cc:	0000d1c0 	sll	k0,zero,0x7
    d1d0:	0000d1c8 	0xd1c8
    d1d4:	0000d1c8 	0xd1c8
    d1d8:	0000d1d0 	0xd1d0
    d1dc:	0000d1d0 	0xd1d0
    d1e0:	0000d1d8 	0xd1d8
    d1e4:	0000d1d8 	0xd1d8
    d1e8:	0000d1e0 	0xd1e0
    d1ec:	0000d1e0 	0xd1e0
    d1f0:	0000d1e8 	0xd1e8
    d1f4:	0000d1e8 	0xd1e8
    d1f8:	0000d1f0 	tge	zero,zero,0x347
    d1fc:	0000d1f0 	tge	zero,zero,0x347
    d200:	0000d1f8 	0xd1f8
    d204:	0000d1f8 	0xd1f8
    d208:	0000d200 	sll	k0,zero,0x8
    d20c:	0000d200 	sll	k0,zero,0x8
    d210:	0000d208 	0xd208
    d214:	0000d208 	0xd208
    d218:	0000d210 	0xd210
    d21c:	0000d210 	0xd210
    d220:	0000d218 	0xd218
    d224:	0000d218 	0xd218
    d228:	0000d220 	0xd220
    d22c:	0000d220 	0xd220
    d230:	0000d228 	0xd228
    d234:	0000d228 	0xd228
    d238:	0000d230 	tge	zero,zero,0x348
    d23c:	0000d230 	tge	zero,zero,0x348
    d240:	0000d238 	0xd238
    d244:	0000d238 	0xd238
    d248:	0000d240 	sll	k0,zero,0x9
    d24c:	0000d240 	sll	k0,zero,0x9
    d250:	0000d248 	0xd248
    d254:	0000d248 	0xd248
    d258:	0000d250 	0xd250
    d25c:	0000d250 	0xd250
    d260:	0000d258 	0xd258
    d264:	0000d258 	0xd258
    d268:	0000d260 	0xd260
    d26c:	0000d260 	0xd260
    d270:	0000d268 	0xd268
    d274:	0000d268 	0xd268
    d278:	0000d270 	tge	zero,zero,0x349
    d27c:	0000d270 	tge	zero,zero,0x349
    d280:	0000d278 	0xd278
    d284:	0000d278 	0xd278
    d288:	0000d280 	sll	k0,zero,0xa
    d28c:	0000d280 	sll	k0,zero,0xa
    d290:	0000d288 	0xd288
    d294:	0000d288 	0xd288
    d298:	0000d290 	0xd290
    d29c:	0000d290 	0xd290
    d2a0:	0000d298 	0xd298
    d2a4:	0000d298 	0xd298
    d2a8:	0000d2a0 	0xd2a0
    d2ac:	0000d2a0 	0xd2a0
    d2b0:	0000d2a8 	0xd2a8
    d2b4:	0000d2a8 	0xd2a8
    d2b8:	0000d2b0 	tge	zero,zero,0x34a
    d2bc:	0000d2b0 	tge	zero,zero,0x34a
    d2c0:	0000d2b8 	0xd2b8
    d2c4:	0000d2b8 	0xd2b8
    d2c8:	0000d2c0 	sll	k0,zero,0xb
    d2cc:	0000d2c0 	sll	k0,zero,0xb
    d2d0:	0000d2c8 	0xd2c8
    d2d4:	0000d2c8 	0xd2c8
    d2d8:	0000d2d0 	0xd2d0
    d2dc:	0000d2d0 	0xd2d0
    d2e0:	0000d2d8 	0xd2d8
    d2e4:	0000d2d8 	0xd2d8
    d2e8:	0000d2e0 	0xd2e0
    d2ec:	0000d2e0 	0xd2e0
    d2f0:	0000d2e8 	0xd2e8
    d2f4:	0000d2e8 	0xd2e8
    d2f8:	0000d2f0 	tge	zero,zero,0x34b
    d2fc:	0000d2f0 	tge	zero,zero,0x34b
    d300:	0000d2f8 	0xd2f8
    d304:	0000d2f8 	0xd2f8
    d308:	0000d300 	sll	k0,zero,0xc
    d30c:	0000d300 	sll	k0,zero,0xc
    d310:	0000d308 	0xd308
    d314:	0000d308 	0xd308
    d318:	0000d310 	0xd310
    d31c:	0000d310 	0xd310
    d320:	0000d318 	0xd318
    d324:	0000d318 	0xd318
    d328:	0000d320 	0xd320
    d32c:	0000d320 	0xd320
    d330:	0000d328 	0xd328
    d334:	0000d328 	0xd328
    d338:	0000d330 	tge	zero,zero,0x34c
    d33c:	0000d330 	tge	zero,zero,0x34c
    d340:	0000d338 	0xd338
    d344:	0000d338 	0xd338
    d348:	0000d340 	sll	k0,zero,0xd
    d34c:	0000d340 	sll	k0,zero,0xd
    d350:	0000d348 	0xd348
    d354:	0000d348 	0xd348
    d358:	0000d350 	0xd350
    d35c:	0000d350 	0xd350
    d360:	0000d358 	0xd358
    d364:	0000d358 	0xd358
    d368:	0000d360 	0xd360
    d36c:	0000d360 	0xd360
    d370:	0000d368 	0xd368
    d374:	0000d368 	0xd368
    d378:	0000d370 	tge	zero,zero,0x34d
    d37c:	0000d370 	tge	zero,zero,0x34d
    d380:	0000d378 	0xd378
    d384:	0000d378 	0xd378
    d388:	0000d380 	sll	k0,zero,0xe
    d38c:	0000d380 	sll	k0,zero,0xe
    d390:	0000d388 	0xd388
    d394:	0000d388 	0xd388
    d398:	0000d390 	0xd390
    d39c:	0000d390 	0xd390
    d3a0:	0000d398 	0xd398
    d3a4:	0000d398 	0xd398
    d3a8:	0000d3a0 	0xd3a0
    d3ac:	0000d3a0 	0xd3a0
    d3b0:	0000d3a8 	0xd3a8
    d3b4:	0000d3a8 	0xd3a8
    d3b8:	0000d3b0 	tge	zero,zero,0x34e
    d3bc:	0000d3b0 	tge	zero,zero,0x34e
    d3c0:	0000d3b8 	0xd3b8
    d3c4:	0000d3b8 	0xd3b8
    d3c8:	0000d3c0 	sll	k0,zero,0xf
    d3cc:	0000d3c0 	sll	k0,zero,0xf
    d3d0:	0000d3c8 	0xd3c8
    d3d4:	0000d3c8 	0xd3c8
    d3d8:	0000d3d0 	0xd3d0
    d3dc:	0000d3d0 	0xd3d0
    d3e0:	0000d3d8 	0xd3d8
    d3e4:	0000d3d8 	0xd3d8
    d3e8:	0000d3e0 	0xd3e0
    d3ec:	0000d3e0 	0xd3e0
    d3f0:	0000d3e8 	0xd3e8
    d3f4:	0000d3e8 	0xd3e8
    d3f8:	0000d3f0 	tge	zero,zero,0x34f
    d3fc:	0000d3f0 	tge	zero,zero,0x34f
    d400:	0000d3f8 	0xd3f8
    d404:	0000d3f8 	0xd3f8
    d408:	0000d400 	sll	k0,zero,0x10
    d40c:	0000d400 	sll	k0,zero,0x10
    d410:	0000d408 	0xd408
    d414:	0000d408 	0xd408
    d418:	0000d410 	0xd410
    d41c:	0000d410 	0xd410
    d420:	0000d418 	0xd418
    d424:	0000d418 	0xd418
    d428:	0000d420 	0xd420
    d42c:	0000d420 	0xd420
    d430:	0000d428 	0xd428
    d434:	0000d428 	0xd428
    d438:	0000d430 	tge	zero,zero,0x350
    d43c:	0000d430 	tge	zero,zero,0x350
    d440:	0000d438 	0xd438
    d444:	0000d438 	0xd438
    d448:	0000d440 	sll	k0,zero,0x11
    d44c:	0000d440 	sll	k0,zero,0x11
    d450:	0000d448 	0xd448
    d454:	0000d448 	0xd448
    d458:	0000d450 	0xd450
    d45c:	0000d450 	0xd450
    d460:	0000d458 	0xd458
    d464:	0000d458 	0xd458
    d468:	0000d460 	0xd460
    d46c:	0000d460 	0xd460
    d470:	0000d468 	0xd468
    d474:	0000d468 	0xd468
    d478:	0000d470 	tge	zero,zero,0x351
    d47c:	0000d470 	tge	zero,zero,0x351
    d480:	0000d478 	0xd478
    d484:	0000d478 	0xd478
    d488:	0000d480 	sll	k0,zero,0x12
    d48c:	0000d480 	sll	k0,zero,0x12
    d490:	0000d488 	0xd488
    d494:	0000d488 	0xd488
    d498:	49435341 	0x49435341
    d49c:	00000049 	0x49
	...
    d4b8:	49435341 	0x49435341
    d4bc:	00000049 	0x49
	...
    d4d8:	00000001 	0x1
Disassembly of section .rel.data:

00000000 <.rel.data>:
   0:	0000cc64 	0xcc64
   4:	00000002 	srl	zero,zero,0x0
   8:	0000cc68 	0xcc68
   c:	00000002 	srl	zero,zero,0x0
  10:	0000cc6c 	0xcc6c
  14:	00000002 	srl	zero,zero,0x0
  18:	0000cc94 	0xcc94
  1c:	00000002 	srl	zero,zero,0x0
  20:	0000d098 	0xd098
  24:	00000002 	srl	zero,zero,0x0
  28:	0000d09c 	0xd09c
  2c:	00000002 	srl	zero,zero,0x0
  30:	0000d0a0 	0xd0a0
  34:	00000002 	srl	zero,zero,0x0
  38:	0000d0a4 	0xd0a4
  3c:	00000002 	srl	zero,zero,0x0
  40:	0000d0a8 	0xd0a8
  44:	00000002 	srl	zero,zero,0x0
  48:	0000d0ac 	0xd0ac
  4c:	00000002 	srl	zero,zero,0x0
  50:	0000d0b0 	tge	zero,zero,0x342
  54:	00000002 	srl	zero,zero,0x0
  58:	0000d0b4 	teq	zero,zero,0x342
  5c:	00000002 	srl	zero,zero,0x0
  60:	0000d0b8 	0xd0b8
  64:	00000002 	srl	zero,zero,0x0
  68:	0000d0bc 	0xd0bc
  6c:	00000002 	srl	zero,zero,0x0
  70:	0000d0c0 	sll	k0,zero,0x3
  74:	00000002 	srl	zero,zero,0x0
  78:	0000d0c4 	0xd0c4
  7c:	00000002 	srl	zero,zero,0x0
  80:	0000d0c8 	0xd0c8
  84:	00000002 	srl	zero,zero,0x0
  88:	0000d0cc 	syscall	0x343
  8c:	00000002 	srl	zero,zero,0x0
  90:	0000d0d0 	0xd0d0
  94:	00000002 	srl	zero,zero,0x0
  98:	0000d0d4 	0xd0d4
  9c:	00000002 	srl	zero,zero,0x0
  a0:	0000d0d8 	0xd0d8
  a4:	00000002 	srl	zero,zero,0x0
  a8:	0000d0dc 	0xd0dc
  ac:	00000002 	srl	zero,zero,0x0
  b0:	0000d0e0 	0xd0e0
  b4:	00000002 	srl	zero,zero,0x0
  b8:	0000d0e4 	0xd0e4
  bc:	00000002 	srl	zero,zero,0x0
  c0:	0000d0e8 	0xd0e8
  c4:	00000002 	srl	zero,zero,0x0
  c8:	0000d0ec 	0xd0ec
  cc:	00000002 	srl	zero,zero,0x0
  d0:	0000d0f0 	tge	zero,zero,0x343
  d4:	00000002 	srl	zero,zero,0x0
  d8:	0000d0f4 	teq	zero,zero,0x343
  dc:	00000002 	srl	zero,zero,0x0
  e0:	0000d0f8 	0xd0f8
  e4:	00000002 	srl	zero,zero,0x0
  e8:	0000d0fc 	0xd0fc
  ec:	00000002 	srl	zero,zero,0x0
  f0:	0000d100 	sll	k0,zero,0x4
  f4:	00000002 	srl	zero,zero,0x0
  f8:	0000d104 	0xd104
  fc:	00000002 	srl	zero,zero,0x0
 100:	0000d108 	0xd108
 104:	00000002 	srl	zero,zero,0x0
 108:	0000d10c 	syscall	0x344
 10c:	00000002 	srl	zero,zero,0x0
 110:	0000d110 	0xd110
 114:	00000002 	srl	zero,zero,0x0
 118:	0000d114 	0xd114
 11c:	00000002 	srl	zero,zero,0x0
 120:	0000d118 	0xd118
 124:	00000002 	srl	zero,zero,0x0
 128:	0000d11c 	0xd11c
 12c:	00000002 	srl	zero,zero,0x0
 130:	0000d120 	0xd120
 134:	00000002 	srl	zero,zero,0x0
 138:	0000d124 	0xd124
 13c:	00000002 	srl	zero,zero,0x0
 140:	0000d128 	0xd128
 144:	00000002 	srl	zero,zero,0x0
 148:	0000d12c 	0xd12c
 14c:	00000002 	srl	zero,zero,0x0
 150:	0000d130 	tge	zero,zero,0x344
 154:	00000002 	srl	zero,zero,0x0
 158:	0000d134 	teq	zero,zero,0x344
 15c:	00000002 	srl	zero,zero,0x0
 160:	0000d138 	0xd138
 164:	00000002 	srl	zero,zero,0x0
 168:	0000d13c 	0xd13c
 16c:	00000002 	srl	zero,zero,0x0
 170:	0000d140 	sll	k0,zero,0x5
 174:	00000002 	srl	zero,zero,0x0
 178:	0000d144 	0xd144
 17c:	00000002 	srl	zero,zero,0x0
 180:	0000d148 	0xd148
 184:	00000002 	srl	zero,zero,0x0
 188:	0000d14c 	syscall	0x345
 18c:	00000002 	srl	zero,zero,0x0
 190:	0000d150 	0xd150
 194:	00000002 	srl	zero,zero,0x0
 198:	0000d154 	0xd154
 19c:	00000002 	srl	zero,zero,0x0
 1a0:	0000d158 	0xd158
 1a4:	00000002 	srl	zero,zero,0x0
 1a8:	0000d15c 	0xd15c
 1ac:	00000002 	srl	zero,zero,0x0
 1b0:	0000d160 	0xd160
 1b4:	00000002 	srl	zero,zero,0x0
 1b8:	0000d164 	0xd164
 1bc:	00000002 	srl	zero,zero,0x0
 1c0:	0000d168 	0xd168
 1c4:	00000002 	srl	zero,zero,0x0
 1c8:	0000d16c 	0xd16c
 1cc:	00000002 	srl	zero,zero,0x0
 1d0:	0000d170 	tge	zero,zero,0x345
 1d4:	00000002 	srl	zero,zero,0x0
 1d8:	0000d174 	teq	zero,zero,0x345
 1dc:	00000002 	srl	zero,zero,0x0
 1e0:	0000d178 	0xd178
 1e4:	00000002 	srl	zero,zero,0x0
 1e8:	0000d17c 	0xd17c
 1ec:	00000002 	srl	zero,zero,0x0
 1f0:	0000d180 	sll	k0,zero,0x6
 1f4:	00000002 	srl	zero,zero,0x0
 1f8:	0000d184 	0xd184
 1fc:	00000002 	srl	zero,zero,0x0
 200:	0000d188 	0xd188
 204:	00000002 	srl	zero,zero,0x0
 208:	0000d18c 	syscall	0x346
 20c:	00000002 	srl	zero,zero,0x0
 210:	0000d190 	0xd190
 214:	00000002 	srl	zero,zero,0x0
 218:	0000d194 	0xd194
 21c:	00000002 	srl	zero,zero,0x0
 220:	0000d198 	0xd198
 224:	00000002 	srl	zero,zero,0x0
 228:	0000d19c 	0xd19c
 22c:	00000002 	srl	zero,zero,0x0
 230:	0000d1a0 	0xd1a0
 234:	00000002 	srl	zero,zero,0x0
 238:	0000d1a4 	0xd1a4
 23c:	00000002 	srl	zero,zero,0x0
 240:	0000d1a8 	0xd1a8
 244:	00000002 	srl	zero,zero,0x0
 248:	0000d1ac 	0xd1ac
 24c:	00000002 	srl	zero,zero,0x0
 250:	0000d1b0 	tge	zero,zero,0x346
 254:	00000002 	srl	zero,zero,0x0
 258:	0000d1b4 	teq	zero,zero,0x346
 25c:	00000002 	srl	zero,zero,0x0
 260:	0000d1b8 	0xd1b8
 264:	00000002 	srl	zero,zero,0x0
 268:	0000d1bc 	0xd1bc
 26c:	00000002 	srl	zero,zero,0x0
 270:	0000d1c0 	sll	k0,zero,0x7
 274:	00000002 	srl	zero,zero,0x0
 278:	0000d1c4 	0xd1c4
 27c:	00000002 	srl	zero,zero,0x0
 280:	0000d1c8 	0xd1c8
 284:	00000002 	srl	zero,zero,0x0
 288:	0000d1cc 	syscall	0x347
 28c:	00000002 	srl	zero,zero,0x0
 290:	0000d1d0 	0xd1d0
 294:	00000002 	srl	zero,zero,0x0
 298:	0000d1d4 	0xd1d4
 29c:	00000002 	srl	zero,zero,0x0
 2a0:	0000d1d8 	0xd1d8
 2a4:	00000002 	srl	zero,zero,0x0
 2a8:	0000d1dc 	0xd1dc
 2ac:	00000002 	srl	zero,zero,0x0
 2b0:	0000d1e0 	0xd1e0
 2b4:	00000002 	srl	zero,zero,0x0
 2b8:	0000d1e4 	0xd1e4
 2bc:	00000002 	srl	zero,zero,0x0
 2c0:	0000d1e8 	0xd1e8
 2c4:	00000002 	srl	zero,zero,0x0
 2c8:	0000d1ec 	0xd1ec
 2cc:	00000002 	srl	zero,zero,0x0
 2d0:	0000d1f0 	tge	zero,zero,0x347
 2d4:	00000002 	srl	zero,zero,0x0
 2d8:	0000d1f4 	teq	zero,zero,0x347
 2dc:	00000002 	srl	zero,zero,0x0
 2e0:	0000d1f8 	0xd1f8
 2e4:	00000002 	srl	zero,zero,0x0
 2e8:	0000d1fc 	0xd1fc
 2ec:	00000002 	srl	zero,zero,0x0
 2f0:	0000d200 	sll	k0,zero,0x8
 2f4:	00000002 	srl	zero,zero,0x0
 2f8:	0000d204 	0xd204
 2fc:	00000002 	srl	zero,zero,0x0
 300:	0000d208 	0xd208
 304:	00000002 	srl	zero,zero,0x0
 308:	0000d20c 	syscall	0x348
 30c:	00000002 	srl	zero,zero,0x0
 310:	0000d210 	0xd210
 314:	00000002 	srl	zero,zero,0x0
 318:	0000d214 	0xd214
 31c:	00000002 	srl	zero,zero,0x0
 320:	0000d218 	0xd218
 324:	00000002 	srl	zero,zero,0x0
 328:	0000d21c 	0xd21c
 32c:	00000002 	srl	zero,zero,0x0
 330:	0000d220 	0xd220
 334:	00000002 	srl	zero,zero,0x0
 338:	0000d224 	0xd224
 33c:	00000002 	srl	zero,zero,0x0
 340:	0000d228 	0xd228
 344:	00000002 	srl	zero,zero,0x0
 348:	0000d22c 	0xd22c
 34c:	00000002 	srl	zero,zero,0x0
 350:	0000d230 	tge	zero,zero,0x348
 354:	00000002 	srl	zero,zero,0x0
 358:	0000d234 	teq	zero,zero,0x348
 35c:	00000002 	srl	zero,zero,0x0
 360:	0000d238 	0xd238
 364:	00000002 	srl	zero,zero,0x0
 368:	0000d23c 	0xd23c
 36c:	00000002 	srl	zero,zero,0x0
 370:	0000d240 	sll	k0,zero,0x9
 374:	00000002 	srl	zero,zero,0x0
 378:	0000d244 	0xd244
 37c:	00000002 	srl	zero,zero,0x0
 380:	0000d248 	0xd248
 384:	00000002 	srl	zero,zero,0x0
 388:	0000d24c 	syscall	0x349
 38c:	00000002 	srl	zero,zero,0x0
 390:	0000d250 	0xd250
 394:	00000002 	srl	zero,zero,0x0
 398:	0000d254 	0xd254
 39c:	00000002 	srl	zero,zero,0x0
 3a0:	0000d258 	0xd258
 3a4:	00000002 	srl	zero,zero,0x0
 3a8:	0000d25c 	0xd25c
 3ac:	00000002 	srl	zero,zero,0x0
 3b0:	0000d260 	0xd260
 3b4:	00000002 	srl	zero,zero,0x0
 3b8:	0000d264 	0xd264
 3bc:	00000002 	srl	zero,zero,0x0
 3c0:	0000d268 	0xd268
 3c4:	00000002 	srl	zero,zero,0x0
 3c8:	0000d26c 	0xd26c
 3cc:	00000002 	srl	zero,zero,0x0
 3d0:	0000d270 	tge	zero,zero,0x349
 3d4:	00000002 	srl	zero,zero,0x0
 3d8:	0000d274 	teq	zero,zero,0x349
 3dc:	00000002 	srl	zero,zero,0x0
 3e0:	0000d278 	0xd278
 3e4:	00000002 	srl	zero,zero,0x0
 3e8:	0000d27c 	0xd27c
 3ec:	00000002 	srl	zero,zero,0x0
 3f0:	0000d280 	sll	k0,zero,0xa
 3f4:	00000002 	srl	zero,zero,0x0
 3f8:	0000d284 	0xd284
 3fc:	00000002 	srl	zero,zero,0x0
 400:	0000d288 	0xd288
 404:	00000002 	srl	zero,zero,0x0
 408:	0000d28c 	syscall	0x34a
 40c:	00000002 	srl	zero,zero,0x0
 410:	0000d290 	0xd290
 414:	00000002 	srl	zero,zero,0x0
 418:	0000d294 	0xd294
 41c:	00000002 	srl	zero,zero,0x0
 420:	0000d298 	0xd298
 424:	00000002 	srl	zero,zero,0x0
 428:	0000d29c 	0xd29c
 42c:	00000002 	srl	zero,zero,0x0
 430:	0000d2a0 	0xd2a0
 434:	00000002 	srl	zero,zero,0x0
 438:	0000d2a4 	0xd2a4
 43c:	00000002 	srl	zero,zero,0x0
 440:	0000d2a8 	0xd2a8
 444:	00000002 	srl	zero,zero,0x0
 448:	0000d2ac 	0xd2ac
 44c:	00000002 	srl	zero,zero,0x0
 450:	0000d2b0 	tge	zero,zero,0x34a
 454:	00000002 	srl	zero,zero,0x0
 458:	0000d2b4 	teq	zero,zero,0x34a
 45c:	00000002 	srl	zero,zero,0x0
 460:	0000d2b8 	0xd2b8
 464:	00000002 	srl	zero,zero,0x0
 468:	0000d2bc 	0xd2bc
 46c:	00000002 	srl	zero,zero,0x0
 470:	0000d2c0 	sll	k0,zero,0xb
 474:	00000002 	srl	zero,zero,0x0
 478:	0000d2c4 	0xd2c4
 47c:	00000002 	srl	zero,zero,0x0
 480:	0000d2c8 	0xd2c8
 484:	00000002 	srl	zero,zero,0x0
 488:	0000d2cc 	syscall	0x34b
 48c:	00000002 	srl	zero,zero,0x0
 490:	0000d2d0 	0xd2d0
 494:	00000002 	srl	zero,zero,0x0
 498:	0000d2d4 	0xd2d4
 49c:	00000002 	srl	zero,zero,0x0
 4a0:	0000d2d8 	0xd2d8
 4a4:	00000002 	srl	zero,zero,0x0
 4a8:	0000d2dc 	0xd2dc
 4ac:	00000002 	srl	zero,zero,0x0
 4b0:	0000d2e0 	0xd2e0
 4b4:	00000002 	srl	zero,zero,0x0
 4b8:	0000d2e4 	0xd2e4
 4bc:	00000002 	srl	zero,zero,0x0
 4c0:	0000d2e8 	0xd2e8
 4c4:	00000002 	srl	zero,zero,0x0
 4c8:	0000d2ec 	0xd2ec
 4cc:	00000002 	srl	zero,zero,0x0
 4d0:	0000d2f0 	tge	zero,zero,0x34b
 4d4:	00000002 	srl	zero,zero,0x0
 4d8:	0000d2f4 	teq	zero,zero,0x34b
 4dc:	00000002 	srl	zero,zero,0x0
 4e0:	0000d2f8 	0xd2f8
 4e4:	00000002 	srl	zero,zero,0x0
 4e8:	0000d2fc 	0xd2fc
 4ec:	00000002 	srl	zero,zero,0x0
 4f0:	0000d300 	sll	k0,zero,0xc
 4f4:	00000002 	srl	zero,zero,0x0
 4f8:	0000d304 	0xd304
 4fc:	00000002 	srl	zero,zero,0x0
 500:	0000d308 	0xd308
 504:	00000002 	srl	zero,zero,0x0
 508:	0000d30c 	syscall	0x34c
 50c:	00000002 	srl	zero,zero,0x0
 510:	0000d310 	0xd310
 514:	00000002 	srl	zero,zero,0x0
 518:	0000d314 	0xd314
 51c:	00000002 	srl	zero,zero,0x0
 520:	0000d318 	0xd318
 524:	00000002 	srl	zero,zero,0x0
 528:	0000d31c 	0xd31c
 52c:	00000002 	srl	zero,zero,0x0
 530:	0000d320 	0xd320
 534:	00000002 	srl	zero,zero,0x0
 538:	0000d324 	0xd324
 53c:	00000002 	srl	zero,zero,0x0
 540:	0000d328 	0xd328
 544:	00000002 	srl	zero,zero,0x0
 548:	0000d32c 	0xd32c
 54c:	00000002 	srl	zero,zero,0x0
 550:	0000d330 	tge	zero,zero,0x34c
 554:	00000002 	srl	zero,zero,0x0
 558:	0000d334 	teq	zero,zero,0x34c
 55c:	00000002 	srl	zero,zero,0x0
 560:	0000d338 	0xd338
 564:	00000002 	srl	zero,zero,0x0
 568:	0000d33c 	0xd33c
 56c:	00000002 	srl	zero,zero,0x0
 570:	0000d340 	sll	k0,zero,0xd
 574:	00000002 	srl	zero,zero,0x0
 578:	0000d344 	0xd344
 57c:	00000002 	srl	zero,zero,0x0
 580:	0000d348 	0xd348
 584:	00000002 	srl	zero,zero,0x0
 588:	0000d34c 	syscall	0x34d
 58c:	00000002 	srl	zero,zero,0x0
 590:	0000d350 	0xd350
 594:	00000002 	srl	zero,zero,0x0
 598:	0000d354 	0xd354
 59c:	00000002 	srl	zero,zero,0x0
 5a0:	0000d358 	0xd358
 5a4:	00000002 	srl	zero,zero,0x0
 5a8:	0000d35c 	0xd35c
 5ac:	00000002 	srl	zero,zero,0x0
 5b0:	0000d360 	0xd360
 5b4:	00000002 	srl	zero,zero,0x0
 5b8:	0000d364 	0xd364
 5bc:	00000002 	srl	zero,zero,0x0
 5c0:	0000d368 	0xd368
 5c4:	00000002 	srl	zero,zero,0x0
 5c8:	0000d36c 	0xd36c
 5cc:	00000002 	srl	zero,zero,0x0
 5d0:	0000d370 	tge	zero,zero,0x34d
 5d4:	00000002 	srl	zero,zero,0x0
 5d8:	0000d374 	teq	zero,zero,0x34d
 5dc:	00000002 	srl	zero,zero,0x0
 5e0:	0000d378 	0xd378
 5e4:	00000002 	srl	zero,zero,0x0
 5e8:	0000d37c 	0xd37c
 5ec:	00000002 	srl	zero,zero,0x0
 5f0:	0000d380 	sll	k0,zero,0xe
 5f4:	00000002 	srl	zero,zero,0x0
 5f8:	0000d384 	0xd384
 5fc:	00000002 	srl	zero,zero,0x0
 600:	0000d388 	0xd388
 604:	00000002 	srl	zero,zero,0x0
 608:	0000d38c 	syscall	0x34e
 60c:	00000002 	srl	zero,zero,0x0
 610:	0000d390 	0xd390
 614:	00000002 	srl	zero,zero,0x0
 618:	0000d394 	0xd394
 61c:	00000002 	srl	zero,zero,0x0
 620:	0000d398 	0xd398
 624:	00000002 	srl	zero,zero,0x0
 628:	0000d39c 	0xd39c
 62c:	00000002 	srl	zero,zero,0x0
 630:	0000d3a0 	0xd3a0
 634:	00000002 	srl	zero,zero,0x0
 638:	0000d3a4 	0xd3a4
 63c:	00000002 	srl	zero,zero,0x0
 640:	0000d3a8 	0xd3a8
 644:	00000002 	srl	zero,zero,0x0
 648:	0000d3ac 	0xd3ac
 64c:	00000002 	srl	zero,zero,0x0
 650:	0000d3b0 	tge	zero,zero,0x34e
 654:	00000002 	srl	zero,zero,0x0
 658:	0000d3b4 	teq	zero,zero,0x34e
 65c:	00000002 	srl	zero,zero,0x0
 660:	0000d3b8 	0xd3b8
 664:	00000002 	srl	zero,zero,0x0
 668:	0000d3bc 	0xd3bc
 66c:	00000002 	srl	zero,zero,0x0
 670:	0000d3c0 	sll	k0,zero,0xf
 674:	00000002 	srl	zero,zero,0x0
 678:	0000d3c4 	0xd3c4
 67c:	00000002 	srl	zero,zero,0x0
 680:	0000d3c8 	0xd3c8
 684:	00000002 	srl	zero,zero,0x0
 688:	0000d3cc 	syscall	0x34f
 68c:	00000002 	srl	zero,zero,0x0
 690:	0000d3d0 	0xd3d0
 694:	00000002 	srl	zero,zero,0x0
 698:	0000d3d4 	0xd3d4
 69c:	00000002 	srl	zero,zero,0x0
 6a0:	0000d3d8 	0xd3d8
 6a4:	00000002 	srl	zero,zero,0x0
 6a8:	0000d3dc 	0xd3dc
 6ac:	00000002 	srl	zero,zero,0x0
 6b0:	0000d3e0 	0xd3e0
 6b4:	00000002 	srl	zero,zero,0x0
 6b8:	0000d3e4 	0xd3e4
 6bc:	00000002 	srl	zero,zero,0x0
 6c0:	0000d3e8 	0xd3e8
 6c4:	00000002 	srl	zero,zero,0x0
 6c8:	0000d3ec 	0xd3ec
 6cc:	00000002 	srl	zero,zero,0x0
 6d0:	0000d3f0 	tge	zero,zero,0x34f
 6d4:	00000002 	srl	zero,zero,0x0
 6d8:	0000d3f4 	teq	zero,zero,0x34f
 6dc:	00000002 	srl	zero,zero,0x0
 6e0:	0000d3f8 	0xd3f8
 6e4:	00000002 	srl	zero,zero,0x0
 6e8:	0000d3fc 	0xd3fc
 6ec:	00000002 	srl	zero,zero,0x0
 6f0:	0000d400 	sll	k0,zero,0x10
 6f4:	00000002 	srl	zero,zero,0x0
 6f8:	0000d404 	0xd404
 6fc:	00000002 	srl	zero,zero,0x0
 700:	0000d408 	0xd408
 704:	00000002 	srl	zero,zero,0x0
 708:	0000d40c 	syscall	0x350
 70c:	00000002 	srl	zero,zero,0x0
 710:	0000d410 	0xd410
 714:	00000002 	srl	zero,zero,0x0
 718:	0000d414 	0xd414
 71c:	00000002 	srl	zero,zero,0x0
 720:	0000d418 	0xd418
 724:	00000002 	srl	zero,zero,0x0
 728:	0000d41c 	0xd41c
 72c:	00000002 	srl	zero,zero,0x0
 730:	0000d420 	0xd420
 734:	00000002 	srl	zero,zero,0x0
 738:	0000d424 	0xd424
 73c:	00000002 	srl	zero,zero,0x0
 740:	0000d428 	0xd428
 744:	00000002 	srl	zero,zero,0x0
 748:	0000d42c 	0xd42c
 74c:	00000002 	srl	zero,zero,0x0
 750:	0000d430 	tge	zero,zero,0x350
 754:	00000002 	srl	zero,zero,0x0
 758:	0000d434 	teq	zero,zero,0x350
 75c:	00000002 	srl	zero,zero,0x0
 760:	0000d438 	0xd438
 764:	00000002 	srl	zero,zero,0x0
 768:	0000d43c 	0xd43c
 76c:	00000002 	srl	zero,zero,0x0
 770:	0000d440 	sll	k0,zero,0x11
 774:	00000002 	srl	zero,zero,0x0
 778:	0000d444 	0xd444
 77c:	00000002 	srl	zero,zero,0x0
 780:	0000d448 	0xd448
 784:	00000002 	srl	zero,zero,0x0
 788:	0000d44c 	syscall	0x351
 78c:	00000002 	srl	zero,zero,0x0
 790:	0000d450 	0xd450
 794:	00000002 	srl	zero,zero,0x0
 798:	0000d454 	0xd454
 79c:	00000002 	srl	zero,zero,0x0
 7a0:	0000d458 	0xd458
 7a4:	00000002 	srl	zero,zero,0x0
 7a8:	0000d45c 	0xd45c
 7ac:	00000002 	srl	zero,zero,0x0
 7b0:	0000d460 	0xd460
 7b4:	00000002 	srl	zero,zero,0x0
 7b8:	0000d464 	0xd464
 7bc:	00000002 	srl	zero,zero,0x0
 7c0:	0000d468 	0xd468
 7c4:	00000002 	srl	zero,zero,0x0
 7c8:	0000d46c 	0xd46c
 7cc:	00000002 	srl	zero,zero,0x0
 7d0:	0000d470 	tge	zero,zero,0x351
 7d4:	00000002 	srl	zero,zero,0x0
 7d8:	0000d474 	teq	zero,zero,0x351
 7dc:	00000002 	srl	zero,zero,0x0
 7e0:	0000d478 	0xd478
 7e4:	00000002 	srl	zero,zero,0x0
 7e8:	0000d47c 	0xd47c
 7ec:	00000002 	srl	zero,zero,0x0
 7f0:	0000d480 	sll	k0,zero,0x12
 7f4:	00000002 	srl	zero,zero,0x0
 7f8:	0000d484 	0xd484
 7fc:	00000002 	srl	zero,zero,0x0
 800:	0000d488 	0xd488
 804:	00000002 	srl	zero,zero,0x0
 808:	0000d48c 	syscall	0x352
 80c:	00000002 	srl	zero,zero,0x0
 810:	0000d490 	0xd490
 814:	00000002 	srl	zero,zero,0x0
 818:	0000d494 	0xd494
 81c:	00000002 	srl	zero,zero,0x0
Disassembly of section .sdata:

0000d4dc <.sdata>:
    d4dc:	00000000 	nop
    d4e0:	0000cc60 	0xcc60
    d4e4:	0000cc60 	0xcc60
Disassembly of section .rel.sdata:

00000000 <.rel.sdata>:
   0:	0000d4e0 	0xd4e0
   4:	00000002 	srl	zero,zero,0x0
   8:	0000d4e4 	0xd4e4
   c:	00000002 	srl	zero,zero,0x0
Disassembly of section .bss:

0000d4e8 <.bss>:
	...
